
lights.elf:     file format elf32-littlenios2
lights.elf
architecture: nios2, flags 0x00000112:
EXEC_P, HAS_SYMS, D_PAGED
start address 0x008001b4

Program Header:
    LOAD off    0x00001000 vaddr 0x00800000 paddr 0x00800000 align 2**12
         filesz 0x00000020 memsz 0x00000020 flags r-x
    LOAD off    0x00001020 vaddr 0x00800020 paddr 0x00800020 align 2**12
         filesz 0x000127fc memsz 0x000127fc flags r-x
    LOAD off    0x0001381c vaddr 0x0081281c paddr 0x00814544 align 2**12
         filesz 0x00001d28 memsz 0x00001d28 flags rw-
    LOAD off    0x0001626c vaddr 0x0081626c paddr 0x0081626c align 2**12
         filesz 0x00000000 memsz 0x00000308 flags rw-

Sections:
Idx Name          Size      VMA       LMA       File off  Algn
  0 .entry        00000020  00800000  00800000  00001000  2**5
                  CONTENTS, ALLOC, LOAD, READONLY, CODE
  1 .exceptions   00000194  00800020  00800020  00001020  2**2
                  CONTENTS, ALLOC, LOAD, READONLY, CODE
  2 .text         0001115c  008001b4  008001b4  000011b4  2**2
                  CONTENTS, ALLOC, LOAD, READONLY, CODE
  3 .rodata       0000150c  00811310  00811310  00012310  2**2
                  CONTENTS, ALLOC, LOAD, READONLY, DATA
  4 .rwdata       00001d28  0081281c  00814544  0001381c  2**2
                  CONTENTS, ALLOC, LOAD, DATA, SMALL_DATA
  5 .bss          00000308  0081626c  0081626c  0001626c  2**2
                  ALLOC, SMALL_DATA
  6 .comment      00000023  00000000  00000000  00015544  2**0
                  CONTENTS, READONLY
  7 .debug_aranges 000010d8  00000000  00000000  00015568  2**3
                  CONTENTS, READONLY, DEBUGGING
  8 .debug_pubnames 00001f2c  00000000  00000000  00016640  2**0
                  CONTENTS, READONLY, DEBUGGING
  9 .debug_info   000317ed  00000000  00000000  0001856c  2**0
                  CONTENTS, READONLY, DEBUGGING
 10 .debug_abbrev 00009f18  00000000  00000000  00049d59  2**0
                  CONTENTS, READONLY, DEBUGGING
 11 .debug_line   0001a279  00000000  00000000  00053c71  2**0
                  CONTENTS, READONLY, DEBUGGING
 12 .debug_frame  000025d0  00000000  00000000  0006deec  2**2
                  CONTENTS, READONLY, DEBUGGING
 13 .debug_str    00002bb6  00000000  00000000  000704bc  2**0
                  CONTENTS, READONLY, DEBUGGING
 14 .debug_loc    000094c9  00000000  00000000  00073072  2**0
                  CONTENTS, READONLY, DEBUGGING
 15 .debug_alt_sim_info 00000060  00000000  00000000  0007c53c  2**2
                  CONTENTS, READONLY, DEBUGGING
 16 .debug_ranges 00000660  00000000  00000000  0007c5a0  2**3
                  CONTENTS, READONLY, DEBUGGING
 17 .thread_model 00000003  00000000  00000000  000810a6  2**0
                  CONTENTS, READONLY
 18 .cpu          00000005  00000000  00000000  000810a9  2**0
                  CONTENTS, READONLY
 19 .simulation_enabled 00000001  00000000  00000000  000810ae  2**0
                  CONTENTS, READONLY
 20 .sysid_hash   00000004  00000000  00000000  000810af  2**0
                  CONTENTS, READONLY
 21 .sysid_base   00000004  00000000  00000000  000810b3  2**0
                  CONTENTS, READONLY
 22 .sysid_time   00000004  00000000  00000000  000810b7  2**0
                  CONTENTS, READONLY
 23 .stderr_dev   00000005  00000000  00000000  000810bb  2**0
                  CONTENTS, READONLY
 24 .stdin_dev    0000000b  00000000  00000000  000810c0  2**0
                  CONTENTS, READONLY
 25 .stdout_dev   0000000b  00000000  00000000  000810cb  2**0
                  CONTENTS, READONLY
 26 .sopc_system_name 0000000b  00000000  00000000  000810d6  2**0
                  CONTENTS, READONLY
 27 .quartus_project_dir 00000020  00000000  00000000  000810e1  2**0
                  CONTENTS, READONLY
 28 .jdi          000040db  00000000  00000000  00081101  2**0
                  CONTENTS, READONLY
 29 .sopcinfo     00095df1  00000000  00000000  000851dc  2**0
                  CONTENTS, READONLY
SYMBOL TABLE:
00800000 l    d  .entry	00000000 .entry
00800020 l    d  .exceptions	00000000 .exceptions
008001b4 l    d  .text	00000000 .text
00811310 l    d  .rodata	00000000 .rodata
0081281c l    d  .rwdata	00000000 .rwdata
0081626c l    d  .bss	00000000 .bss
00000000 l    d  .comment	00000000 .comment
00000000 l    d  .debug_aranges	00000000 .debug_aranges
00000000 l    d  .debug_pubnames	00000000 .debug_pubnames
00000000 l    d  .debug_info	00000000 .debug_info
00000000 l    d  .debug_abbrev	00000000 .debug_abbrev
00000000 l    d  .debug_line	00000000 .debug_line
00000000 l    d  .debug_frame	00000000 .debug_frame
00000000 l    d  .debug_str	00000000 .debug_str
00000000 l    d  .debug_loc	00000000 .debug_loc
00000000 l    d  .debug_alt_sim_info	00000000 .debug_alt_sim_info
00000000 l    d  .debug_ranges	00000000 .debug_ranges
008001fc l       .text	00000000 alt_after_alt_main
00000000 l    df *ABS*	00000000 alt_irq_handler.c
00000000 l    df *ABS*	00000000 LightsFunctions.c
00811310 l     O .rodata	00000014 C.2.2856
00811324 l     O .rodata	00000014 C.1.2855
00000000 l    df *ABS*	00000000 Project.c
00000000 l    df *ABS*	00000000 VideoFunctions.c
00000000 l    df *ABS*	00000000 sf_cos.c
00000000 l    df *ABS*	00000000 sf_floor.c
00000000 l    df *ABS*	00000000 sf_round.c
00000000 l    df *ABS*	00000000 sf_sin.c
00000000 l    df *ABS*	00000000 ef_rem_pio2.c
0081189c l     O .rodata	00000318 two_over_pi
0081181c l     O .rodata	00000080 npio2_hw
00000000 l    df *ABS*	00000000 kf_cos.c
00000000 l    df *ABS*	00000000 kf_rem_pio2.c
00811bb4 l     O .rodata	0000000c init_jk
00811bc0 l     O .rodata	0000002c PIo2
00000000 l    df *ABS*	00000000 kf_sin.c
00000000 l    df *ABS*	00000000 sf_fabs.c
00000000 l    df *ABS*	00000000 sf_scalbn.c
00000000 l    df *ABS*	00000000 sf_copysign.c
00000000 l    df *ABS*	00000000 fp-bit.c
008031b8 l     F .text	000001e4 _fpadd_parts
00000000 l    df *ABS*	00000000 fp-bit.c
00000000 l    df *ABS*	00000000 fp-bit.c
00000000 l    df *ABS*	00000000 fp-bit.c
00000000 l    df *ABS*	00000000 fp-bit.c
00000000 l    df *ABS*	00000000 fp-bit.c
00000000 l    df *ABS*	00000000 fp-bit.c
00000000 l    df *ABS*	00000000 fp-bit.c
00000000 l    df *ABS*	00000000 fp-bit.c
00000000 l    df *ABS*	00000000 fp-bit.c
00000000 l    df *ABS*	00000000 lib2-divmod.c
008039d4 l     F .text	0000007c udivmodsi4
00000000 l    df *ABS*	00000000 libgcc2.c
00000000 l    df *ABS*	00000000 libgcc2.c
00000000 l    df *ABS*	00000000 fp-bit.c
00000000 l    df *ABS*	00000000 fp-bit.c
00000000 l    df *ABS*	00000000 fp-bit.c
00000000 l    df *ABS*	00000000 libgcc2.c
00000000 l    df *ABS*	00000000 fopen.c
00000000 l    df *ABS*	00000000 fread.c
00000000 l    df *ABS*	00000000 mallocr.c
00000000 l    df *ABS*	00000000 fseek.c
00000000 l    df *ABS*	00000000 fstatr.c
00000000 l    df *ABS*	00000000 fwrite.c
00000000 l    df *ABS*	00000000 impure.c
00812828 l     O .rwdata	00000400 impure_data
00000000 l    df *ABS*	00000000 int_errno.c
00000000 l    df *ABS*	00000000 makebuf.c
00000000 l    df *ABS*	00000000 malloc.c
00000000 l    df *ABS*	00000000 mallocr.c
00000000 l    df *ABS*	00000000 memcpy.c
00000000 l    df *ABS*	00000000 memset.c
00000000 l    df *ABS*	00000000 openr.c
00000000 l    df *ABS*	00000000 perror.c
00000000 l    df *ABS*	00000000 puts.c
00000000 l    df *ABS*	00000000 rand.c
00000000 l    df *ABS*	00000000 refill.c
00805a7c l     F .text	0000001c lflush
00000000 l    df *ABS*	00000000 sbrkr.c
00000000 l    df *ABS*	00000000 stdio.c
00000000 l    df *ABS*	00000000 strerror.c
00000000 l    df *ABS*	00000000 strlen.c
00000000 l    df *ABS*	00000000 time.c
00000000 l    df *ABS*	00000000 u_strerr.c
00000000 l    df *ABS*	00000000 writer.c
00000000 l    df *ABS*	00000000 closer.c
00000000 l    df *ABS*	00000000 fflush.c
00000000 l    df *ABS*	00000000 findfp.c
008066b8 l     F .text	00000058 std
008067c4 l     F .text	00000008 __fp_lock
008067cc l     F .text	00000008 __fp_unlock
00000000 l    df *ABS*	00000000 flags.c
00000000 l    df *ABS*	00000000 fputc.c
00000000 l    df *ABS*	00000000 fputs.c
00000000 l    df *ABS*	00000000 fvwrite.c
00000000 l    df *ABS*	00000000 fwalk.c
00000000 l    df *ABS*	00000000 gettimeofdayr.c
00000000 l    df *ABS*	00000000 isattyr.c
00000000 l    df *ABS*	00000000 lseekr.c
00000000 l    df *ABS*	00000000 memchr.c
00000000 l    df *ABS*	00000000 memmove.c
00000000 l    df *ABS*	00000000 putc.c
00000000 l    df *ABS*	00000000 readr.c
00000000 l    df *ABS*	00000000 mallocr.c
00000000 l    df *ABS*	00000000 wbuf.c
00000000 l    df *ABS*	00000000 wsetup.c
00000000 l    df *ABS*	00000000 fclose.c
00000000 l    df *ABS*	00000000 alt_close.c
008081a0 l     F .text	00000060 alt_get_errno
00000000 l    df *ABS*	00000000 alt_dev.c
00808200 l     F .text	0000002c alt_dev_null_write
00000000 l    df *ABS*	00000000 alt_errno.c
00000000 l    df *ABS*	00000000 alt_fstat.c
00808300 l     F .text	00000060 alt_get_errno
00000000 l    df *ABS*	00000000 alt_gettod.c
00000000 l    df *ABS*	00000000 alt_isatty.c
0080863c l     F .text	00000060 alt_get_errno
00000000 l    df *ABS*	00000000 alt_load.c
0080871c l     F .text	0000006c alt_load_section
00000000 l    df *ABS*	00000000 alt_lseek.c
00808878 l     F .text	00000060 alt_get_errno
00000000 l    df *ABS*	00000000 alt_main.c
00000000 l    df *ABS*	00000000 alt_malloc_lock.c
00000000 l    df *ABS*	00000000 alt_open.c
00808984 l     F .text	000000dc alt_file_locked
00808be8 l     F .text	00000060 alt_get_errno
00000000 l    df *ABS*	00000000 alt_read.c
00808d68 l     F .text	00000060 alt_get_errno
00000000 l    df *ABS*	00000000 alt_release_fd.c
00000000 l    df *ABS*	00000000 alt_sbrk.c
00814524 l     O .rwdata	00000004 heap_end
00000000 l    df *ABS*	00000000 alt_tick.c
00000000 l    df *ABS*	00000000 alt_write.c
008091a8 l     F .text	00000060 alt_get_errno
00000000 l    df *ABS*	00000000 alt_sys_init.c
008131d8 l     O .rwdata	000000d8 cfi_flash_0
008132b0 l     O .rwdata	00001060 jtag_uart_0
00814310 l     O .rwdata	00000120 lcd_0
00814430 l     O .rwdata	00000030 altera_ro_zipfs
00814460 l     O .rwdata	00000048 video_character_buffer_with_dma_0
008144a8 l     O .rwdata	00000054 video_pixel_buffer_dma_0
00809578 l     F .text	00000038 alt_dev_reg
00000000 l    df *ABS*	00000000 altera_avalon_cfi_flash.c
0080964c l     F .text	00000038 alt_flash_device_register
00000000 l    df *ABS*	00000000 altera_avalon_cfi_flash_table.c
0080a43c l     F .text	0000007c alt_read_16bit_query_entry
00000000 l    df *ABS*	00000000 altera_avalon_jtag_uart_fd.c
00000000 l    df *ABS*	00000000 altera_avalon_jtag_uart_init.c
0080b4c8 l     F .text	00000228 altera_avalon_jtag_uart_irq
0080b6f0 l     F .text	000000b0 altera_avalon_jtag_uart_timeout
00000000 l    df *ABS*	00000000 altera_avalon_jtag_uart_ioctl.c
00000000 l    df *ABS*	00000000 altera_avalon_jtag_uart_read.c
00000000 l    df *ABS*	00000000 altera_avalon_jtag_uart_write.c
00000000 l    df *ABS*	00000000 altera_avalon_lcd_16207.c
00814530 l     O .rwdata	00000004 colstart
0080bd6c l     F .text	000000b8 lcd_write_command
0080be24 l     F .text	000000d4 lcd_write_data
0080bef8 l     F .text	000000c4 lcd_clear_screen
0080bfbc l     F .text	000001ec lcd_repaint_screen
0080c1a8 l     F .text	000000c8 lcd_scroll_up
0080c270 l     F .text	000002d0 lcd_handle_escape
0080ca4c l     F .text	000000cc alt_lcd_16207_timeout
00000000 l    df *ABS*	00000000 altera_avalon_lcd_16207_fd.c
00000000 l    df *ABS*	00000000 altera_ro_zipfs.c
0080ccac l     F .text	00000074 read_word
0080cd20 l     F .text	00000050 read_word_inc
0080cd70 l     F .text	00000048 read_half_word
0080cdb8 l     F .text	00000050 read_half_word_inc
0080ce08 l     F .text	00000118 check_file_header
0080d04c l     F .text	000000a0 check_directory_table
0080d0ec l     F .text	000000ac find_directory_entry
0080d198 l     F .text	00000160 find_file_entry_by_name
0080d2f8 l     F .text	00000180 find_file_entry
00000000 l    df *ABS*	00000000 altera_up_avalon_video_character_buffer_with_dma.c
00000000 l    df *ABS*	00000000 altera_up_avalon_video_pixel_buffer_dma.c
00000000 l    df *ABS*	00000000 alt_alarm_start.c
00000000 l    df *ABS*	00000000 alt_dcache_flush.c
00000000 l    df *ABS*	00000000 alt_dcache_flush_all.c
00000000 l    df *ABS*	00000000 alt_dev_llist_insert.c
0080f350 l     F .text	00000060 alt_get_errno
00000000 l    df *ABS*	00000000 alt_do_ctors.c
00000000 l    df *ABS*	00000000 alt_do_dtors.c
00000000 l    df *ABS*	00000000 alt_find_dev.c
00000000 l    df *ABS*	00000000 alt_find_file.c
00000000 l    df *ABS*	00000000 alt_flash_dev.c
00000000 l    df *ABS*	00000000 alt_fs_reg.c
00000000 l    df *ABS*	00000000 alt_get_fd.c
00000000 l    df *ABS*	00000000 alt_icache_flush_all.c
00000000 l    df *ABS*	00000000 alt_iic.c
00000000 l    df *ABS*	00000000 alt_iic_isr_register.c
00000000 l    df *ABS*	00000000 alt_io_redirect.c
0080fb40 l     F .text	000000c4 alt_open_fd
00000000 l    df *ABS*	00000000 alt_irq_vars.c
00000000 l    df *ABS*	00000000 alt_usleep.c
00000000 l    df *ABS*	00000000 altera_nios2_irq.c
00000000 l    df *ABS*	00000000 altera_avalon_cfi_flash_amd.c
00810070 l     F .text	000000bc alt_write_word_amd
0080ff4c l     F .text	00000124 alt_wait_for_command_to_complete_amd
00000000 l    df *ABS*	00000000 altera_avalon_cfi_flash_intel.c
00810324 l     F .text	0000018c alt_unlock_block_intel
008104b0 l     F .text	000000dc alt_write_word_intel
00000000 l    df *ABS*	00000000 alt_busy_sleep.c
00000000 l    df *ABS*	00000000 alt_icache_flush.c
00000000 l    df *ABS*	00000000 atexit.c
00000000 l    df *ABS*	00000000 ctype_.c
00812699 l     O .rodata	00000180 _ctype_b
00000000 l    df *ABS*	00000000 exit.c
00000000 l    df *ABS*	00000000 memcmp.c
00000000 l    df *ABS*	00000000 strcmp.c
00000000 l    df *ABS*	00000000 strncmp.c
00000000 l    df *ABS*	00000000 __atexit.c
00000000 l    df *ABS*	00000000 __call_atexit.c
00810b08 l     F .text	00000004 register_fini
00000000 l    df *ABS*	00000000 libgcc2.c
00000000 l    df *ABS*	00000000 alt_exit.c
0081126c l     F .text	00000040 alt_sim_halt
008071f4 g     F .text	00000070 _isatty_r
008088d8 g     F .text	0000006c alt_main
0080e78c g     F .text	000003d0 alt_up_pixel_buffer_dma_draw_vline
00805770 g     F .text	000000a0 _puts_r
00809efc g     F .text	00000048 alt_read_query_entry_32bit
008162e4 g     O .bss	00000100 alt_irq
00801360 g     F .text	000000bc shrinkAndResize
00807264 g     F .text	00000078 _lseek_r
00809684 g     F .text	000002c0 alt_flash_cfi_write
00814544 g       *ABS*	00000000 __flash_rwdata_start
00806978 g     F .text	000000a0 __sflags
00807180 g     F .text	00000074 _gettimeofday_r
00816574 g       *ABS*	00000000 __alt_heap_start
00805b10 g     F .text	00000068 __sseek
00806720 g     F .text	000000a4 __sinit
00807cf8 g     F .text	00000130 __swbuf_r
0080d9b0 g     F .text	00000114 alt_up_char_buffer_string
0080040c g     F .text	00000068 printRandom
00806820 g     F .text	00000068 __sfmoreglue
008003c0 g     F .text	0000004c hexBlankAll
00808964 g     F .text	00000020 __malloc_unlock
0080118c g     F .text	000001d4 scaleImage
00805c54 g     F .text	00000674 strerror
0081281c g     O .rwdata	0000000b sevenSegmentDisplay
0080d8e0 g     F .text	000000d0 alt_up_char_buffer_draw
008009b4 g     F .text	000000c4 getPixelFromArray
008073c0 g     F .text	000000e0 memmove
00806810 g     F .text	00000010 _cleanup
00803940 g     F .text	00000094 __fixsfsi
00800c10 g     F .text	0000003c clearCharBuffer
00816274 g     O .bss	00000004 myFile
0080db60 g     F .text	000001a0 alt_up_pixel_buffer_dma_draw
00000000  w      *UND*	00000000 __errno
00800234 g     F .text	0000010c hexOutputGeneric
0080a088 g     F .text	00000048 alt_write_flash_command_32bit_device_16bit_mode
0080db20 g     F .text	00000040 alt_up_pixel_buffer_dma_open_dev
00800000 g     F .entry	0000001c __reset
00801c00 g     F .text	0000053c __ieee754_rem_pio2f
00800020 g       *ABS*	00000000 __flash_exceptions_start
00804af4 g     F .text	00000074 _fstat_r
00809ba0 g     F .text	000002d8 alt_flash_program_block
00816284 g     O .bss	00000004 errno
008162a8 g     O .bss	00000004 alt_argv
0081c4fc g       *ABS*	00000000 _gp
0080fc7c g     F .text	00000030 usleep
0080339c g     F .text	00000070 __subsf3
0080dd00 g     F .text	00000058 alt_up_pixel_buffer_dma_change_back_buffer_address
0080111c g     F .text	00000070 constantRotation
00813058 g     O .rwdata	00000180 alt_fd_list
0080f478 g     F .text	00000094 alt_find_dev
00805540 g     F .text	000000a0 memcpy
0080dac4 g     F .text	0000005c alt_up_char_buffer_clear
00806804 g     F .text	0000000c _cleanup_r
0080141c g     F .text	000004b4 bilinearInterpolation
0080575c g     F .text	00000014 perror
0080f6fc g     F .text	00000090 alt_fs_reg
0080fc04 g     F .text	00000078 alt_io_redirect
00811310 g       *ABS*	00000000 __DTOR_END__
00805810 g     F .text	00000014 puts
0080d478 g     F .text	00000098 alt_ro_zipfs_open
0080fcac g     F .text	00000020 altera_nios2_irq_init
0080ddb0 g     F .text	00000034 alt_up_pixel_buffer_dma_check_swap_buffers_status
0080b908 g     F .text	00000224 altera_avalon_jtag_uart_read
00804dec g     F .text	00000014 malloc
00800834 g     F .text	0000009c setUpImage
00803b10 g     F .text	00000008 __udivsi3
00801aa4 g     F .text	0000009c roundf
0080857c g     F .text	000000c0 isatty
0080e43c g     F .text	00000350 alt_up_pixel_buffer_dma_draw_hline
00803830 g     F .text	00000078 __lesf2
00816294 g     O .bss	00000008 alt_timezone
00816270 g     O .bss	00000001 circleCounter
008106d8 g     F .text	00000090 alt_icache_flush
00816288 g     O .bss	00000004 __malloc_top_pad
00806b64 g     F .text	0000049c __sfvwrite_r
00805a98 g     F .text	00000070 _sbrk_r
0081012c g     F .text	00000084 alt_program_intel
0080ec20 g     F .text	000000d0 helper_plot_pixel
00803044 g     F .text	00000010 fabsf
0080768c g     F .text	00000078 _read_r
0080f1e0 g     F .text	00000078 alt_dcache_flush
0081451c g     O .rwdata	00000004 alt_max_fd
00809e78 g     F .text	00000040 alt_read_query_entry_8bit
00807f80 g     F .text	00000110 _fclose_r
008101b0 g     F .text	00000174 alt_erase_block_intel
00806684 g     F .text	00000034 fflush
0081628c g     O .bss	00000004 __malloc_max_sbrked_mem
00800a78 g     F .text	000000c4 getPixelFromDestArray
0080dde4 g     F .text	00000164 alt_up_pixel_buffer_dma_clear_screen
00810cbc g     F .text	000005b0 __umoddi3
00808788 g     F .text	000000f0 lseek
00814500 g     O .rwdata	00000004 _global_impure_ptr
00800520 g     F .text	0000009c segmentCounter
00807704 g     F .text	000005f4 _realloc_r
00802e88 g     F .text	000001bc __kernel_sinf
00816574 g       *ABS*	00000000 __bss_end
0080fa48 g     F .text	000000f8 alt_iic_isr_register
0080df48 g     F .text	000004f4 alt_up_pixel_buffer_dma_draw_box
00808f7c g     F .text	0000010c alt_tick
00816278 g     O .bss	00000004 destImage
00814540 g     O .rwdata	00000004 __ctype_ptr
008067ec g     F .text	00000018 __fp_lock_all
0080fa00 g     F .text	00000048 alt_ic_irq_enabled
00808ee4 g     F .text	00000098 alt_alarm_stop
008018d0 g     F .text	000000c0 cosf
008162b8 g     O .bss	00000004 alt_irq_active
0081627c g     O .bss	00000004 myImage
0080d60c g     F .text	00000148 alt_ro_zipfs_seek
008000ec g     F .exceptions	000000c8 alt_irq_handler
00813030 g     O .rwdata	00000028 alt_dev_null
00803d98 g     F .text	000000c8 __unpack_f
0080a390 g     F .text	000000ac alt_set_flash_algorithm_func
0080f258 g     F .text	00000044 alt_dcache_flush_all
0080eb5c g     F .text	000000c4 alt_up_pixel_buffer_dma_draw_rectangle
0080213c g     F .text	000002bc __kernel_cosf
00809f44 g     F .text	0000003c alt_write_flash_command_8bit_device_8bit_mode
00814544 g       *ABS*	00000000 __ram_rwdata_end
00814514 g     O .rwdata	00000008 alt_dev_list
00806a7c g     F .text	00000058 _fputc_r
00809088 g     F .text	00000120 write
008075a4 g     F .text	000000e8 _putc_r
0080ecf0 g     F .text	0000039c alt_up_pixel_buffer_dma_draw_line
008036c8 g     F .text	00000078 __gtsf2
0081281c g       *ABS*	00000000 __ram_rodata_end
0080822c g     F .text	000000d4 fstat
0080b1e4 g     F .text	000000dc alt_check_primary_table
00803b18 g     F .text	00000008 __umodsi3
008099d4 g     F .text	00000068 alt_flash_cfi_read
0080a118 g     F .text	00000034 alt_write_native_8bit
00816574 g       *ABS*	00000000 end
00803c38 g     F .text	00000160 __pack_f
00809f80 g     F .text	0000007c alt_write_flash_command_16bit_device_8bit_mode
0080c540 g     F .text	0000050c altera_avalon_lcd_16207_write
0080d81c g     F .text	00000084 alt_up_char_buffer_init
00816280 g     O .bss	00000004 myPixelBuffer
00804ad0 g     F .text	00000024 fseek
0080a4b8 g     F .text	00000580 alt_read_cfi_table
0080b408 g     F .text	000000c0 altera_avalon_jtag_uart_init
0081130c g       *ABS*	00000000 __CTOR_LIST__
01000000 g       *ABS*	00000000 __alt_stack_pointer
00803bb8 g     F .text	00000080 __clzsi2
0080bb2c g     F .text	00000240 altera_avalon_jtag_uart_write
008095b0 g     F .text	0000009c alt_flash_cfi_init
00806710 g     F .text	00000004 __sfp_lock_acquire
008072dc g     F .text	000000e4 memchr
01400000 g       *ABS*	00000000 __alt_mem_cfi_flash_0
00804380 g     F .text	00000314 _free_r
00800c4c g     F .text	00000074 printCharToScreen
00810b0c g     F .text	000001b0 __call_exitprocs
00814508 g     O .rwdata	00000004 __malloc_sbrk_base
008001b4 g     F .text	0000004c _start
008162b0 g     O .bss	00000004 _alt_tick_rate
00806398 g     F .text	00000008 _user_strerror
00805840 g     F .text	00000078 rand
008162b4 g     O .bss	00000004 _alt_nticks
00808c48 g     F .text	00000120 read
00800d2c g     F .text	0000007c displayImage
0080923c g     F .text	0000033c alt_sys_init
008038a8 g     F .text	00000098 __floatsisf
00805678 g     F .text	00000078 _open_r
008109d4 g     F .text	00000134 __register_exitproc
008108e4 g     F .text	000000f0 strncmp
00809eb8 g     F .text	00000044 alt_read_query_entry_16bit
0080b7a0 g     F .text	00000074 altera_avalon_jtag_uart_close
0081281c g       *ABS*	00000000 __ram_rwdata_start
00811310 g       *ABS*	00000000 __ram_rodata_start
008162bc g     O .bss	00000028 __malloc_current_mallinfo
00803650 g     F .text	00000078 __eqsf2
0080a1b0 g     F .text	000001e0 alt_set_flash_width_func
008008d0 g     F .text	000000e4 drawPixelFromArray
0080b2c0 g     F .text	00000058 altera_avalon_jtag_uart_read_fd
0080f78c g     F .text	000000b8 alt_get_fd
0081058c g     F .text	0000014c alt_busy_sleep
00806418 g     F .text	00000070 _close_r
0080fd34 g     F .text	00000218 alt_erase_block_amd
008107b4 g     F .text	00000074 memcmp
0080b370 g     F .text	00000048 altera_avalon_jtag_uart_close_fd
00816574 g       *ABS*	00000000 __alt_stack_base
0080b3b8 g     F .text	00000050 altera_avalon_jtag_uart_ioctl_fd
00804b68 g     F .text	0000009c _fwrite_r
00807e44 g     F .text	0000013c __swsetup_r
0080aa38 g     F .text	000007ac alt_read_cfi_width
00800cc0 g     F .text	0000006c printLineToScreen
00806888 g     F .text	000000f0 __sfp
00812c28 g     O .rwdata	00000408 __malloc_av_
0080671c g     F .text	00000004 __sinit_lock_release
00805bf4 g     F .text	00000060 __sread
00811bec g     O .rodata	00000010 __thenan_sf
00804214 g     F .text	00000040 fread
0080f50c g     F .text	00000120 alt_find_file
0080f29c g     F .text	000000b4 alt_dev_llist_insert
00808944 g     F .text	00000020 __malloc_lock
00808e28 g     F .text	000000bc sbrk
00803054 g     F .text	0000014c scalbnf
00806488 g     F .text	000001fc _fflush_r
00814534 g     O .rwdata	00000008 alt_flash_dev_list
0080a044 g     F .text	00000044 alt_write_flash_command_16bit_device_16bit_mode
00808360 g     F .text	0000021c gettimeofday
00803ffc g     F .text	0000001c fopen
0081626c g       *ABS*	00000000 __bss_start
008055e0 g     F .text	00000098 memset
008005bc g     F .text	00000278 main
008162ac g     O .bss	00000004 alt_envp
00816290 g     O .bss	00000004 __malloc_max_total_mem
0080dd58 g     F .text	00000058 alt_up_pixel_buffer_dma_swap_buffers
0080d8a0 g     F .text	00000040 alt_up_char_buffer_open_dev
0080b318 g     F .text	00000058 altera_avalon_jtag_uart_write_fd
00807e28 g     F .text	0000001c __swbuf
00805824 g     F .text	0000001c srand
008037b8 g     F .text	00000078 __ltsf2
00804018 g     F .text	000001fc _fread_r
0080cb18 g     F .text	0000013c altera_avalon_lcd_16207_init
00805b08 g     F .text	00000008 __sclose
01000000 g       *ABS*	00000000 __alt_heap_limit
00808090 g     F .text	00000014 fclose
008163e4 g     O .bss	00000190 _atexit0
00804e00 g     F .text	00000740 _malloc_r
0080633c g     F .text	0000005c time
00814520 g     O .rwdata	00000004 alt_errno
0080a0d0 g     F .text	00000048 alt_write_flash_command_32bit_device_32bit_mode
008070c8 g     F .text	000000b8 _fwalk
00809a3c g     F .text	00000164 alt_write_value_to_flash
0080a14c g     F .text	00000034 alt_write_native_16bit
008074a0 g     F .text	00000104 putc
00803a50 g     F .text	00000060 __divsi3
0080d510 g     F .text	000000fc alt_ro_zipfs_read
00804254 g     F .text	0000012c _malloc_trim_r
00811310 g       *ABS*	00000000 __CTOR_END__
00803470 g     F .text	000001e0 __mulsf3
0080d7c4 g     F .text	00000058 alt_ro_zipfs_check_valid
00810828 g     F .text	000000bc strcmp
00811310 g       *ABS*	00000000 __flash_rodata_start
00811310 g       *ABS*	00000000 __DTOR_LIST__
0080d754 g     F .text	00000070 alt_ro_zipfs_fstat
01880000 g       *ABS*	00000000 __alt_mem_sram_0
00809208 g     F .text	00000034 alt_irq_init
00808dc8 g     F .text	00000060 alt_release_fd
008031a0 g     F .text	00000018 copysignf
00811bfc g     O .rodata	00000100 __clz_tab
00810768 g     F .text	00000014 atexit
00803740 g     F .text	00000078 __gesf2
008063a0 g     F .text	00000078 _write_r
0080038c g     F .text	00000034 hexOutputBlank
008144fc g     O .rwdata	00000004 _impure_ptr
008162a4 g     O .bss	00000004 alt_argc
0080f414 g     F .text	00000064 _do_dtors
00804694 g     F .text	0000043c _fseek_r
008058b8 g     F .text	000001c4 __srefill_r
00800000 g       *ABS*	00000000 __alt_mem_sdram_0
00800020 g       .exceptions	00000000 alt_irq_entry
008067d4 g     F .text	00000018 __fp_unlock_all
0080cc54 g     F .text	00000058 altera_avalon_lcd_16207_write_fd
00806a18 g     F .text	00000064 fputc
0081450c g     O .rwdata	00000008 alt_fs_list
00800da8 g     F .text	00000374 rotateImage
00801b40 g     F .text	000000c0 sinf
00809ffc g     F .text	00000048 alt_write_flash_command_32bit_device_8bit_mode
00800b9c g     F .text	00000044 drawPixel
0081629c g     O .bss	00000008 alt_resettime
00800020 g       *ABS*	00000000 __ram_exceptions_start
00800340 g     F .text	0000004c hexOutputNumber
0080f874 g     F .text	00000050 alt_ic_isr_register
00804c04 g     F .text	00000040 fwrite
00800200 g     F .text	00000034 setUp
00814544 g       *ABS*	00000000 _edata
00816574 g       *ABS*	00000000 _end
0080f62c g     F .text	0000007c alt_flash_open_dev
008001b4 g       *ABS*	00000000 __ram_exceptions_end
0080b814 g     F .text	000000f4 altera_avalon_jtag_uart_ioctl
00806ad4 g     F .text	00000074 _fputs_r
0080f960 g     F .text	000000a0 alt_ic_irq_disable
00805b78 g     F .text	0000007c __swrite
00814504 g     O .rwdata	00000004 __malloc_trim_threshold
008056f0 g     F .text	0000006c _perror_r
0081077c g     F .text	00000038 exit
00807000 g     F .text	000000c8 _fwalk_reent
0080f6a8 g     F .text	00000054 alt_flash_close_dev
00803ab0 g     F .text	00000060 __modsi3
00800b3c g     F .text	00000060 getColorFromArray
01000000 g       *ABS*	00000000 __alt_data_end
00800020 g     F .exceptions	00000000 alt_exception
00806714 g     F .text	00000004 __sfp_lock_release
00812598 g     O .rodata	00000101 _ctype_
00803e60 g     F .text	000000a8 __fpcmp_parts_f
00803f08 g     F .text	000000f4 _fopen_r
008112ac g     F .text	00000020 _exit
008023f8 g     F .text	00000a90 __kernel_rem_pio2f
0080f08c g     F .text	00000154 alt_alarm_start
00803b20 g     F .text	00000098 __muldi3
00804c44 g     F .text	00000194 __smakebuf_r
0080a180 g     F .text	00000030 alt_write_native_32bit
008062c8 g     F .text	00000074 strlen
00808a60 g     F .text	00000188 open
00800be0 g     F .text	00000030 clearScreen
00809944 g     F .text	00000090 alt_flash_cfi_get_info
0080f844 g     F .text	00000030 alt_icache_flush_all
00801990 g     F .text	00000114 floorf
00806b48 g     F .text	0000001c fputs
0081453c g     O .rwdata	00000004 alt_priority_mask
0080f8c4 g     F .text	0000009c alt_ic_irq_enable
0081626c g     O .bss	00000004 currentSegCount
00814528 g     O .rwdata	00000008 alt_alarm_list
0080f3b0 g     F .text	00000064 _do_ctors
008080a4 g     F .text	000000fc close
0080340c g     F .text	00000064 __addsf3
0080fccc g     F .text	00000068 alt_program_amd
0080869c g     F .text	00000080 alt_load
00800474 g     F .text	000000ac segmentCircle
00804dd8 g     F .text	00000014 free
00806718 g     F .text	00000004 __sinit_lock_acquire
0080cf20 g     F .text	0000012c check_directory_header



Disassembly of section .entry:

00800000 <__reset>:
#if NIOS2_ICACHE_SIZE > 0 && defined(ALT_ALLOW_CODE_AT_RESET) && !defined(ALT_SIM_OPTIMIZE)
    /* Assume the instruction cache size is always a power of two. */
#if NIOS2_ICACHE_SIZE > 0x8000
    movhi r2, %hi(NIOS2_ICACHE_SIZE)
#else
    movui r2, NIOS2_ICACHE_SIZE
  800000:	00840014 	movui	r2,4096
#endif

0:
    initi r2
  800004:	1001483a 	initi	r2
    addi r2, r2, -NIOS2_ICACHE_LINE_SIZE
  800008:	10bff804 	addi	r2,r2,-32
    bgt r2, zero, 0b
  80000c:	00bffd16 	blt	zero,r2,800004 <__reset+0x4>
 * Jump to the _start entry point in the .text section if reset code
 * is allowed or if optimizing for RTL simulation.
 */
#if defined(ALT_ALLOW_CODE_AT_RESET) || defined(ALT_SIM_OPTIMIZE)
    /* Jump to the _start entry point in the .text section. */
    movhi r1, %hi(_start)
  800010:	00402034 	movhi	at,128
    ori r1, r1, %lo(_start)
  800014:	08406d14 	ori	at,at,436
    jmp r1
  800018:	0800683a 	jmp	at
  80001c:	00000000 	call	0 <__alt_mem_sdram_0-0x800000>

Disassembly of section .exceptions:

00800020 <alt_exception>:
         * Process an exception.  For all exceptions we must preserve all
         * caller saved registers on the stack (See the Nios2 ABI
         * documentation for details).
         */

        addi  sp, sp, -76
  800020:	deffed04 	addi	sp,sp,-76

#endif

#endif

        stw   ra,  0(sp)
  800024:	dfc00015 	stw	ra,0(sp)
        /*
         * Leave a gap in the stack frame at 4(sp) for the muldiv handler to
         * store zero into.
         */

        stw   r1,   8(sp)
  800028:	d8400215 	stw	at,8(sp)
        stw   r2,  12(sp)
  80002c:	d8800315 	stw	r2,12(sp)
        stw   r3,  16(sp)
  800030:	d8c00415 	stw	r3,16(sp)
        stw   r4,  20(sp)
  800034:	d9000515 	stw	r4,20(sp)
        stw   r5,  24(sp)
  800038:	d9400615 	stw	r5,24(sp)
        stw   r6,  28(sp)
  80003c:	d9800715 	stw	r6,28(sp)
        stw   r7,  32(sp)
  800040:	d9c00815 	stw	r7,32(sp)

        rdctl r5, estatus
  800044:	000b307a 	rdctl	r5,estatus

        stw   r8,  36(sp)
  800048:	da000915 	stw	r8,36(sp)
        stw   r9,  40(sp)
  80004c:	da400a15 	stw	r9,40(sp)
        stw   r10, 44(sp)
  800050:	da800b15 	stw	r10,44(sp)
        stw   r11, 48(sp)
  800054:	dac00c15 	stw	r11,48(sp)
        stw   r12, 52(sp)
  800058:	db000d15 	stw	r12,52(sp)
        stw   r13, 56(sp)
  80005c:	db400e15 	stw	r13,56(sp)
        stw   r14, 60(sp)
  800060:	db800f15 	stw	r14,60(sp)
        stw   r15, 64(sp)
  800064:	dbc01015 	stw	r15,64(sp)
        /*
         * ea-4 contains the address of the instruction being executed
         * when the exception occured. For interrupt exceptions, we will
         * will be re-issue the isntruction. Store it in 72(sp)
         */
        stw   r5,  68(sp)  /* estatus */
  800068:	d9401115 	stw	r5,68(sp)
        addi  r15, ea, -4  /* instruction that caused exception */
  80006c:	ebffff04 	addi	r15,ea,-4
        stw   r15,  72(sp)
  800070:	dbc01215 	stw	r15,72(sp)
#else
        /*
         * Test to see if the exception was a software exception or caused 
         * by an external interrupt, and vector accordingly.
         */
        rdctl r4, ipending
  800074:	0009313a 	rdctl	r4,ipending
        andi  r2, r5, 1
  800078:	2880004c 	andi	r2,r5,1
        beq   r2, zero, .Lnot_irq
  80007c:	10000326 	beq	r2,zero,80008c <alt_exception+0x6c>
        beq   r4, zero, .Lnot_irq
  800080:	20000226 	beq	r4,zero,80008c <alt_exception+0x6c>
        /*
         * Now that all necessary registers have been preserved, call 
         * alt_irq_handler() to process the interrupts.
         */

        call alt_irq_handler
  800084:	08000ec0 	call	8000ec <alt_irq_handler>

        .section .exceptions.irqreturn, "xa"

        br    .Lexception_exit
  800088:	00000306 	br	800098 <alt_exception+0x78>
         * upon completion, so we write ea (address of instruction *after*
         * the one where the exception occured) into 72(sp). The actual
         * instruction that caused the exception is written in r2, which these
         * handlers will utilize.
         */
        stw   ea,  72(sp)  /* Don't re-issue */
  80008c:	df401215 	stw	ea,72(sp)
        ldw   r2, -4(ea)   /* Instruction that caused exception */
  800090:	e8bfff17 	ldw	r2,-4(ea)
#ifdef NIOS2_HAS_DEBUG_STUB
       /*
        *  Either tell the user now (if there is a debugger attached) or go into
        *  the debug monitor which will loop until a debugger is attached.
        */
        break
  800094:	003da03a 	break	0
        /* 
         * Restore the saved registers, so that all general purpose registers 
         * have been restored to their state at the time the interrupt occured.
         */

        ldw   r5,  68(sp)
  800098:	d9401117 	ldw	r5,68(sp)
        ldw   ea,  72(sp)  /* This becomes the PC once eret is executed */
  80009c:	df401217 	ldw	ea,72(sp)
        ldw   ra,   0(sp)
  8000a0:	dfc00017 	ldw	ra,0(sp)

        wrctl estatus, r5
  8000a4:	2801707a 	wrctl	estatus,r5

        ldw   r1,   8(sp)
  8000a8:	d8400217 	ldw	at,8(sp)
        ldw   r2,  12(sp)
  8000ac:	d8800317 	ldw	r2,12(sp)
        ldw   r3,  16(sp)
  8000b0:	d8c00417 	ldw	r3,16(sp)
        ldw   r4,  20(sp)
  8000b4:	d9000517 	ldw	r4,20(sp)
        ldw   r5,  24(sp)
  8000b8:	d9400617 	ldw	r5,24(sp)
        ldw   r6,  28(sp)
  8000bc:	d9800717 	ldw	r6,28(sp)
        ldw   r7,  32(sp)
  8000c0:	d9c00817 	ldw	r7,32(sp)
#ifdef ALT_STACK_CHECK
        ldw   et, %gprel(alt_exception_old_stack_limit)(gp)
#endif
#endif

        ldw   r8,  36(sp)
  8000c4:	da000917 	ldw	r8,36(sp)
        ldw   r9,  40(sp)
  8000c8:	da400a17 	ldw	r9,40(sp)
        ldw   r10, 44(sp)
  8000cc:	da800b17 	ldw	r10,44(sp)
        ldw   r11, 48(sp)
  8000d0:	dac00c17 	ldw	r11,48(sp)
        ldw   r12, 52(sp)
  8000d4:	db000d17 	ldw	r12,52(sp)
        ldw   r13, 56(sp)
  8000d8:	db400e17 	ldw	r13,56(sp)
        ldw   r14, 60(sp)
  8000dc:	db800f17 	ldw	r14,60(sp)
        ldw   r15, 64(sp)
  8000e0:	dbc01017 	ldw	r15,64(sp)
#endif

        ldw   sp,  76(sp)

#else
        addi  sp, sp, 76
  8000e4:	dec01304 	addi	sp,sp,76

        /*
         * Return to the interrupted instruction.
         */

        eret
  8000e8:	ef80083a 	eret

008000ec <alt_irq_handler>:
 * instruction is present if the macro ALT_CI_INTERRUPT_VECTOR defined.
 */

void alt_irq_handler (void) __attribute__ ((section (".exceptions")));
void alt_irq_handler (void)
{
  8000ec:	defff904 	addi	sp,sp,-28
  8000f0:	dfc00615 	stw	ra,24(sp)
  8000f4:	df000515 	stw	fp,20(sp)
  8000f8:	df000504 	addi	fp,sp,20
#ifndef NIOS2_EIC_PRESENT
static ALT_INLINE alt_u32 ALT_ALWAYS_INLINE alt_irq_pending (void)
{
  alt_u32 active;

  NIOS2_READ_IPENDING (active);
  8000fc:	0005313a 	rdctl	r2,ipending
  800100:	e0bffc15 	stw	r2,-16(fp)

  return active;
  800104:	e0bffc17 	ldw	r2,-16(fp)
   * Consider the case where the high priority interupt is asserted during
   * the interrupt entry sequence for a lower priority interrupt to see why
   * this is the case.
   */

  active = alt_irq_pending ();
  800108:	e0bfff15 	stw	r2,-4(fp)

  do
  {
    i = 0;
  80010c:	e03ffd15 	stw	zero,-12(fp)
    mask = 1;
  800110:	00800044 	movi	r2,1
  800114:	e0bffe15 	stw	r2,-8(fp)
     * called to clear the interrupt condition.
     */

    do
    {
      if (active & mask)
  800118:	e0ffff17 	ldw	r3,-4(fp)
  80011c:	e0bffe17 	ldw	r2,-8(fp)
  800120:	1884703a 	and	r2,r3,r2
  800124:	1005003a 	cmpeq	r2,r2,zero
  800128:	1000161e 	bne	r2,zero,800184 <alt_irq_handler+0x98>
      { 
#ifdef ALT_ENHANCED_INTERRUPT_API_PRESENT
        alt_irq[i].handler(alt_irq[i].context); 
  80012c:	e0bffd17 	ldw	r2,-12(fp)
  800130:	00c02074 	movhi	r3,129
  800134:	18d8b904 	addi	r3,r3,25316
  800138:	100490fa 	slli	r2,r2,3
  80013c:	10c5883a 	add	r2,r2,r3
  800140:	11400017 	ldw	r5,0(r2)
  800144:	e0bffd17 	ldw	r2,-12(fp)
  800148:	00c02074 	movhi	r3,129
  80014c:	18d8b904 	addi	r3,r3,25316
  800150:	100490fa 	slli	r2,r2,3
  800154:	10c5883a 	add	r2,r2,r3
  800158:	10800104 	addi	r2,r2,4
  80015c:	11000017 	ldw	r4,0(r2)
  800160:	283ee83a 	callr	r5
#ifndef NIOS2_EIC_PRESENT
static ALT_INLINE alt_u32 ALT_ALWAYS_INLINE alt_irq_pending (void)
{
  alt_u32 active;

  NIOS2_READ_IPENDING (active);
  800164:	0005313a 	rdctl	r2,ipending
  800168:	e0bffb15 	stw	r2,-20(fp)

  return active;
  80016c:	e0bffb17 	ldw	r2,-20(fp)
      mask <<= 1;
      i++;

    } while (1);

    active = alt_irq_pending ();
  800170:	e0bfff15 	stw	r2,-4(fp)
    
  } while (active);
  800174:	e0bfff17 	ldw	r2,-4(fp)
  800178:	1004c03a 	cmpne	r2,r2,zero
  80017c:	103fe31e 	bne	r2,zero,80010c <alt_irq_handler+0x20>
  800180:	00000706 	br	8001a0 <alt_irq_handler+0xb4>
#else
        alt_irq[i].handler(alt_irq[i].context, i); 
#endif
        break;
      }
      mask <<= 1;
  800184:	e0bffe17 	ldw	r2,-8(fp)
  800188:	1085883a 	add	r2,r2,r2
  80018c:	e0bffe15 	stw	r2,-8(fp)
      i++;
  800190:	e0bffd17 	ldw	r2,-12(fp)
  800194:	10800044 	addi	r2,r2,1
  800198:	e0bffd15 	stw	r2,-12(fp)

    } while (1);
  80019c:	003fde06 	br	800118 <alt_irq_handler+0x2c>
  /*
   * Notify the operating system that interrupt processing is complete.
   */ 

  ALT_OS_INT_EXIT();
}
  8001a0:	e037883a 	mov	sp,fp
  8001a4:	dfc00117 	ldw	ra,4(sp)
  8001a8:	df000017 	ldw	fp,0(sp)
  8001ac:	dec00204 	addi	sp,sp,8
  8001b0:	f800283a 	ret

Disassembly of section .text:

008001b4 <_start>:

    /* Assume the data cache size is always a power of two. */
#if NIOS2_DCACHE_SIZE > 0x8000
    movhi r2, %hi(NIOS2_DCACHE_SIZE)
#else
    movui r2, NIOS2_DCACHE_SIZE
  8001b4:	00820014 	movui	r2,2048
#endif

0:
    initd 0(r2)
  8001b8:	10000033 	initd	0(r2)
    addi r2, r2, -NIOS2_DCACHE_LINE_SIZE
  8001bc:	10bff804 	addi	r2,r2,-32
    bgt r2, zero, 0b
  8001c0:	00bffd16 	blt	zero,r2,8001b8 <_start+0x4>
#if (NIOS2_NUM_OF_SHADOW_REG_SETS == 0)    
    /*
     * Now that the caches are initialized, set up the stack pointer.
     * The value provided by the linker is assumed to be correctly aligned.
     */
    movhi sp, %hi(__alt_stack_pointer)
  8001c4:	06c04034 	movhi	sp,256
    ori sp, sp, %lo(__alt_stack_pointer)
  8001c8:	dec00014 	ori	sp,sp,0

    /* Set up the global pointer. */
    movhi gp, %hi(_gp)
  8001cc:	06802074 	movhi	gp,129
    ori gp, gp, %lo(_gp)
  8001d0:	d6b13f14 	ori	gp,gp,50428
 */
#ifndef ALT_SIM_OPTIMIZE
    /* Log that the BSS is about to be cleared. */
    ALT_LOG_PUTS(alt_log_msg_bss)

    movhi r2, %hi(__bss_start)
  8001d4:	00802074 	movhi	r2,129
    ori r2, r2, %lo(__bss_start)
  8001d8:	10989b14 	ori	r2,r2,25196

    movhi r3, %hi(__bss_end)
  8001dc:	00c02074 	movhi	r3,129
    ori r3, r3, %lo(__bss_end)
  8001e0:	18d95d14 	ori	r3,r3,25972

    beq r2, r3, 1f
  8001e4:	10c00326 	beq	r2,r3,8001f4 <_start+0x40>

0:
    stw zero, (r2)
  8001e8:	10000015 	stw	zero,0(r2)
    addi r2, r2, 4
  8001ec:	10800104 	addi	r2,r2,4
    bltu r2, r3, 0b
  8001f0:	10fffd36 	bltu	r2,r3,8001e8 <_start+0x34>
     * section aren't defined until alt_load() has been called).
     */
    mov   et, zero
#endif

    call alt_load
  8001f4:	080869c0 	call	80869c <alt_load>

    /* Log that alt_main is about to be called. */
    ALT_LOG_PUTS(alt_log_msg_alt_main)

    /* Call the C entry point. It should never return. */
    call alt_main
  8001f8:	08088d80 	call	8088d8 <alt_main>

008001fc <alt_after_alt_main>:

    /* Wait in infinite loop in case alt_main does return. */
alt_after_alt_main:
    br alt_after_alt_main
  8001fc:	003fff06 	br	8001fc <alt_after_alt_main>

00800200 <setUp>:
//array of digits on a seven segment display from 0 to 9
alt_u8 sevenSegmentDisplay[11] = { 64, 121, 36, 48, 25, 18, 2, 120, 0, 16, blank };
alt_u32 currentSegCount = 0;
alt_u8 circleCounter = 0;

void setUp(void) {
  800200:	defffe04 	addi	sp,sp,-8
  800204:	dfc00115 	stw	ra,4(sp)
  800208:	df000015 	stw	fp,0(sp)
  80020c:	d839883a 	mov	fp,sp
	//setting up the seed for the random number generator
	srand(time(NULL));
  800210:	0009883a 	mov	r4,zero
  800214:	080633c0 	call	80633c <time>
  800218:	1009883a 	mov	r4,r2
  80021c:	08058240 	call	805824 <srand>
}
  800220:	e037883a 	mov	sp,fp
  800224:	dfc00117 	ldw	ra,4(sp)
  800228:	df000017 	ldw	fp,0(sp)
  80022c:	dec00204 	addi	sp,sp,8
  800230:	f800283a 	ret

00800234 <hexOutputGeneric>:

void hexOutputGeneric(int location, int value) {
  800234:	defffd04 	addi	sp,sp,-12
  800238:	df000215 	stw	fp,8(sp)
  80023c:	df000204 	addi	fp,sp,8
  800240:	e13ffe15 	stw	r4,-8(fp)
  800244:	e17fff15 	stw	r5,-4(fp)
	switch (location) {
  800248:	e0bffe17 	ldw	r2,-8(fp)
  80024c:	10800228 	cmpgeui	r2,r2,8
  800250:	1000371e 	bne	r2,zero,800330 <hexOutputGeneric+0xfc>
  800254:	e0bffe17 	ldw	r2,-8(fp)
  800258:	1085883a 	add	r2,r2,r2
  80025c:	1087883a 	add	r3,r2,r2
  800260:	00802034 	movhi	r2,128
  800264:	10809d04 	addi	r2,r2,628
  800268:	1885883a 	add	r2,r3,r2
  80026c:	10800017 	ldw	r2,0(r2)
  800270:	1000683a 	jmp	r2
  800274:	00800294 	movui	r2,10
  800278:	008002a8 	cmpgeui	r2,zero,10
  80027c:	008002bc 	xorhi	r2,zero,10
  800280:	008002d0 	cmplti	r2,zero,11
  800284:	008002e4 	muli	r2,zero,11
  800288:	008002f8 	rdprs	r2,zero,11
  80028c:	0080030c 	andi	r2,zero,12
  800290:	00800320 	cmpeqi	r2,zero,12
		case 0:
			IOWR_ALTERA_AVALON_PIO_DATA(HEX0_BASE, value);
  800294:	00c06434 	movhi	r3,400
  800298:	18cc0c04 	addi	r3,r3,12336
  80029c:	e0bfff17 	ldw	r2,-4(fp)
  8002a0:	18800035 	stwio	r2,0(r3)
			break;
  8002a4:	00002206 	br	800330 <hexOutputGeneric+0xfc>
		case 1:
			IOWR_ALTERA_AVALON_PIO_DATA(HEX1_BASE, value);
  8002a8:	00c06434 	movhi	r3,400
  8002ac:	18cc2804 	addi	r3,r3,12448
  8002b0:	e0bfff17 	ldw	r2,-4(fp)
  8002b4:	18800035 	stwio	r2,0(r3)
			break;
  8002b8:	00001d06 	br	800330 <hexOutputGeneric+0xfc>
		case 2:
			IOWR_ALTERA_AVALON_PIO_DATA(HEX2_BASE, value);
  8002bc:	00c06434 	movhi	r3,400
  8002c0:	18cc1004 	addi	r3,r3,12352
  8002c4:	e0bfff17 	ldw	r2,-4(fp)
  8002c8:	18800035 	stwio	r2,0(r3)
			break;
  8002cc:	00001806 	br	800330 <hexOutputGeneric+0xfc>
		case 3:
			IOWR_ALTERA_AVALON_PIO_DATA(HEX3_BASE, value);
  8002d0:	00c06434 	movhi	r3,400
  8002d4:	18cc1404 	addi	r3,r3,12368
  8002d8:	e0bfff17 	ldw	r2,-4(fp)
  8002dc:	18800035 	stwio	r2,0(r3)
			break;
  8002e0:	00001306 	br	800330 <hexOutputGeneric+0xfc>
		case 4:
			IOWR_ALTERA_AVALON_PIO_DATA(HEX4_BASE, value);
  8002e4:	00c06434 	movhi	r3,400
  8002e8:	18cc1804 	addi	r3,r3,12384
  8002ec:	e0bfff17 	ldw	r2,-4(fp)
  8002f0:	18800035 	stwio	r2,0(r3)
			break;
  8002f4:	00000e06 	br	800330 <hexOutputGeneric+0xfc>
		case 5:
			IOWR_ALTERA_AVALON_PIO_DATA(HEX5_BASE, value);
  8002f8:	00c06434 	movhi	r3,400
  8002fc:	18cc1c04 	addi	r3,r3,12400
  800300:	e0bfff17 	ldw	r2,-4(fp)
  800304:	18800035 	stwio	r2,0(r3)
			break;
  800308:	00000906 	br	800330 <hexOutputGeneric+0xfc>
		case 6:
			IOWR_ALTERA_AVALON_PIO_DATA(HEX6_BASE, value);
  80030c:	00c06434 	movhi	r3,400
  800310:	18cc2004 	addi	r3,r3,12416
  800314:	e0bfff17 	ldw	r2,-4(fp)
  800318:	18800035 	stwio	r2,0(r3)
			break;
  80031c:	00000406 	br	800330 <hexOutputGeneric+0xfc>
		case 7:
			IOWR_ALTERA_AVALON_PIO_DATA(HEX7_BASE, value);
  800320:	00c06434 	movhi	r3,400
  800324:	18cc2404 	addi	r3,r3,12432
  800328:	e0bfff17 	ldw	r2,-4(fp)
  80032c:	18800035 	stwio	r2,0(r3)
			break;
	}
}
  800330:	e037883a 	mov	sp,fp
  800334:	df000017 	ldw	fp,0(sp)
  800338:	dec00104 	addi	sp,sp,4
  80033c:	f800283a 	ret

00800340 <hexOutputNumber>:

void hexOutputNumber(int location, int value) {
  800340:	defffc04 	addi	sp,sp,-16
  800344:	dfc00315 	stw	ra,12(sp)
  800348:	df000215 	stw	fp,8(sp)
  80034c:	df000204 	addi	fp,sp,8
  800350:	e13ffe15 	stw	r4,-8(fp)
  800354:	e17fff15 	stw	r5,-4(fp)
	hexOutputGeneric(location, sevenSegmentDisplay[value]);
  800358:	e0ffff17 	ldw	r3,-4(fp)
  80035c:	00802074 	movhi	r2,129
  800360:	108a0704 	addi	r2,r2,10268
  800364:	10c5883a 	add	r2,r2,r3
  800368:	10800003 	ldbu	r2,0(r2)
  80036c:	11403fcc 	andi	r5,r2,255
  800370:	e13ffe17 	ldw	r4,-8(fp)
  800374:	08002340 	call	800234 <hexOutputGeneric>
}
  800378:	e037883a 	mov	sp,fp
  80037c:	dfc00117 	ldw	ra,4(sp)
  800380:	df000017 	ldw	fp,0(sp)
  800384:	dec00204 	addi	sp,sp,8
  800388:	f800283a 	ret

0080038c <hexOutputBlank>:

void hexOutputBlank(int location) {
  80038c:	defffd04 	addi	sp,sp,-12
  800390:	dfc00215 	stw	ra,8(sp)
  800394:	df000115 	stw	fp,4(sp)
  800398:	df000104 	addi	fp,sp,4
  80039c:	e13fff15 	stw	r4,-4(fp)
	hexOutputNumber(location, 10);
  8003a0:	e13fff17 	ldw	r4,-4(fp)
  8003a4:	01400284 	movi	r5,10
  8003a8:	08003400 	call	800340 <hexOutputNumber>
}
  8003ac:	e037883a 	mov	sp,fp
  8003b0:	dfc00117 	ldw	ra,4(sp)
  8003b4:	df000017 	ldw	fp,0(sp)
  8003b8:	dec00204 	addi	sp,sp,8
  8003bc:	f800283a 	ret

008003c0 <hexBlankAll>:

void hexBlankAll(void){
  8003c0:	defffd04 	addi	sp,sp,-12
  8003c4:	dfc00215 	stw	ra,8(sp)
  8003c8:	df000115 	stw	fp,4(sp)
  8003cc:	df000104 	addi	fp,sp,4
	int i = 0;
  8003d0:	e03fff15 	stw	zero,-4(fp)
	while(i < 8){
  8003d4:	00000506 	br	8003ec <hexBlankAll+0x2c>
		hexOutputBlank(i);
  8003d8:	e13fff17 	ldw	r4,-4(fp)
  8003dc:	080038c0 	call	80038c <hexOutputBlank>
		i++;
  8003e0:	e0bfff17 	ldw	r2,-4(fp)
  8003e4:	10800044 	addi	r2,r2,1
  8003e8:	e0bfff15 	stw	r2,-4(fp)
	hexOutputNumber(location, 10);
}

void hexBlankAll(void){
	int i = 0;
	while(i < 8){
  8003ec:	e0bfff17 	ldw	r2,-4(fp)
  8003f0:	10800210 	cmplti	r2,r2,8
  8003f4:	103ff81e 	bne	r2,zero,8003d8 <hexBlankAll+0x18>
		hexOutputBlank(i);
		i++;
	}
}
  8003f8:	e037883a 	mov	sp,fp
  8003fc:	dfc00117 	ldw	ra,4(sp)
  800400:	df000017 	ldw	fp,0(sp)
  800404:	dec00204 	addi	sp,sp,8
  800408:	f800283a 	ret

0080040c <printRandom>:

void printRandom(void) {
  80040c:	defffc04 	addi	sp,sp,-16
  800410:	dfc00315 	stw	ra,12(sp)
  800414:	df000215 	stw	fp,8(sp)
  800418:	df000204 	addi	fp,sp,8
	int rngNum = 0;
  80041c:	e03fff15 	stw	zero,-4(fp)
	int i = 0;
  800420:	e03ffe15 	stw	zero,-8(fp)
	while (i < 8) {
  800424:	00000b06 	br	800454 <printRandom+0x48>
		rngNum = rand() % 10;
  800428:	08058400 	call	805840 <rand>
  80042c:	1009883a 	mov	r4,r2
  800430:	01400284 	movi	r5,10
  800434:	0803ab00 	call	803ab0 <__modsi3>
  800438:	e0bfff15 	stw	r2,-4(fp)
		hexOutputNumber(i, rngNum);
  80043c:	e13ffe17 	ldw	r4,-8(fp)
  800440:	e17fff17 	ldw	r5,-4(fp)
  800444:	08003400 	call	800340 <hexOutputNumber>
		i++;
  800448:	e0bffe17 	ldw	r2,-8(fp)
  80044c:	10800044 	addi	r2,r2,1
  800450:	e0bffe15 	stw	r2,-8(fp)
}

void printRandom(void) {
	int rngNum = 0;
	int i = 0;
	while (i < 8) {
  800454:	e0bffe17 	ldw	r2,-8(fp)
  800458:	10800210 	cmplti	r2,r2,8
  80045c:	103ff21e 	bne	r2,zero,800428 <printRandom+0x1c>
		rngNum = rand() % 10;
		hexOutputNumber(i, rngNum);
		i++;
	}
}
  800460:	e037883a 	mov	sp,fp
  800464:	dfc00117 	ldw	ra,4(sp)
  800468:	df000017 	ldw	fp,0(sp)
  80046c:	dec00204 	addi	sp,sp,8
  800470:	f800283a 	ret

00800474 <segmentCircle>:

void segmentCircle(void) {
  800474:	defff404 	addi	sp,sp,-48
  800478:	dfc00b15 	stw	ra,44(sp)
  80047c:	df000a15 	stw	fp,40(sp)
  800480:	df000a04 	addi	fp,sp,40
	alt_u8 location[20] = { 0, 0, 0, 0, 1, 2, 3, 4, 5, 6, 7, 7, 7, 7, 6, 5, 4,
			3, 2, 1 };
  800484:	00802074 	movhi	r2,129
  800488:	1084c904 	addi	r2,r2,4900
  80048c:	e13ff604 	addi	r4,fp,-40
  800490:	100b883a 	mov	r5,r2
  800494:	01800504 	movi	r6,20
  800498:	08055400 	call	805540 <memcpy>
	alt_u8 value[20] = { segTop, segTopR, segLowR, segLow, segLow, segLow,
			segLow, segLow, segLow, segLow, segLow, segLowL, segTopL, segTop,
			segTop, segTop, segTop, segTop, segTop, segTop };
  80049c:	00802074 	movhi	r2,129
  8004a0:	1084c404 	addi	r2,r2,4880
  8004a4:	e13ffb04 	addi	r4,fp,-20
  8004a8:	100b883a 	mov	r5,r2
  8004ac:	01800504 	movi	r6,20
  8004b0:	08055400 	call	805540 <memcpy>
	hexBlankAll();
  8004b4:	08003c00 	call	8003c0 <hexBlankAll>
	hexOutputGeneric(location[circleCounter], value[circleCounter]);
  8004b8:	d0a75d03 	ldbu	r2,-25228(gp)
  8004bc:	10803fcc 	andi	r2,r2,255
  8004c0:	e0fff604 	addi	r3,fp,-40
  8004c4:	1885883a 	add	r2,r3,r2
  8004c8:	10800003 	ldbu	r2,0(r2)
  8004cc:	11003fcc 	andi	r4,r2,255
  8004d0:	d0a75d03 	ldbu	r2,-25228(gp)
  8004d4:	10c03fcc 	andi	r3,r2,255
  8004d8:	e0bffb04 	addi	r2,fp,-20
  8004dc:	10c5883a 	add	r2,r2,r3
  8004e0:	10800003 	ldbu	r2,0(r2)
  8004e4:	11403fcc 	andi	r5,r2,255
  8004e8:	08002340 	call	800234 <hexOutputGeneric>
	circleCounter++;
  8004ec:	d0a75d03 	ldbu	r2,-25228(gp)
  8004f0:	10800044 	addi	r2,r2,1
  8004f4:	d0a75d05 	stb	r2,-25228(gp)
	if(circleCounter > 19){
  8004f8:	d0a75d03 	ldbu	r2,-25228(gp)
  8004fc:	10803fcc 	andi	r2,r2,255
  800500:	10800530 	cmpltui	r2,r2,20
  800504:	1000011e 	bne	r2,zero,80050c <segmentCircle+0x98>
		circleCounter = 0;
  800508:	d0275d05 	stb	zero,-25228(gp)
	}

}
  80050c:	e037883a 	mov	sp,fp
  800510:	dfc00117 	ldw	ra,4(sp)
  800514:	df000017 	ldw	fp,0(sp)
  800518:	dec00204 	addi	sp,sp,8
  80051c:	f800283a 	ret

00800520 <segmentCounter>:

void segmentCounter(void) {
  800520:	defffb04 	addi	sp,sp,-20
  800524:	dfc00415 	stw	ra,16(sp)
  800528:	df000315 	stw	fp,12(sp)
  80052c:	df000304 	addi	fp,sp,12
	//resets counter when it reaches 99,999,999
	if (currentSegCount >= 100000000) {
  800530:	d0e75c17 	ldw	r3,-25232(gp)
  800534:	00817db4 	movhi	r2,1526
  800538:	10b83fc4 	addi	r2,r2,-7937
  80053c:	10c0012e 	bgeu	r2,r3,800544 <segmentCounter+0x24>
		currentSegCount = 0;
  800540:	d0275c15 	stw	zero,-25232(gp)
	}
	//displaying the current count.
	int i = 0;
  800544:	e03fff15 	stw	zero,-4(fp)
	int displayNumber = 0;
  800548:	e03ffe15 	stw	zero,-8(fp)
	int temp = currentSegCount;
  80054c:	d0a75c17 	ldw	r2,-25232(gp)
  800550:	e0bffd15 	stw	r2,-12(fp)
	while (i < 8) {
  800554:	00000e06 	br	800590 <segmentCounter+0x70>
		//grabs the last digit
		displayNumber = temp % 10;
  800558:	e13ffd17 	ldw	r4,-12(fp)
  80055c:	01400284 	movi	r5,10
  800560:	0803ab00 	call	803ab0 <__modsi3>
  800564:	e0bffe15 	stw	r2,-8(fp)
		//displays the digit on the appropriate seven segment display
		hexOutputNumber(i, displayNumber);
  800568:	e13fff17 	ldw	r4,-4(fp)
  80056c:	e17ffe17 	ldw	r5,-8(fp)
  800570:	08003400 	call	800340 <hexOutputNumber>
		//shifts to the next digit.
		temp = temp / 10;
  800574:	e13ffd17 	ldw	r4,-12(fp)
  800578:	01400284 	movi	r5,10
  80057c:	0803a500 	call	803a50 <__divsi3>
  800580:	e0bffd15 	stw	r2,-12(fp)
		i++;
  800584:	e0bfff17 	ldw	r2,-4(fp)
  800588:	10800044 	addi	r2,r2,1
  80058c:	e0bfff15 	stw	r2,-4(fp)
	}
	//displaying the current count.
	int i = 0;
	int displayNumber = 0;
	int temp = currentSegCount;
	while (i < 8) {
  800590:	e0bfff17 	ldw	r2,-4(fp)
  800594:	10800210 	cmplti	r2,r2,8
  800598:	103fef1e 	bne	r2,zero,800558 <segmentCounter+0x38>
		hexOutputNumber(i, displayNumber);
		//shifts to the next digit.
		temp = temp / 10;
		i++;
	}
	currentSegCount++;
  80059c:	d0a75c17 	ldw	r2,-25232(gp)
  8005a0:	10800044 	addi	r2,r2,1
  8005a4:	d0a75c15 	stw	r2,-25232(gp)
}
  8005a8:	e037883a 	mov	sp,fp
  8005ac:	dfc00117 	ldw	ra,4(sp)
  8005b0:	df000017 	ldw	fp,0(sp)
  8005b4:	dec00204 	addi	sp,sp,8
  8005b8:	f800283a 	ret

008005bc <main>:
#define key3 3
#define key2 5
#define key1 6
#define key0 7

int main() {
  8005bc:	defffa04 	addi	sp,sp,-24
  8005c0:	dfc00515 	stw	ra,20(sp)
  8005c4:	df000415 	stw	fp,16(sp)
  8005c8:	df000404 	addi	fp,sp,16

	alt_u32 current_value = 1;
  8005cc:	00800044 	movi	r2,1
  8005d0:	e0bfff15 	stw	r2,-4(fp)
	alt_u32 current_state = 0;
  8005d4:	e03ffe15 	stw	zero,-8(fp)
	alt_u8 current_direction = 0;
  8005d8:	e03ffd05 	stb	zero,-12(fp)
	alt_u32 keys = 0;
  8005dc:	e03ffc15 	stw	zero,-16(fp)
	setUpImage();
  8005e0:	08008340 	call	800834 <setUpImage>

	printf("Program running (UART)...\n");
  8005e4:	01002074 	movhi	r4,129
  8005e8:	2104ce04 	addi	r4,r4,4920
  8005ec:	08058100 	call	805810 <puts>
	fprintf(stderr, "Program running (LCD)...\n");
  8005f0:	00802074 	movhi	r2,129
  8005f4:	10913f04 	addi	r2,r2,17660
  8005f8:	10800017 	ldw	r2,0(r2)
  8005fc:	11c00317 	ldw	r7,12(r2)
  800600:	01002074 	movhi	r4,129
  800604:	2104d504 	addi	r4,r4,4948
  800608:	01400044 	movi	r5,1
  80060c:	01800644 	movi	r6,25
  800610:	0804c040 	call	804c04 <fwrite>
  800614:	00000006 	br	800618 <main+0x5c>

	//the main program loop
	while (1) {
		keys = IORD_ALTERA_AVALON_PIO_DATA(KEYS_BASE);
  800618:	00806434 	movhi	r2,400
  80061c:	108c0404 	addi	r2,r2,12304
  800620:	10800037 	ldwio	r2,0(r2)
  800624:	e0bffc15 	stw	r2,-16(fp)

		//switching speeds if necessary
		if ((keys != key0) && (keys != current_state)) {
  800628:	e0bffc17 	ldw	r2,-16(fp)
  80062c:	108001e0 	cmpeqi	r2,r2,7
  800630:	1000051e 	bne	r2,zero,800648 <main+0x8c>
  800634:	e0fffc17 	ldw	r3,-16(fp)
  800638:	e0bffe17 	ldw	r2,-8(fp)
  80063c:	18800226 	beq	r3,r2,800648 <main+0x8c>
			current_state = keys;
  800640:	e0bffc17 	ldw	r2,-16(fp)
  800644:	e0bffe15 	stw	r2,-8(fp)
		}

		if (current_state == key3) {
  800648:	e0bffe17 	ldw	r2,-8(fp)
  80064c:	108000d8 	cmpnei	r2,r2,3
  800650:	1000071e 	bne	r2,zero,800670 <main+0xb4>
			printCharToScreen(0, 59, "Original Image");
  800654:	0009883a 	mov	r4,zero
  800658:	01400ec4 	movi	r5,59
  80065c:	01802074 	movhi	r6,129
  800660:	3184dc04 	addi	r6,r6,4976
  800664:	0800c4c0 	call	800c4c <printCharToScreen>
			displayImage();
  800668:	0800d2c0 	call	800d2c <displayImage>
  80066c:	003fea06 	br	800618 <main+0x5c>
		}
		else if (current_state == key2) {
  800670:	e0bffe17 	ldw	r2,-8(fp)
  800674:	10800158 	cmpnei	r2,r2,5
  800678:	1000021e 	bne	r2,zero,800684 <main+0xc8>
			constantRotation();
  80067c:	080111c0 	call	80111c <constantRotation>
  800680:	003fe506 	br	800618 <main+0x5c>
		}
		else if (current_state == key1){
  800684:	e0bffe17 	ldw	r2,-8(fp)
  800688:	10800198 	cmpnei	r2,r2,6
  80068c:	1000021e 	bne	r2,zero,800698 <main+0xdc>
			shrinkAndResize();
  800690:	08013600 	call	801360 <shrinkAndResize>
  800694:	003fe006 	br	800618 <main+0x5c>
		}
		else {
			clearScreen();
  800698:	0800be00 	call	800be0 <clearScreen>
			clearCharBuffer();
  80069c:	0800c100 	call	800c10 <clearCharBuffer>
			printLineToScreen(0, 0, "John McCarthy and Silas Rubinson, Lab 2.");
  8006a0:	0009883a 	mov	r4,zero
  8006a4:	000b883a 	mov	r5,zero
  8006a8:	01802074 	movhi	r6,129
  8006ac:	3184e004 	addi	r6,r6,4992
  8006b0:	0800cc00 	call	800cc0 <printLineToScreen>
			printLineToScreen(0, 1, "Key 3: View Original Image.");
  8006b4:	0009883a 	mov	r4,zero
  8006b8:	01400044 	movi	r5,1
  8006bc:	01802074 	movhi	r6,129
  8006c0:	3184eb04 	addi	r6,r6,5036
  8006c4:	0800cc00 	call	800cc0 <printLineToScreen>
			printLineToScreen(0, 2, "Key 2: Rotate 360.");
  8006c8:	0009883a 	mov	r4,zero
  8006cc:	01400084 	movi	r5,2
  8006d0:	01802074 	movhi	r6,129
  8006d4:	3184f204 	addi	r6,r6,5064
  8006d8:	0800cc00 	call	800cc0 <printLineToScreen>
			printLineToScreen(0, 3, "Key 1: Shrink and Expand.");
  8006dc:	0009883a 	mov	r4,zero
  8006e0:	014000c4 	movi	r5,3
  8006e4:	01802074 	movhi	r6,129
  8006e8:	3184f704 	addi	r6,r6,5084
  8006ec:	0800cc00 	call	800cc0 <printLineToScreen>
			printLineToScreen(0, 4, "Key 0: Reset.");
  8006f0:	0009883a 	mov	r4,zero
  8006f4:	01400104 	movi	r5,4
  8006f8:	01802074 	movhi	r6,129
  8006fc:	3184fe04 	addi	r6,r6,5112
  800700:	0800cc00 	call	800cc0 <printLineToScreen>
			printLineToScreen(0, 5, "Due to the nature of the board, the keys will be ignored until after");
  800704:	0009883a 	mov	r4,zero
  800708:	01400144 	movi	r5,5
  80070c:	01802074 	movhi	r6,129
  800710:	31850204 	addi	r6,r6,5128
  800714:	0800cc00 	call	800cc0 <printLineToScreen>
			printLineToScreen(0, 6, "each process is completed. Please be patient.");
  800718:	0009883a 	mov	r4,zero
  80071c:	01400184 	movi	r5,6
  800720:	01802074 	movhi	r6,129
  800724:	31851404 	addi	r6,r6,5200
  800728:	0800cc00 	call	800cc0 <printLineToScreen>

			printLineToScreen(0, 10, "                           _______________________________");
  80072c:	0009883a 	mov	r4,zero
  800730:	01400284 	movi	r5,10
  800734:	01802074 	movhi	r6,129
  800738:	31852004 	addi	r6,r6,5248
  80073c:	0800cc00 	call	800cc0 <printLineToScreen>
			printLineToScreen(0, 11, "                           |                             |");
  800740:	0009883a 	mov	r4,zero
  800744:	014002c4 	movi	r5,11
  800748:	01802074 	movhi	r6,129
  80074c:	31852f04 	addi	r6,r6,5308
  800750:	0800cc00 	call	800cc0 <printLineToScreen>
			printLineToScreen(0, 12, "                           |_____________________________|");
  800754:	0009883a 	mov	r4,zero
  800758:	01400304 	movi	r5,12
  80075c:	01802074 	movhi	r6,129
  800760:	31853e04 	addi	r6,r6,5368
  800764:	0800cc00 	call	800cc0 <printLineToScreen>
			printLineToScreen(0, 13, "                           \\                             /");
  800768:	0009883a 	mov	r4,zero
  80076c:	01400344 	movi	r5,13
  800770:	01802074 	movhi	r6,129
  800774:	31854d04 	addi	r6,r6,5428
  800778:	0800cc00 	call	800cc0 <printLineToScreen>
			printLineToScreen(0, 14, "                            \\                           /");
  80077c:	0009883a 	mov	r4,zero
  800780:	01400384 	movi	r5,14
  800784:	01802074 	movhi	r6,129
  800788:	31855c04 	addi	r6,r6,5488
  80078c:	0800cc00 	call	800cc0 <printLineToScreen>
			printLineToScreen(0, 15, "                             \\                         /");
  800790:	0009883a 	mov	r4,zero
  800794:	014003c4 	movi	r5,15
  800798:	01802074 	movhi	r6,129
  80079c:	31856b04 	addi	r6,r6,5548
  8007a0:	0800cc00 	call	800cc0 <printLineToScreen>
			printLineToScreen(0, 16, "                              \\                       /");
  8007a4:	0009883a 	mov	r4,zero
  8007a8:	01400404 	movi	r5,16
  8007ac:	01802074 	movhi	r6,129
  8007b0:	31857a04 	addi	r6,r6,5608
  8007b4:	0800cc00 	call	800cc0 <printLineToScreen>
			printLineToScreen(0, 17, "                               \\                     /");
  8007b8:	0009883a 	mov	r4,zero
  8007bc:	01400444 	movi	r5,17
  8007c0:	01802074 	movhi	r6,129
  8007c4:	31858804 	addi	r6,r6,5664
  8007c8:	0800cc00 	call	800cc0 <printLineToScreen>
			printLineToScreen(0, 18, "                                \\                   /");
  8007cc:	0009883a 	mov	r4,zero
  8007d0:	01400484 	movi	r5,18
  8007d4:	01802074 	movhi	r6,129
  8007d8:	31859604 	addi	r6,r6,5720
  8007dc:	0800cc00 	call	800cc0 <printLineToScreen>
			printLineToScreen(0, 19, "                                 \\                 /");
  8007e0:	0009883a 	mov	r4,zero
  8007e4:	014004c4 	movi	r5,19
  8007e8:	01802074 	movhi	r6,129
  8007ec:	3185a404 	addi	r6,r6,5776
  8007f0:	0800cc00 	call	800cc0 <printLineToScreen>
			printLineToScreen(0, 20, "                                  \\               /");
  8007f4:	0009883a 	mov	r4,zero
  8007f8:	01400504 	movi	r5,20
  8007fc:	01802074 	movhi	r6,129
  800800:	3185b204 	addi	r6,r6,5832
  800804:	0800cc00 	call	800cc0 <printLineToScreen>
			printLineToScreen(0, 21, "                                   \\             /");
  800808:	0009883a 	mov	r4,zero
  80080c:	01400544 	movi	r5,21
  800810:	01802074 	movhi	r6,129
  800814:	3185bf04 	addi	r6,r6,5884
  800818:	0800cc00 	call	800cc0 <printLineToScreen>
			printLineToScreen(0, 22, "                                    \\           /");
  80081c:	0009883a 	mov	r4,zero
  800820:	01400584 	movi	r5,22
  800824:	01802074 	movhi	r6,129
  800828:	3185cc04 	addi	r6,r6,5936
  80082c:	0800cc00 	call	800cc0 <printLineToScreen>

		}
	}
  800830:	003f7906 	br	800618 <main+0x5c>

00800834 <setUpImage>:
extern FILE *myFile;
extern alt_u8 *myImage;
extern alt_u8 *destImage;
extern alt_up_pixel_buffer_dma_dev *myPixelBuffer;

void setUpImage(void) {
  800834:	defffe04 	addi	sp,sp,-8
  800838:	dfc00115 	stw	ra,4(sp)
  80083c:	df000015 	stw	fp,0(sp)
  800840:	d839883a 	mov	fp,sp
	//all the set up to use this file

	myFile = fopen("myFileSystem/myfile.dat", "rb");
  800844:	01002074 	movhi	r4,129
  800848:	2105d904 	addi	r4,r4,5988
  80084c:	01402074 	movhi	r5,129
  800850:	2945df04 	addi	r5,r5,6012
  800854:	0803ffc0 	call	803ffc <fopen>
  800858:	d0a75e15 	stw	r2,-25224(gp)
	if (myFile == NULL) {
  80085c:	d0a75e17 	ldw	r2,-25224(gp)
  800860:	1004c03a 	cmpne	r2,r2,zero
  800864:	1000031e 	bne	r2,zero,800874 <setUpImage+0x40>
		perror("error opening dataFile");
  800868:	01002074 	movhi	r4,129
  80086c:	2105e004 	addi	r4,r4,6016
  800870:	080575c0 	call	80575c <perror>
	}
	myImage = (alt_u8 *) malloc(rowSize * colSize * dimension);
  800874:	01000134 	movhi	r4,4
  800878:	21210004 	addi	r4,r4,-31744
  80087c:	0804dec0 	call	804dec <malloc>
  800880:	d0a76015 	stw	r2,-25216(gp)
	destImage = (alt_u8 *) malloc(rowSize * colSize * dimension);
  800884:	01000134 	movhi	r4,4
  800888:	21210004 	addi	r4,r4,-31744
  80088c:	0804dec0 	call	804dec <malloc>
  800890:	d0a75f15 	stw	r2,-25220(gp)
	fread(myImage, sizeof(alt_u8), rowSize * colSize * dimension, myFile);
  800894:	d1276017 	ldw	r4,-25216(gp)
  800898:	d1e75e17 	ldw	r7,-25224(gp)
  80089c:	01400044 	movi	r5,1
  8008a0:	01800134 	movhi	r6,4
  8008a4:	31a10004 	addi	r6,r6,-31744
  8008a8:	08042140 	call	804214 <fread>
	myPixelBuffer = alt_up_pixel_buffer_dma_open_dev("/dev/video_pixel_buffer_dma_0");
  8008ac:	01002074 	movhi	r4,129
  8008b0:	2105e604 	addi	r4,r4,6040
  8008b4:	080db200 	call	80db20 <alt_up_pixel_buffer_dma_open_dev>
  8008b8:	d0a76115 	stw	r2,-25212(gp)
}
  8008bc:	e037883a 	mov	sp,fp
  8008c0:	dfc00117 	ldw	ra,4(sp)
  8008c4:	df000017 	ldw	fp,0(sp)
  8008c8:	dec00204 	addi	sp,sp,8
  8008cc:	f800283a 	ret

008008d0 <drawPixelFromArray>:

void drawPixelFromArray(int col, int row) {
  8008d0:	defffc04 	addi	sp,sp,-16
  8008d4:	dfc00315 	stw	ra,12(sp)
  8008d8:	df000215 	stw	fp,8(sp)
  8008dc:	df000204 	addi	fp,sp,8
  8008e0:	e13ffe15 	stw	r4,-8(fp)
  8008e4:	e17fff15 	stw	r5,-4(fp)
	//draws the pixel to the screen from the array where we have the image

	alt_up_pixel_buffer_dma_draw(myPixelBuffer, (myImage[(col * rsizexdim) + row * 3 + 2]) + (myImage[(col * rsizexdim) + row * 3 + 1] << 8) + (myImage[(col * rsizexdim) + row * 3 + 0] << 16), row,
  8008e8:	d2276117 	ldw	r8,-25212(gp)
  8008ec:	d1676017 	ldw	r5,-25216(gp)
  8008f0:	e0bffe17 	ldw	r2,-8(fp)
  8008f4:	1100f024 	muli	r4,r2,960
  8008f8:	e0ffff17 	ldw	r3,-4(fp)
  8008fc:	1805883a 	mov	r2,r3
  800900:	1085883a 	add	r2,r2,r2
  800904:	10c5883a 	add	r2,r2,r3
  800908:	2085883a 	add	r2,r4,r2
  80090c:	2885883a 	add	r2,r5,r2
  800910:	10800084 	addi	r2,r2,2
  800914:	10800003 	ldbu	r2,0(r2)
  800918:	11803fcc 	andi	r6,r2,255
  80091c:	d1676017 	ldw	r5,-25216(gp)
  800920:	e0bffe17 	ldw	r2,-8(fp)
  800924:	1100f024 	muli	r4,r2,960
  800928:	e0ffff17 	ldw	r3,-4(fp)
  80092c:	1805883a 	mov	r2,r3
  800930:	1085883a 	add	r2,r2,r2
  800934:	10c5883a 	add	r2,r2,r3
  800938:	2085883a 	add	r2,r4,r2
  80093c:	2885883a 	add	r2,r5,r2
  800940:	10800044 	addi	r2,r2,1
  800944:	10800003 	ldbu	r2,0(r2)
  800948:	10803fcc 	andi	r2,r2,255
  80094c:	1004923a 	slli	r2,r2,8
  800950:	308b883a 	add	r5,r6,r2
  800954:	e0bffe17 	ldw	r2,-8(fp)
  800958:	1100f024 	muli	r4,r2,960
  80095c:	e0ffff17 	ldw	r3,-4(fp)
  800960:	1805883a 	mov	r2,r3
  800964:	1085883a 	add	r2,r2,r2
  800968:	10c5883a 	add	r2,r2,r3
  80096c:	2085883a 	add	r2,r4,r2
  800970:	1007883a 	mov	r3,r2
  800974:	d0a76017 	ldw	r2,-25216(gp)
  800978:	1885883a 	add	r2,r3,r2
  80097c:	10800003 	ldbu	r2,0(r2)
  800980:	10803fcc 	andi	r2,r2,255
  800984:	1004943a 	slli	r2,r2,16
  800988:	2885883a 	add	r2,r5,r2
  80098c:	100b883a 	mov	r5,r2
  800990:	e1bfff17 	ldw	r6,-4(fp)
  800994:	e1fffe17 	ldw	r7,-8(fp)
  800998:	4009883a 	mov	r4,r8
  80099c:	080db600 	call	80db60 <alt_up_pixel_buffer_dma_draw>
			col);
}
  8009a0:	e037883a 	mov	sp,fp
  8009a4:	dfc00117 	ldw	ra,4(sp)
  8009a8:	df000017 	ldw	fp,0(sp)
  8009ac:	dec00204 	addi	sp,sp,8
  8009b0:	f800283a 	ret

008009b4 <getPixelFromArray>:

int getPixelFromArray(int col, int row) {
  8009b4:	defffd04 	addi	sp,sp,-12
  8009b8:	df000215 	stw	fp,8(sp)
  8009bc:	df000204 	addi	fp,sp,8
  8009c0:	e13ffe15 	stw	r4,-8(fp)
  8009c4:	e17fff15 	stw	r5,-4(fp)
	return (myImage[(col * rsizexdim) + row * 3 + red]) + (myImage[(col * rsizexdim) + row * 3 + green] << 8) + (myImage[(col * rsizexdim) + row * 3 + blue] << 16);
  8009c8:	d1676017 	ldw	r5,-25216(gp)
  8009cc:	e0bffe17 	ldw	r2,-8(fp)
  8009d0:	1100f024 	muli	r4,r2,960
  8009d4:	e0ffff17 	ldw	r3,-4(fp)
  8009d8:	1805883a 	mov	r2,r3
  8009dc:	1085883a 	add	r2,r2,r2
  8009e0:	10c5883a 	add	r2,r2,r3
  8009e4:	2085883a 	add	r2,r4,r2
  8009e8:	2885883a 	add	r2,r5,r2
  8009ec:	10800084 	addi	r2,r2,2
  8009f0:	10800003 	ldbu	r2,0(r2)
  8009f4:	11803fcc 	andi	r6,r2,255
  8009f8:	d1676017 	ldw	r5,-25216(gp)
  8009fc:	e0bffe17 	ldw	r2,-8(fp)
  800a00:	1100f024 	muli	r4,r2,960
  800a04:	e0ffff17 	ldw	r3,-4(fp)
  800a08:	1805883a 	mov	r2,r3
  800a0c:	1085883a 	add	r2,r2,r2
  800a10:	10c5883a 	add	r2,r2,r3
  800a14:	2085883a 	add	r2,r4,r2
  800a18:	2885883a 	add	r2,r5,r2
  800a1c:	10800044 	addi	r2,r2,1
  800a20:	10800003 	ldbu	r2,0(r2)
  800a24:	10803fcc 	andi	r2,r2,255
  800a28:	1004923a 	slli	r2,r2,8
  800a2c:	308b883a 	add	r5,r6,r2
  800a30:	e0bffe17 	ldw	r2,-8(fp)
  800a34:	1100f024 	muli	r4,r2,960
  800a38:	e0ffff17 	ldw	r3,-4(fp)
  800a3c:	1805883a 	mov	r2,r3
  800a40:	1085883a 	add	r2,r2,r2
  800a44:	10c5883a 	add	r2,r2,r3
  800a48:	2085883a 	add	r2,r4,r2
  800a4c:	1007883a 	mov	r3,r2
  800a50:	d0a76017 	ldw	r2,-25216(gp)
  800a54:	1885883a 	add	r2,r3,r2
  800a58:	10800003 	ldbu	r2,0(r2)
  800a5c:	10803fcc 	andi	r2,r2,255
  800a60:	1004943a 	slli	r2,r2,16
  800a64:	2885883a 	add	r2,r5,r2
}
  800a68:	e037883a 	mov	sp,fp
  800a6c:	df000017 	ldw	fp,0(sp)
  800a70:	dec00104 	addi	sp,sp,4
  800a74:	f800283a 	ret

00800a78 <getPixelFromDestArray>:

int getPixelFromDestArray(int col, int row) {
  800a78:	defffd04 	addi	sp,sp,-12
  800a7c:	df000215 	stw	fp,8(sp)
  800a80:	df000204 	addi	fp,sp,8
  800a84:	e13ffe15 	stw	r4,-8(fp)
  800a88:	e17fff15 	stw	r5,-4(fp)
	return (destImage[(col * rsizexdim) + row * 3 + red]) + (destImage[(col * rsizexdim) + row * 3 + green] << 8) + (destImage[(col * rsizexdim) + row * 3 + blue] << 16);
  800a8c:	d1675f17 	ldw	r5,-25220(gp)
  800a90:	e0bffe17 	ldw	r2,-8(fp)
  800a94:	1100f024 	muli	r4,r2,960
  800a98:	e0ffff17 	ldw	r3,-4(fp)
  800a9c:	1805883a 	mov	r2,r3
  800aa0:	1085883a 	add	r2,r2,r2
  800aa4:	10c5883a 	add	r2,r2,r3
  800aa8:	2085883a 	add	r2,r4,r2
  800aac:	2885883a 	add	r2,r5,r2
  800ab0:	10800084 	addi	r2,r2,2
  800ab4:	10800003 	ldbu	r2,0(r2)
  800ab8:	11803fcc 	andi	r6,r2,255
  800abc:	d1675f17 	ldw	r5,-25220(gp)
  800ac0:	e0bffe17 	ldw	r2,-8(fp)
  800ac4:	1100f024 	muli	r4,r2,960
  800ac8:	e0ffff17 	ldw	r3,-4(fp)
  800acc:	1805883a 	mov	r2,r3
  800ad0:	1085883a 	add	r2,r2,r2
  800ad4:	10c5883a 	add	r2,r2,r3
  800ad8:	2085883a 	add	r2,r4,r2
  800adc:	2885883a 	add	r2,r5,r2
  800ae0:	10800044 	addi	r2,r2,1
  800ae4:	10800003 	ldbu	r2,0(r2)
  800ae8:	10803fcc 	andi	r2,r2,255
  800aec:	1004923a 	slli	r2,r2,8
  800af0:	308b883a 	add	r5,r6,r2
  800af4:	e0bffe17 	ldw	r2,-8(fp)
  800af8:	1100f024 	muli	r4,r2,960
  800afc:	e0ffff17 	ldw	r3,-4(fp)
  800b00:	1805883a 	mov	r2,r3
  800b04:	1085883a 	add	r2,r2,r2
  800b08:	10c5883a 	add	r2,r2,r3
  800b0c:	2085883a 	add	r2,r4,r2
  800b10:	1007883a 	mov	r3,r2
  800b14:	d0a75f17 	ldw	r2,-25220(gp)
  800b18:	1885883a 	add	r2,r3,r2
  800b1c:	10800003 	ldbu	r2,0(r2)
  800b20:	10803fcc 	andi	r2,r2,255
  800b24:	1004943a 	slli	r2,r2,16
  800b28:	2885883a 	add	r2,r5,r2
}
  800b2c:	e037883a 	mov	sp,fp
  800b30:	df000017 	ldw	fp,0(sp)
  800b34:	dec00104 	addi	sp,sp,4
  800b38:	f800283a 	ret

00800b3c <getColorFromArray>:

int getColorFromArray(int col, int row, int color) {
  800b3c:	defffc04 	addi	sp,sp,-16
  800b40:	df000315 	stw	fp,12(sp)
  800b44:	df000304 	addi	fp,sp,12
  800b48:	e13ffd15 	stw	r4,-12(fp)
  800b4c:	e17ffe15 	stw	r5,-8(fp)
  800b50:	e1bfff15 	stw	r6,-4(fp)
	return myImage[(col * rsizexdim) + row * 3 + color];
  800b54:	e0bffd17 	ldw	r2,-12(fp)
  800b58:	1100f024 	muli	r4,r2,960
  800b5c:	e0fffe17 	ldw	r3,-8(fp)
  800b60:	1805883a 	mov	r2,r3
  800b64:	1085883a 	add	r2,r2,r2
  800b68:	10c5883a 	add	r2,r2,r3
  800b6c:	2087883a 	add	r3,r4,r2
  800b70:	e0bfff17 	ldw	r2,-4(fp)
  800b74:	1885883a 	add	r2,r3,r2
  800b78:	1007883a 	mov	r3,r2
  800b7c:	d0a76017 	ldw	r2,-25216(gp)
  800b80:	1885883a 	add	r2,r3,r2
  800b84:	10800003 	ldbu	r2,0(r2)
  800b88:	10803fcc 	andi	r2,r2,255
}
  800b8c:	e037883a 	mov	sp,fp
  800b90:	df000017 	ldw	fp,0(sp)
  800b94:	dec00104 	addi	sp,sp,4
  800b98:	f800283a 	ret

00800b9c <drawPixel>:

void drawPixel(int col, int row, int color) {
  800b9c:	defffb04 	addi	sp,sp,-20
  800ba0:	dfc00415 	stw	ra,16(sp)
  800ba4:	df000315 	stw	fp,12(sp)
  800ba8:	df000304 	addi	fp,sp,12
  800bac:	e13ffd15 	stw	r4,-12(fp)
  800bb0:	e17ffe15 	stw	r5,-8(fp)
  800bb4:	e1bfff15 	stw	r6,-4(fp)
	//this prints an individual pixel to the specified row and column
	alt_up_pixel_buffer_dma_draw(myPixelBuffer, color, row, col);
  800bb8:	d1276117 	ldw	r4,-25212(gp)
  800bbc:	e17fff17 	ldw	r5,-4(fp)
  800bc0:	e1bffe17 	ldw	r6,-8(fp)
  800bc4:	e1fffd17 	ldw	r7,-12(fp)
  800bc8:	080db600 	call	80db60 <alt_up_pixel_buffer_dma_draw>
}
  800bcc:	e037883a 	mov	sp,fp
  800bd0:	dfc00117 	ldw	ra,4(sp)
  800bd4:	df000017 	ldw	fp,0(sp)
  800bd8:	dec00204 	addi	sp,sp,8
  800bdc:	f800283a 	ret

00800be0 <clearScreen>:

void clearScreen(void) {
  800be0:	defffe04 	addi	sp,sp,-8
  800be4:	dfc00115 	stw	ra,4(sp)
  800be8:	df000015 	stw	fp,0(sp)
  800bec:	d839883a 	mov	fp,sp
	//clears the part of the screen controlled by the pixel buffer
	alt_up_pixel_buffer_dma_clear_screen(myPixelBuffer, 0);
  800bf0:	d1276117 	ldw	r4,-25212(gp)
  800bf4:	000b883a 	mov	r5,zero
  800bf8:	080dde40 	call	80dde4 <alt_up_pixel_buffer_dma_clear_screen>
}
  800bfc:	e037883a 	mov	sp,fp
  800c00:	dfc00117 	ldw	ra,4(sp)
  800c04:	df000017 	ldw	fp,0(sp)
  800c08:	dec00204 	addi	sp,sp,8
  800c0c:	f800283a 	ret

00800c10 <clearCharBuffer>:

void clearCharBuffer(void){
  800c10:	defffd04 	addi	sp,sp,-12
  800c14:	dfc00215 	stw	ra,8(sp)
  800c18:	df000115 	stw	fp,4(sp)
  800c1c:	df000104 	addi	fp,sp,4
	alt_up_char_buffer_dev *myCharBuffer;
	myCharBuffer = alt_up_char_buffer_open_dev("/dev/video_character_buffer_with_dma_0");
  800c20:	01002074 	movhi	r4,129
  800c24:	2105ee04 	addi	r4,r4,6072
  800c28:	080d8a00 	call	80d8a0 <alt_up_char_buffer_open_dev>
  800c2c:	e0bfff15 	stw	r2,-4(fp)
	alt_up_char_buffer_clear(myCharBuffer);
  800c30:	e13fff17 	ldw	r4,-4(fp)
  800c34:	080dac40 	call	80dac4 <alt_up_char_buffer_clear>
}
  800c38:	e037883a 	mov	sp,fp
  800c3c:	dfc00117 	ldw	ra,4(sp)
  800c40:	df000017 	ldw	fp,0(sp)
  800c44:	dec00204 	addi	sp,sp,8
  800c48:	f800283a 	ret

00800c4c <printCharToScreen>:

void printCharToScreen(int row, int col, char *input) {
  800c4c:	defffa04 	addi	sp,sp,-24
  800c50:	dfc00515 	stw	ra,20(sp)
  800c54:	df000415 	stw	fp,16(sp)
  800c58:	df000404 	addi	fp,sp,16
  800c5c:	e13ffd15 	stw	r4,-12(fp)
  800c60:	e17ffe15 	stw	r5,-8(fp)
  800c64:	e1bfff15 	stw	r6,-4(fp)
	//clears the character buffer before replacing it. also leads to flashy lights.

	alt_up_char_buffer_dev *myCharBuffer;
	myCharBuffer = alt_up_char_buffer_open_dev("/dev/video_character_buffer_with_dma_0");
  800c68:	01002074 	movhi	r4,129
  800c6c:	2105ee04 	addi	r4,r4,6072
  800c70:	080d8a00 	call	80d8a0 <alt_up_char_buffer_open_dev>
  800c74:	e0bffc15 	stw	r2,-16(fp)
	if (!myCharBuffer) {
  800c78:	e0bffc17 	ldw	r2,-16(fp)
  800c7c:	1004c03a 	cmpne	r2,r2,zero
  800c80:	1000031e 	bne	r2,zero,800c90 <printCharToScreen+0x44>
		printf("error opening character buffer \n");
  800c84:	01002074 	movhi	r4,129
  800c88:	2105f804 	addi	r4,r4,6112
  800c8c:	08058100 	call	805810 <puts>
	}
	alt_up_char_buffer_clear(myCharBuffer);
  800c90:	e13ffc17 	ldw	r4,-16(fp)
  800c94:	080dac40 	call	80dac4 <alt_up_char_buffer_clear>
	alt_up_char_buffer_string(myCharBuffer, input, row, col);
  800c98:	e1bffd17 	ldw	r6,-12(fp)
  800c9c:	e1fffe17 	ldw	r7,-8(fp)
  800ca0:	e13ffc17 	ldw	r4,-16(fp)
  800ca4:	e17fff17 	ldw	r5,-4(fp)
  800ca8:	080d9b00 	call	80d9b0 <alt_up_char_buffer_string>
}
  800cac:	e037883a 	mov	sp,fp
  800cb0:	dfc00117 	ldw	ra,4(sp)
  800cb4:	df000017 	ldw	fp,0(sp)
  800cb8:	dec00204 	addi	sp,sp,8
  800cbc:	f800283a 	ret

00800cc0 <printLineToScreen>:

void printLineToScreen(int row, int col, char *input){
  800cc0:	defffa04 	addi	sp,sp,-24
  800cc4:	dfc00515 	stw	ra,20(sp)
  800cc8:	df000415 	stw	fp,16(sp)
  800ccc:	df000404 	addi	fp,sp,16
  800cd0:	e13ffd15 	stw	r4,-12(fp)
  800cd4:	e17ffe15 	stw	r5,-8(fp)
  800cd8:	e1bfff15 	stw	r6,-4(fp)
		alt_up_char_buffer_dev *myCharBuffer;
		myCharBuffer = alt_up_char_buffer_open_dev("/dev/video_character_buffer_with_dma_0");
  800cdc:	01002074 	movhi	r4,129
  800ce0:	2105ee04 	addi	r4,r4,6072
  800ce4:	080d8a00 	call	80d8a0 <alt_up_char_buffer_open_dev>
  800ce8:	e0bffc15 	stw	r2,-16(fp)
		if (!myCharBuffer) {
  800cec:	e0bffc17 	ldw	r2,-16(fp)
  800cf0:	1004c03a 	cmpne	r2,r2,zero
  800cf4:	1000031e 	bne	r2,zero,800d04 <printLineToScreen+0x44>
			printf("error opening character buffer \n");
  800cf8:	01002074 	movhi	r4,129
  800cfc:	2105f804 	addi	r4,r4,6112
  800d00:	08058100 	call	805810 <puts>
		}
		alt_up_char_buffer_string(myCharBuffer, input, row, col);
  800d04:	e1bffd17 	ldw	r6,-12(fp)
  800d08:	e1fffe17 	ldw	r7,-8(fp)
  800d0c:	e13ffc17 	ldw	r4,-16(fp)
  800d10:	e17fff17 	ldw	r5,-4(fp)
  800d14:	080d9b00 	call	80d9b0 <alt_up_char_buffer_string>
}
  800d18:	e037883a 	mov	sp,fp
  800d1c:	dfc00117 	ldw	ra,4(sp)
  800d20:	df000017 	ldw	fp,0(sp)
  800d24:	dec00204 	addi	sp,sp,8
  800d28:	f800283a 	ret

00800d2c <displayImage>:

void displayImage(void) {
  800d2c:	defffc04 	addi	sp,sp,-16
  800d30:	dfc00315 	stw	ra,12(sp)
  800d34:	df000215 	stw	fp,8(sp)
  800d38:	df000204 	addi	fp,sp,8
	//	displays the image loaded into the array myImage

	clearScreen();
  800d3c:	0800be00 	call	800be0 <clearScreen>
	int i = 0;
  800d40:	e03fff15 	stw	zero,-4(fp)
	int j = 0;
  800d44:	e03ffe15 	stw	zero,-8(fp)

	//the loop that goes gets all the indexes of the array where we have the image
	for (i = 0; i < colSize; i++) {
  800d48:	e03fff15 	stw	zero,-4(fp)
  800d4c:	00000e06 	br	800d88 <displayImage+0x5c>
		for (j = 0; j < rowSize; j++) {
  800d50:	e03ffe15 	stw	zero,-8(fp)
  800d54:	00000606 	br	800d70 <displayImage+0x44>
			drawPixelFromArray(i, j);
  800d58:	e13fff17 	ldw	r4,-4(fp)
  800d5c:	e17ffe17 	ldw	r5,-8(fp)
  800d60:	08008d00 	call	8008d0 <drawPixelFromArray>
	int i = 0;
	int j = 0;

	//the loop that goes gets all the indexes of the array where we have the image
	for (i = 0; i < colSize; i++) {
		for (j = 0; j < rowSize; j++) {
  800d64:	e0bffe17 	ldw	r2,-8(fp)
  800d68:	10800044 	addi	r2,r2,1
  800d6c:	e0bffe15 	stw	r2,-8(fp)
  800d70:	e0bffe17 	ldw	r2,-8(fp)
  800d74:	10805010 	cmplti	r2,r2,320
  800d78:	103ff71e 	bne	r2,zero,800d58 <displayImage+0x2c>
	clearScreen();
	int i = 0;
	int j = 0;

	//the loop that goes gets all the indexes of the array where we have the image
	for (i = 0; i < colSize; i++) {
  800d7c:	e0bfff17 	ldw	r2,-4(fp)
  800d80:	10800044 	addi	r2,r2,1
  800d84:	e0bfff15 	stw	r2,-4(fp)
  800d88:	e0bfff17 	ldw	r2,-4(fp)
  800d8c:	10803c10 	cmplti	r2,r2,240
  800d90:	103fef1e 	bne	r2,zero,800d50 <displayImage+0x24>
		for (j = 0; j < rowSize; j++) {
			drawPixelFromArray(i, j);
		}
	}
}
  800d94:	e037883a 	mov	sp,fp
  800d98:	dfc00117 	ldw	ra,4(sp)
  800d9c:	df000017 	ldw	fp,0(sp)
  800da0:	dec00204 	addi	sp,sp,8
  800da4:	f800283a 	ret

00800da8 <rotateImage>:

void rotateImage(float direction, float angle) {
  800da8:	deffec04 	addi	sp,sp,-80
  800dac:	dfc01315 	stw	ra,76(sp)
  800db0:	df001215 	stw	fp,72(sp)
  800db4:	dc401115 	stw	r17,68(sp)
  800db8:	dc001015 	stw	r16,64(sp)
  800dbc:	df001004 	addi	fp,sp,64
  800dc0:	e13ffe15 	stw	r4,-8(fp)
  800dc4:	e17fff15 	stw	r5,-4(fp)
	//rotates the image in increments of degrees

	float col = 0.0;
  800dc8:	e03ffd15 	stw	zero,-12(fp)
	float row = 0.0;
  800dcc:	e03ffc15 	stw	zero,-16(fp)
	float rotatedCol = 0.0;
  800dd0:	e03ffb15 	stw	zero,-20(fp)
	float rotatedRow = 0.0;
  800dd4:	e03ffa15 	stw	zero,-24(fp)


	//converting the angle to rad
	angle = angle * (PI / 180);
  800dd8:	e0ffff17 	ldw	r3,-4(fp)
  800ddc:	008f23f4 	movhi	r2,15503
  800de0:	10be8d44 	addi	r2,r2,-1483
  800de4:	1885ff32 	custom	252,r2,r3,r2
  800de8:	e0bfff15 	stw	r2,-4(fp)

	//calculating the value of the sin and cos
	const float cosine = cosf(angle);
  800dec:	e13fff17 	ldw	r4,-4(fp)
  800df0:	08018d00 	call	8018d0 <cosf>
  800df4:	e0bff915 	stw	r2,-28(fp)
	const float sine = sinf(angle);
  800df8:	e13fff17 	ldw	r4,-4(fp)
  800dfc:	0801b400 	call	801b40 <sinf>
  800e00:	e0bff815 	stw	r2,-32(fp)

	//correction for the position
	const float centerRow = rowSize / 2;
  800e04:	0090c834 	movhi	r2,17184
  800e08:	e0bff715 	stw	r2,-36(fp)
	const float centerCol = colSize / 2;
  800e0c:	0090bc34 	movhi	r2,17136
  800e10:	e0bff615 	stw	r2,-40(fp)

	clearScreen();
  800e14:	0800be00 	call	800be0 <clearScreen>
	memset(destImage, 0x0, 320 * 240 * 3);
  800e18:	d0a75f17 	ldw	r2,-25220(gp)
  800e1c:	1009883a 	mov	r4,r2
  800e20:	01800134 	movhi	r6,4
  800e24:	31a10004 	addi	r6,r6,-31744
  800e28:	000b883a 	mov	r5,zero
  800e2c:	08055e00 	call	8055e0 <memset>

	//the loop where we recompute where we place the pixels for rotation
	for (col = 0; col < colSize; col++) {
  800e30:	e03ffd15 	stw	zero,-12(fp)
  800e34:	0000ad06 	br	8010ec <rotateImage+0x344>
		for (row = 0; row < rowSize; row++) {
  800e38:	e03ffc15 	stw	zero,-16(fp)
  800e3c:	0000a206 	br	8010c8 <rotateImage+0x320>

			//correcting the position to center
			row = row - centerRow;
  800e40:	e0fffc17 	ldw	r3,-16(fp)
  800e44:	e0bff717 	ldw	r2,-36(fp)
  800e48:	1885ffb2 	custom	254,r2,r3,r2
  800e4c:	e0bffc15 	stw	r2,-16(fp)
			col = col - centerCol;
  800e50:	e0fffd17 	ldw	r3,-12(fp)
  800e54:	e0bff617 	ldw	r2,-40(fp)
  800e58:	1885ffb2 	custom	254,r2,r3,r2
  800e5c:	e0bffd15 	stw	r2,-12(fp)

			//calculating the new position of the row and col
			rotatedRow = (row * cosine) + (col * sine);
  800e60:	e0fffc17 	ldw	r3,-16(fp)
  800e64:	e0bff917 	ldw	r2,-28(fp)
  800e68:	1889ff32 	custom	252,r4,r3,r2
  800e6c:	e0fffd17 	ldw	r3,-12(fp)
  800e70:	e0bff817 	ldw	r2,-32(fp)
  800e74:	1885ff32 	custom	252,r2,r3,r2
  800e78:	2085ff72 	custom	253,r2,r4,r2
  800e7c:	e0bffa15 	stw	r2,-24(fp)
			rotatedCol = -(row * sine) + (col * cosine);
  800e80:	e0fffd17 	ldw	r3,-12(fp)
  800e84:	e0bff917 	ldw	r2,-28(fp)
  800e88:	1889ff32 	custom	252,r4,r3,r2
  800e8c:	e0fffc17 	ldw	r3,-16(fp)
  800e90:	e0bff817 	ldw	r2,-32(fp)
  800e94:	1885ff32 	custom	252,r2,r3,r2
  800e98:	2085ffb2 	custom	254,r2,r4,r2
  800e9c:	e0bffb15 	stw	r2,-20(fp)

			//correcting the position to center
			rotatedRow = rotatedRow + centerRow;
  800ea0:	e0fffa17 	ldw	r3,-24(fp)
  800ea4:	e0bff717 	ldw	r2,-36(fp)
  800ea8:	1885ff72 	custom	253,r2,r3,r2
  800eac:	e0bffa15 	stw	r2,-24(fp)
			rotatedCol = rotatedCol + centerCol;
  800eb0:	e0fffb17 	ldw	r3,-20(fp)
  800eb4:	e0bff617 	ldw	r2,-40(fp)
  800eb8:	1885ff72 	custom	253,r2,r3,r2
  800ebc:	e0bffb15 	stw	r2,-20(fp)

			row = row + centerRow;
  800ec0:	e0fffc17 	ldw	r3,-16(fp)
  800ec4:	e0bff717 	ldw	r2,-36(fp)
  800ec8:	1885ff72 	custom	253,r2,r3,r2
  800ecc:	e0bffc15 	stw	r2,-16(fp)
			col = col + centerCol;
  800ed0:	e0fffd17 	ldw	r3,-12(fp)
  800ed4:	e0bff617 	ldw	r2,-40(fp)
  800ed8:	1885ff72 	custom	253,r2,r3,r2
  800edc:	e0bffd15 	stw	r2,-12(fp)

			int roundedCol = (int) roundf(rotatedCol);
  800ee0:	e13ffb17 	ldw	r4,-20(fp)
  800ee4:	0801aa40 	call	801aa4 <roundf>
  800ee8:	1009883a 	mov	r4,r2
  800eec:	08039400 	call	803940 <__fixsfsi>
  800ef0:	e0bff515 	stw	r2,-44(fp)
			int roundedRow = (int) roundf(rotatedRow);
  800ef4:	e13ffa17 	ldw	r4,-24(fp)
  800ef8:	0801aa40 	call	801aa4 <roundf>
  800efc:	1009883a 	mov	r4,r2
  800f00:	08039400 	call	803940 <__fixsfsi>
  800f04:	e0bff415 	stw	r2,-48(fp)
			int intCol = (int) roundf(col);
  800f08:	e13ffd17 	ldw	r4,-12(fp)
  800f0c:	0801aa40 	call	801aa4 <roundf>
  800f10:	1009883a 	mov	r4,r2
  800f14:	08039400 	call	803940 <__fixsfsi>
  800f18:	e0bff315 	stw	r2,-52(fp)
			int intRow = (int) roundf(row);
  800f1c:	e13ffc17 	ldw	r4,-16(fp)
  800f20:	0801aa40 	call	801aa4 <roundf>
  800f24:	1009883a 	mov	r4,r2
  800f28:	08039400 	call	803940 <__fixsfsi>
  800f2c:	e0bff215 	stw	r2,-56(fp)

			if (rotatedCol > colSize || rotatedCol < 0 || rotatedRow > rowSize || rotatedRow < 0) {
  800f30:	e13ffb17 	ldw	r4,-20(fp)
  800f34:	0150dc34 	movhi	r5,17264
  800f38:	08036c80 	call	8036c8 <__gtsf2>
  800f3c:	10800048 	cmpgei	r2,r2,1
  800f40:	1000101e 	bne	r2,zero,800f84 <rotateImage+0x1dc>
  800f44:	e13ffb17 	ldw	r4,-20(fp)
  800f48:	000b883a 	mov	r5,zero
  800f4c:	08037b80 	call	8037b8 <__ltsf2>
  800f50:	1004803a 	cmplt	r2,r2,zero
  800f54:	10000b1e 	bne	r2,zero,800f84 <rotateImage+0x1dc>
  800f58:	e13ffa17 	ldw	r4,-24(fp)
  800f5c:	0150e834 	movhi	r5,17312
  800f60:	08036c80 	call	8036c8 <__gtsf2>
  800f64:	10800048 	cmpgei	r2,r2,1
  800f68:	1000061e 	bne	r2,zero,800f84 <rotateImage+0x1dc>
  800f6c:	e13ffa17 	ldw	r4,-24(fp)
  800f70:	000b883a 	mov	r5,zero
  800f74:	08037b80 	call	8037b8 <__ltsf2>
  800f78:	1004803a 	cmplt	r2,r2,zero
  800f7c:	1000011e 	bne	r2,zero,800f84 <rotateImage+0x1dc>
  800f80:	00000e06 	br	800fbc <rotateImage+0x214>
				drawPixel((int) roundf(col), (int) roundf(row), 0);
  800f84:	e13ffd17 	ldw	r4,-12(fp)
  800f88:	0801aa40 	call	801aa4 <roundf>
  800f8c:	1009883a 	mov	r4,r2
  800f90:	08039400 	call	803940 <__fixsfsi>
  800f94:	1021883a 	mov	r16,r2
  800f98:	e13ffc17 	ldw	r4,-16(fp)
  800f9c:	0801aa40 	call	801aa4 <roundf>
  800fa0:	1009883a 	mov	r4,r2
  800fa4:	08039400 	call	803940 <__fixsfsi>
  800fa8:	100b883a 	mov	r5,r2
  800fac:	8009883a 	mov	r4,r16
  800fb0:	000d883a 	mov	r6,zero
  800fb4:	0800b9c0 	call	800b9c <drawPixel>
			int roundedCol = (int) roundf(rotatedCol);
			int roundedRow = (int) roundf(rotatedRow);
			int intCol = (int) roundf(col);
			int intRow = (int) roundf(row);

			if (rotatedCol > colSize || rotatedCol < 0 || rotatedRow > rowSize || rotatedRow < 0) {
  800fb8:	00003f06 	br	8010b8 <rotateImage+0x310>
				drawPixel((int) roundf(col), (int) roundf(row), 0);
			}
			else {
				int destCalc = (intCol * rsizexdim) + intRow * dimension;
  800fbc:	e0bff317 	ldw	r2,-52(fp)
  800fc0:	1100f024 	muli	r4,r2,960
  800fc4:	e0fff217 	ldw	r3,-56(fp)
  800fc8:	1805883a 	mov	r2,r3
  800fcc:	1085883a 	add	r2,r2,r2
  800fd0:	10c5883a 	add	r2,r2,r3
  800fd4:	2085883a 	add	r2,r4,r2
  800fd8:	e0bff115 	stw	r2,-60(fp)
				int myImageCalc = (roundedCol * rsizexdim) + (roundedRow * dimension);
  800fdc:	e0bff517 	ldw	r2,-44(fp)
  800fe0:	1100f024 	muli	r4,r2,960
  800fe4:	e0fff417 	ldw	r3,-48(fp)
  800fe8:	1805883a 	mov	r2,r3
  800fec:	1085883a 	add	r2,r2,r2
  800ff0:	10c5883a 	add	r2,r2,r3
  800ff4:	2085883a 	add	r2,r4,r2
  800ff8:	e0bff015 	stw	r2,-64(fp)

				destImage[destCalc + red] = myImage[myImageCalc + red];
  800ffc:	d0e75f17 	ldw	r3,-25220(gp)
  801000:	e0bff117 	ldw	r2,-60(fp)
  801004:	1885883a 	add	r2,r3,r2
  801008:	11000084 	addi	r4,r2,2
  80100c:	d0e76017 	ldw	r3,-25216(gp)
  801010:	e0bff017 	ldw	r2,-64(fp)
  801014:	1885883a 	add	r2,r3,r2
  801018:	10800084 	addi	r2,r2,2
  80101c:	10800003 	ldbu	r2,0(r2)
  801020:	20800005 	stb	r2,0(r4)
				destImage[destCalc + green] = myImage[myImageCalc + green];
  801024:	d0e75f17 	ldw	r3,-25220(gp)
  801028:	e0bff117 	ldw	r2,-60(fp)
  80102c:	1885883a 	add	r2,r3,r2
  801030:	11000044 	addi	r4,r2,1
  801034:	d0e76017 	ldw	r3,-25216(gp)
  801038:	e0bff017 	ldw	r2,-64(fp)
  80103c:	1885883a 	add	r2,r3,r2
  801040:	10800044 	addi	r2,r2,1
  801044:	10800003 	ldbu	r2,0(r2)
  801048:	20800005 	stb	r2,0(r4)
				destImage[destCalc + blue] = myImage[myImageCalc + blue];
  80104c:	d0e75f17 	ldw	r3,-25220(gp)
  801050:	e0bff117 	ldw	r2,-60(fp)
  801054:	1889883a 	add	r4,r3,r2
  801058:	d0e76017 	ldw	r3,-25216(gp)
  80105c:	e0bff017 	ldw	r2,-64(fp)
  801060:	1885883a 	add	r2,r3,r2
  801064:	10800003 	ldbu	r2,0(r2)
  801068:	20800005 	stb	r2,0(r4)

//				drawPixel((int) roundf(col), (int) roundf(row), getPixelFromDestArray(col, row));
				drawPixel((int) roundf(col), (int) roundf(row), bilinearInterpolation(rotatedCol, rotatedRow, col, row));
  80106c:	e13ffd17 	ldw	r4,-12(fp)
  801070:	0801aa40 	call	801aa4 <roundf>
  801074:	1009883a 	mov	r4,r2
  801078:	08039400 	call	803940 <__fixsfsi>
  80107c:	1023883a 	mov	r17,r2
  801080:	e13ffc17 	ldw	r4,-16(fp)
  801084:	0801aa40 	call	801aa4 <roundf>
  801088:	1009883a 	mov	r4,r2
  80108c:	08039400 	call	803940 <__fixsfsi>
  801090:	1021883a 	mov	r16,r2
  801094:	e13ffb17 	ldw	r4,-20(fp)
  801098:	e17ffa17 	ldw	r5,-24(fp)
  80109c:	e1bffd17 	ldw	r6,-12(fp)
  8010a0:	e1fffc17 	ldw	r7,-16(fp)
  8010a4:	080141c0 	call	80141c <bilinearInterpolation>
  8010a8:	100d883a 	mov	r6,r2
  8010ac:	8809883a 	mov	r4,r17
  8010b0:	800b883a 	mov	r5,r16
  8010b4:	0800b9c0 	call	800b9c <drawPixel>
	clearScreen();
	memset(destImage, 0x0, 320 * 240 * 3);

	//the loop where we recompute where we place the pixels for rotation
	for (col = 0; col < colSize; col++) {
		for (row = 0; row < rowSize; row++) {
  8010b8:	e0bffc17 	ldw	r2,-16(fp)
  8010bc:	00cfe034 	movhi	r3,16256
  8010c0:	10c5ff72 	custom	253,r2,r2,r3
  8010c4:	e0bffc15 	stw	r2,-16(fp)
  8010c8:	e13ffc17 	ldw	r4,-16(fp)
  8010cc:	0150e834 	movhi	r5,17312
  8010d0:	08037b80 	call	8037b8 <__ltsf2>
  8010d4:	1004803a 	cmplt	r2,r2,zero
  8010d8:	103f591e 	bne	r2,zero,800e40 <rotateImage+0x98>

	clearScreen();
	memset(destImage, 0x0, 320 * 240 * 3);

	//the loop where we recompute where we place the pixels for rotation
	for (col = 0; col < colSize; col++) {
  8010dc:	e0bffd17 	ldw	r2,-12(fp)
  8010e0:	00cfe034 	movhi	r3,16256
  8010e4:	10c5ff72 	custom	253,r2,r2,r3
  8010e8:	e0bffd15 	stw	r2,-12(fp)
  8010ec:	e13ffd17 	ldw	r4,-12(fp)
  8010f0:	0150dc34 	movhi	r5,17264
  8010f4:	08037b80 	call	8037b8 <__ltsf2>
  8010f8:	1004803a 	cmplt	r2,r2,zero
  8010fc:	103f4e1e 	bne	r2,zero,800e38 <rotateImage+0x90>
//				drawPixel((int) roundf(col), (int) roundf(row), getPixelFromDestArray(col, row));
				drawPixel((int) roundf(col), (int) roundf(row), bilinearInterpolation(rotatedCol, rotatedRow, col, row));
			}
		}
	}
}
  801100:	e037883a 	mov	sp,fp
  801104:	dfc00317 	ldw	ra,12(sp)
  801108:	df000217 	ldw	fp,8(sp)
  80110c:	dc400117 	ldw	r17,4(sp)
  801110:	dc000017 	ldw	r16,0(sp)
  801114:	dec00404 	addi	sp,sp,16
  801118:	f800283a 	ret

0080111c <constantRotation>:

void constantRotation(void) {
  80111c:	defffd04 	addi	sp,sp,-12
  801120:	dfc00215 	stw	ra,8(sp)
  801124:	df000115 	stw	fp,4(sp)
  801128:	df000104 	addi	fp,sp,4
	//Rotates in increments of 10 degrees for a full circle
	printCharToScreen(0, 59, "Rotation");
  80112c:	0009883a 	mov	r4,zero
  801130:	01400ec4 	movi	r5,59
  801134:	01802074 	movhi	r6,129
  801138:	31860004 	addi	r6,r6,6144
  80113c:	0800c4c0 	call	800c4c <printCharToScreen>
	int degree = 0;
  801140:	e03fff15 	stw	zero,-4(fp)
	for (degree = 0; degree < 360; degree += 10) {
  801144:	e03fff15 	stw	zero,-4(fp)
  801148:	00000806 	br	80116c <constantRotation+0x50>
		rotateImage(1, degree);
  80114c:	e13fff17 	ldw	r4,-4(fp)
  801150:	08038a80 	call	8038a8 <__floatsisf>
  801154:	010fe034 	movhi	r4,16256
  801158:	100b883a 	mov	r5,r2
  80115c:	0800da80 	call	800da8 <rotateImage>

void constantRotation(void) {
	//Rotates in increments of 10 degrees for a full circle
	printCharToScreen(0, 59, "Rotation");
	int degree = 0;
	for (degree = 0; degree < 360; degree += 10) {
  801160:	e0bfff17 	ldw	r2,-4(fp)
  801164:	10800284 	addi	r2,r2,10
  801168:	e0bfff15 	stw	r2,-4(fp)
  80116c:	e0bfff17 	ldw	r2,-4(fp)
  801170:	10805a10 	cmplti	r2,r2,360
  801174:	103ff51e 	bne	r2,zero,80114c <constantRotation+0x30>
		rotateImage(1, degree);
	}
}
  801178:	e037883a 	mov	sp,fp
  80117c:	dfc00117 	ldw	ra,4(sp)
  801180:	df000017 	ldw	fp,0(sp)
  801184:	dec00204 	addi	sp,sp,8
  801188:	f800283a 	ret

0080118c <scaleImage>:

void scaleImage(float scalingFactor) {
  80118c:	defff404 	addi	sp,sp,-48
  801190:	dfc00b15 	stw	ra,44(sp)
  801194:	df000a15 	stw	fp,40(sp)
  801198:	dc800915 	stw	r18,36(sp)
  80119c:	dc400815 	stw	r17,32(sp)
  8011a0:	dc000715 	stw	r16,28(sp)
  8011a4:	df000704 	addi	fp,sp,28
  8011a8:	e13fff15 	stw	r4,-4(fp)
	//scales the image by the percentage given
	int col = 0;
  8011ac:	e03ffe15 	stw	zero,-8(fp)
	int row = 0;
  8011b0:	e03ffd15 	stw	zero,-12(fp)
	float scaledCol = 0;
  8011b4:	e03ffc15 	stw	zero,-16(fp)
	float scaledRow = 0;
  8011b8:	e03ffb15 	stw	zero,-20(fp)

	//correction for the position
	const float centerRow = rowSize / 2;
  8011bc:	0090c834 	movhi	r2,17184
  8011c0:	e0bffa15 	stw	r2,-24(fp)
	const float centerCol = colSize / 2;
  8011c4:	0090bc34 	movhi	r2,17136
  8011c8:	e0bff915 	stw	r2,-28(fp)

	clearScreen();
  8011cc:	0800be00 	call	800be0 <clearScreen>

	//the loop where we recompute where we place the pixels for scaling
	for (col = 0; col < colSize; col++) {
  8011d0:	e03ffe15 	stw	zero,-8(fp)
  8011d4:	00005706 	br	801334 <scaleImage+0x1a8>
		for (row = 0; row < rowSize; row++) {
  8011d8:	e03ffd15 	stw	zero,-12(fp)
  8011dc:	00004f06 	br	80131c <scaleImage+0x190>

			row = row - centerRow;
  8011e0:	e13ffd17 	ldw	r4,-12(fp)
  8011e4:	08038a80 	call	8038a8 <__floatsisf>
  8011e8:	1007883a 	mov	r3,r2
  8011ec:	e0bffa17 	ldw	r2,-24(fp)
  8011f0:	1885ffb2 	custom	254,r2,r3,r2
  8011f4:	1009883a 	mov	r4,r2
  8011f8:	08039400 	call	803940 <__fixsfsi>
  8011fc:	e0bffd15 	stw	r2,-12(fp)
			col = col - centerCol;
  801200:	e13ffe17 	ldw	r4,-8(fp)
  801204:	08038a80 	call	8038a8 <__floatsisf>
  801208:	1007883a 	mov	r3,r2
  80120c:	e0bff917 	ldw	r2,-28(fp)
  801210:	1885ffb2 	custom	254,r2,r3,r2
  801214:	1009883a 	mov	r4,r2
  801218:	08039400 	call	803940 <__fixsfsi>
  80121c:	e0bffe15 	stw	r2,-8(fp)

			//calculating the new position of the row and col
			scaledRow = row * scalingFactor;
  801220:	e13ffd17 	ldw	r4,-12(fp)
  801224:	08038a80 	call	8038a8 <__floatsisf>
  801228:	1007883a 	mov	r3,r2
  80122c:	e0bfff17 	ldw	r2,-4(fp)
  801230:	1885ff32 	custom	252,r2,r3,r2
  801234:	e0bffb15 	stw	r2,-20(fp)
			scaledCol = col * scalingFactor;
  801238:	e13ffe17 	ldw	r4,-8(fp)
  80123c:	08038a80 	call	8038a8 <__floatsisf>
  801240:	1007883a 	mov	r3,r2
  801244:	e0bfff17 	ldw	r2,-4(fp)
  801248:	1885ff32 	custom	252,r2,r3,r2
  80124c:	e0bffc15 	stw	r2,-16(fp)

			scaledRow = scaledRow + centerRow;
  801250:	e0fffb17 	ldw	r3,-20(fp)
  801254:	e0bffa17 	ldw	r2,-24(fp)
  801258:	1885ff72 	custom	253,r2,r3,r2
  80125c:	e0bffb15 	stw	r2,-20(fp)
			scaledCol = scaledCol + centerCol;
  801260:	e0fffc17 	ldw	r3,-16(fp)
  801264:	e0bff917 	ldw	r2,-28(fp)
  801268:	1885ff72 	custom	253,r2,r3,r2
  80126c:	e0bffc15 	stw	r2,-16(fp)

			row = row + centerRow;
  801270:	e13ffd17 	ldw	r4,-12(fp)
  801274:	08038a80 	call	8038a8 <__floatsisf>
  801278:	1007883a 	mov	r3,r2
  80127c:	e0bffa17 	ldw	r2,-24(fp)
  801280:	1885ff72 	custom	253,r2,r3,r2
  801284:	1009883a 	mov	r4,r2
  801288:	08039400 	call	803940 <__fixsfsi>
  80128c:	e0bffd15 	stw	r2,-12(fp)
			col = col + centerCol;
  801290:	e13ffe17 	ldw	r4,-8(fp)
  801294:	08038a80 	call	8038a8 <__floatsisf>
  801298:	1007883a 	mov	r3,r2
  80129c:	e0bff917 	ldw	r2,-28(fp)
  8012a0:	1885ff72 	custom	253,r2,r3,r2
  8012a4:	1009883a 	mov	r4,r2
  8012a8:	08039400 	call	803940 <__fixsfsi>
  8012ac:	e0bffe15 	stw	r2,-8(fp)

			//displaying the scaled image
			drawPixel((int) roundf(scaledCol), (int) roundf(scaledRow), bilinearInterpolation(col, row, scaledCol, scaledRow));
  8012b0:	e13ffc17 	ldw	r4,-16(fp)
  8012b4:	0801aa40 	call	801aa4 <roundf>
  8012b8:	1009883a 	mov	r4,r2
  8012bc:	08039400 	call	803940 <__fixsfsi>
  8012c0:	1023883a 	mov	r17,r2
  8012c4:	e13ffb17 	ldw	r4,-20(fp)
  8012c8:	0801aa40 	call	801aa4 <roundf>
  8012cc:	1009883a 	mov	r4,r2
  8012d0:	08039400 	call	803940 <__fixsfsi>
  8012d4:	1025883a 	mov	r18,r2
  8012d8:	e13ffe17 	ldw	r4,-8(fp)
  8012dc:	08038a80 	call	8038a8 <__floatsisf>
  8012e0:	1021883a 	mov	r16,r2
  8012e4:	e13ffd17 	ldw	r4,-12(fp)
  8012e8:	08038a80 	call	8038a8 <__floatsisf>
  8012ec:	8009883a 	mov	r4,r16
  8012f0:	100b883a 	mov	r5,r2
  8012f4:	e1bffc17 	ldw	r6,-16(fp)
  8012f8:	e1fffb17 	ldw	r7,-20(fp)
  8012fc:	080141c0 	call	80141c <bilinearInterpolation>
  801300:	100d883a 	mov	r6,r2
  801304:	8809883a 	mov	r4,r17
  801308:	900b883a 	mov	r5,r18
  80130c:	0800b9c0 	call	800b9c <drawPixel>

	clearScreen();

	//the loop where we recompute where we place the pixels for scaling
	for (col = 0; col < colSize; col++) {
		for (row = 0; row < rowSize; row++) {
  801310:	e0bffd17 	ldw	r2,-12(fp)
  801314:	10800044 	addi	r2,r2,1
  801318:	e0bffd15 	stw	r2,-12(fp)
  80131c:	e0bffd17 	ldw	r2,-12(fp)
  801320:	10805010 	cmplti	r2,r2,320
  801324:	103fae1e 	bne	r2,zero,8011e0 <scaleImage+0x54>
	const float centerCol = colSize / 2;

	clearScreen();

	//the loop where we recompute where we place the pixels for scaling
	for (col = 0; col < colSize; col++) {
  801328:	e0bffe17 	ldw	r2,-8(fp)
  80132c:	10800044 	addi	r2,r2,1
  801330:	e0bffe15 	stw	r2,-8(fp)
  801334:	e0bffe17 	ldw	r2,-8(fp)
  801338:	10803c10 	cmplti	r2,r2,240
  80133c:	103fa61e 	bne	r2,zero,8011d8 <scaleImage+0x4c>

			//displaying the scaled image
			drawPixel((int) roundf(scaledCol), (int) roundf(scaledRow), bilinearInterpolation(col, row, scaledCol, scaledRow));
		}
	}
}
  801340:	e037883a 	mov	sp,fp
  801344:	dfc00417 	ldw	ra,16(sp)
  801348:	df000317 	ldw	fp,12(sp)
  80134c:	dc800217 	ldw	r18,8(sp)
  801350:	dc400117 	ldw	r17,4(sp)
  801354:	dc000017 	ldw	r16,0(sp)
  801358:	dec00504 	addi	sp,sp,20
  80135c:	f800283a 	ret

00801360 <shrinkAndResize>:

void shrinkAndResize(void) {
  801360:	defffd04 	addi	sp,sp,-12
  801364:	dfc00215 	stw	ra,8(sp)
  801368:	df000115 	stw	fp,4(sp)
  80136c:	df000104 	addi	fp,sp,4
	//This shrinks and expands images by increments of 10%
	float i = 0;
  801370:	e03fff15 	stw	zero,-4(fp)
	printCharToScreen(0, 59, "Shrink/Expand");
  801374:	0009883a 	mov	r4,zero
  801378:	01400ec4 	movi	r5,59
  80137c:	01802074 	movhi	r6,129
  801380:	31860304 	addi	r6,r6,6156
  801384:	0800c4c0 	call	800c4c <printCharToScreen>
	for (i = 1; i > 0.1; i = i - 0.1) {
  801388:	008fe034 	movhi	r2,16256
  80138c:	e0bfff15 	stw	r2,-4(fp)
  801390:	00000706 	br	8013b0 <shrinkAndResize+0x50>
		scaleImage(i);
  801394:	e13fff17 	ldw	r4,-4(fp)
  801398:	080118c0 	call	80118c <scaleImage>

void shrinkAndResize(void) {
	//This shrinks and expands images by increments of 10%
	float i = 0;
	printCharToScreen(0, 59, "Shrink/Expand");
	for (i = 1; i > 0.1; i = i - 0.1) {
  80139c:	e0bfff17 	ldw	r2,-4(fp)
  8013a0:	00cf7374 	movhi	r3,15821
  8013a4:	18f33344 	addi	r3,r3,-13107
  8013a8:	10c5ffb2 	custom	254,r2,r2,r3
  8013ac:	e0bfff15 	stw	r2,-4(fp)
  8013b0:	e13fff17 	ldw	r4,-4(fp)
  8013b4:	014f7374 	movhi	r5,15821
  8013b8:	29733344 	addi	r5,r5,-13107
  8013bc:	08036c80 	call	8036c8 <__gtsf2>
  8013c0:	10800048 	cmpgei	r2,r2,1
  8013c4:	103ff31e 	bne	r2,zero,801394 <shrinkAndResize+0x34>
		scaleImage(i);
	}
	for (i = 0.1; i <= 1; i = i + 0.1) {
  8013c8:	008f7374 	movhi	r2,15821
  8013cc:	10b33344 	addi	r2,r2,-13107
  8013d0:	e0bfff15 	stw	r2,-4(fp)
  8013d4:	00000706 	br	8013f4 <shrinkAndResize+0x94>
		scaleImage(i);
  8013d8:	e13fff17 	ldw	r4,-4(fp)
  8013dc:	080118c0 	call	80118c <scaleImage>
	float i = 0;
	printCharToScreen(0, 59, "Shrink/Expand");
	for (i = 1; i > 0.1; i = i - 0.1) {
		scaleImage(i);
	}
	for (i = 0.1; i <= 1; i = i + 0.1) {
  8013e0:	e0bfff17 	ldw	r2,-4(fp)
  8013e4:	00cf7374 	movhi	r3,15821
  8013e8:	18f33344 	addi	r3,r3,-13107
  8013ec:	10c5ff72 	custom	253,r2,r2,r3
  8013f0:	e0bfff15 	stw	r2,-4(fp)
  8013f4:	e13fff17 	ldw	r4,-4(fp)
  8013f8:	014fe034 	movhi	r5,16256
  8013fc:	08038300 	call	803830 <__lesf2>
  801400:	10800050 	cmplti	r2,r2,1
  801404:	103ff41e 	bne	r2,zero,8013d8 <shrinkAndResize+0x78>
		scaleImage(i);
	}
}
  801408:	e037883a 	mov	sp,fp
  80140c:	dfc00117 	ldw	ra,4(sp)
  801410:	df000017 	ldw	fp,0(sp)
  801414:	dec00204 	addi	sp,sp,8
  801418:	f800283a 	ret

0080141c <bilinearInterpolation>:

int bilinearInterpolation(float col, float row, float changedCol, float changedRow) {
  80141c:	defff204 	addi	sp,sp,-56
  801420:	dfc00d15 	stw	ra,52(sp)
  801424:	df000c15 	stw	fp,48(sp)
  801428:	dc800b15 	stw	r18,44(sp)
  80142c:	dc400a15 	stw	r17,40(sp)
  801430:	dc000915 	stw	r16,36(sp)
  801434:	df000904 	addi	fp,sp,36
  801438:	e13ffc15 	stw	r4,-16(fp)
  80143c:	e17ffd15 	stw	r5,-12(fp)
  801440:	e1bffe15 	stw	r6,-8(fp)
  801444:	e1ffff15 	stw	r7,-4(fp)
	//For scale, use col, row, scaledC, scaledR
	//For rotate, the opposite, rotatedC, rotatedR, col, row
	//returns an integer holding the data for the pixel value averaged from the corners of the original

	float weightrow = 0.0;
  801448:	e03ffb15 	stw	zero,-20(fp)
	float weightcol = 0.0;
  80144c:	e03ffa15 	stw	zero,-24(fp)
	int interPRed = 0;
  801450:	e03ff915 	stw	zero,-28(fp)
	int interPGreen = 0;
  801454:	e03ff815 	stw	zero,-32(fp)
	int interPBlue = 0;
  801458:	e03ff715 	stw	zero,-36(fp)

	weightrow = changedRow - floorf(changedRow);
  80145c:	e13fff17 	ldw	r4,-4(fp)
  801460:	08019900 	call	801990 <floorf>
  801464:	1007883a 	mov	r3,r2
  801468:	e0bfff17 	ldw	r2,-4(fp)
  80146c:	10c5ffb2 	custom	254,r2,r2,r3
  801470:	e0bffb15 	stw	r2,-20(fp)
	weightcol = changedCol - floorf(changedCol);
  801474:	e13ffe17 	ldw	r4,-8(fp)
  801478:	08019900 	call	801990 <floorf>
  80147c:	1007883a 	mov	r3,r2
  801480:	e0bffe17 	ldw	r2,-8(fp)
  801484:	10c5ffb2 	custom	254,r2,r2,r3
  801488:	e0bffa15 	stw	r2,-24(fp)

	interPRed = ((1 - weightcol) * (1 - weightrow) * getColorFromArray(col, row, red))
  80148c:	00cfe034 	movhi	r3,16256
  801490:	e0bffa17 	ldw	r2,-24(fp)
  801494:	1889ffb2 	custom	254,r4,r3,r2
  801498:	00cfe034 	movhi	r3,16256
  80149c:	e0bffb17 	ldw	r2,-20(fp)
  8014a0:	1885ffb2 	custom	254,r2,r3,r2
  8014a4:	20a3ff32 	custom	252,r17,r4,r2
  8014a8:	e13ffc17 	ldw	r4,-16(fp)
  8014ac:	08039400 	call	803940 <__fixsfsi>
  8014b0:	1021883a 	mov	r16,r2
  8014b4:	e13ffd17 	ldw	r4,-12(fp)
  8014b8:	08039400 	call	803940 <__fixsfsi>
  8014bc:	100b883a 	mov	r5,r2
  8014c0:	8009883a 	mov	r4,r16
  8014c4:	01800084 	movi	r6,2
  8014c8:	0800b3c0 	call	800b3c <getColorFromArray>
  8014cc:	1009883a 	mov	r4,r2
  8014d0:	08038a80 	call	8038a8 <__floatsisf>
  8014d4:	88a3ff32 	custom	252,r17,r17,r2
  8014d8:	00cfe034 	movhi	r3,16256
  8014dc:	e0bffa17 	ldw	r2,-24(fp)
  8014e0:	1887ffb2 	custom	254,r3,r3,r2
  8014e4:	e0bffb17 	ldw	r2,-20(fp)
  8014e8:	18a5ff32 	custom	252,r18,r3,r2
  8014ec:	e13ffc17 	ldw	r4,-16(fp)
  8014f0:	08039400 	call	803940 <__fixsfsi>
  8014f4:	1021883a 	mov	r16,r2
  8014f8:	e0fffd17 	ldw	r3,-12(fp)
  8014fc:	008fe034 	movhi	r2,16256
  801500:	1885ff72 	custom	253,r2,r3,r2
  801504:	1009883a 	mov	r4,r2
  801508:	08039400 	call	803940 <__fixsfsi>
  80150c:	100b883a 	mov	r5,r2
  801510:	8009883a 	mov	r4,r16
  801514:	01800084 	movi	r6,2
  801518:	0800b3c0 	call	800b3c <getColorFromArray>
  80151c:	1009883a 	mov	r4,r2
  801520:	08038a80 	call	8038a8 <__floatsisf>
  801524:	9085ff32 	custom	252,r2,r18,r2
  801528:	88a3ff72 	custom	253,r17,r17,r2
  80152c:	00cfe034 	movhi	r3,16256
  801530:	e0bffb17 	ldw	r2,-20(fp)
  801534:	1887ffb2 	custom	254,r3,r3,r2
  801538:	e0bffa17 	ldw	r2,-24(fp)
  80153c:	18a5ff32 	custom	252,r18,r3,r2
  801540:	e0fffc17 	ldw	r3,-16(fp)
  801544:	008fe034 	movhi	r2,16256
  801548:	1885ff72 	custom	253,r2,r3,r2
  80154c:	1009883a 	mov	r4,r2
  801550:	08039400 	call	803940 <__fixsfsi>
  801554:	1021883a 	mov	r16,r2
  801558:	e13ffd17 	ldw	r4,-12(fp)
  80155c:	08039400 	call	803940 <__fixsfsi>
  801560:	100b883a 	mov	r5,r2
  801564:	8009883a 	mov	r4,r16
  801568:	01800084 	movi	r6,2
  80156c:	0800b3c0 	call	800b3c <getColorFromArray>
  801570:	1009883a 	mov	r4,r2
  801574:	08038a80 	call	8038a8 <__floatsisf>
  801578:	9085ff32 	custom	252,r2,r18,r2
  80157c:	88a3ff72 	custom	253,r17,r17,r2
  801580:	e0fffa17 	ldw	r3,-24(fp)
  801584:	e0bffb17 	ldw	r2,-20(fp)
  801588:	18a5ff32 	custom	252,r18,r3,r2
  80158c:	e0fffc17 	ldw	r3,-16(fp)
  801590:	008fe034 	movhi	r2,16256
  801594:	1885ff72 	custom	253,r2,r3,r2
  801598:	1009883a 	mov	r4,r2
  80159c:	08039400 	call	803940 <__fixsfsi>
  8015a0:	1021883a 	mov	r16,r2
  8015a4:	e0fffd17 	ldw	r3,-12(fp)
  8015a8:	008fe034 	movhi	r2,16256
  8015ac:	1885ff72 	custom	253,r2,r3,r2
  8015b0:	1009883a 	mov	r4,r2
  8015b4:	08039400 	call	803940 <__fixsfsi>
  8015b8:	100b883a 	mov	r5,r2
  8015bc:	8009883a 	mov	r4,r16
  8015c0:	01800084 	movi	r6,2
  8015c4:	0800b3c0 	call	800b3c <getColorFromArray>
  8015c8:	1009883a 	mov	r4,r2
  8015cc:	08038a80 	call	8038a8 <__floatsisf>
  8015d0:	9085ff32 	custom	252,r2,r18,r2
  8015d4:	8885ff72 	custom	253,r2,r17,r2
  8015d8:	1009883a 	mov	r4,r2
  8015dc:	08039400 	call	803940 <__fixsfsi>
  8015e0:	e0bff915 	stw	r2,-28(fp)
			+ ((1 - weightcol) * (weightrow) * getColorFromArray((col), (row + 1), red))
			+ ((weightcol) * (1	- weightrow) * getColorFromArray((col + 1), row, red))
			+ ((weightcol) * (weightrow) * getColorFromArray((col + 1), (row + 1), red));

	interPGreen = ((1 - weightcol) * (1 - weightrow) * getColorFromArray(col, row, green))
  8015e4:	00cfe034 	movhi	r3,16256
  8015e8:	e0bffa17 	ldw	r2,-24(fp)
  8015ec:	1889ffb2 	custom	254,r4,r3,r2
  8015f0:	00cfe034 	movhi	r3,16256
  8015f4:	e0bffb17 	ldw	r2,-20(fp)
  8015f8:	1885ffb2 	custom	254,r2,r3,r2
  8015fc:	20a3ff32 	custom	252,r17,r4,r2
  801600:	e13ffc17 	ldw	r4,-16(fp)
  801604:	08039400 	call	803940 <__fixsfsi>
  801608:	1021883a 	mov	r16,r2
  80160c:	e13ffd17 	ldw	r4,-12(fp)
  801610:	08039400 	call	803940 <__fixsfsi>
  801614:	100b883a 	mov	r5,r2
  801618:	8009883a 	mov	r4,r16
  80161c:	01800044 	movi	r6,1
  801620:	0800b3c0 	call	800b3c <getColorFromArray>
  801624:	1009883a 	mov	r4,r2
  801628:	08038a80 	call	8038a8 <__floatsisf>
  80162c:	88a3ff32 	custom	252,r17,r17,r2
  801630:	00cfe034 	movhi	r3,16256
  801634:	e0bffb17 	ldw	r2,-20(fp)
  801638:	1887ffb2 	custom	254,r3,r3,r2
  80163c:	e0bffa17 	ldw	r2,-24(fp)
  801640:	18a5ff32 	custom	252,r18,r3,r2
  801644:	e0fffc17 	ldw	r3,-16(fp)
  801648:	008fe034 	movhi	r2,16256
  80164c:	1885ff72 	custom	253,r2,r3,r2
  801650:	1009883a 	mov	r4,r2
  801654:	08039400 	call	803940 <__fixsfsi>
  801658:	1021883a 	mov	r16,r2
  80165c:	e13ffd17 	ldw	r4,-12(fp)
  801660:	08039400 	call	803940 <__fixsfsi>
  801664:	100b883a 	mov	r5,r2
  801668:	8009883a 	mov	r4,r16
  80166c:	01800044 	movi	r6,1
  801670:	0800b3c0 	call	800b3c <getColorFromArray>
  801674:	1009883a 	mov	r4,r2
  801678:	08038a80 	call	8038a8 <__floatsisf>
  80167c:	9085ff32 	custom	252,r2,r18,r2
  801680:	88a3ff72 	custom	253,r17,r17,r2
  801684:	00cfe034 	movhi	r3,16256
  801688:	e0bffa17 	ldw	r2,-24(fp)
  80168c:	1887ffb2 	custom	254,r3,r3,r2
  801690:	e0bffb17 	ldw	r2,-20(fp)
  801694:	18a5ff32 	custom	252,r18,r3,r2
  801698:	e13ffc17 	ldw	r4,-16(fp)
  80169c:	08039400 	call	803940 <__fixsfsi>
  8016a0:	1021883a 	mov	r16,r2
  8016a4:	e0fffd17 	ldw	r3,-12(fp)
  8016a8:	008fe034 	movhi	r2,16256
  8016ac:	1885ff72 	custom	253,r2,r3,r2
  8016b0:	1009883a 	mov	r4,r2
  8016b4:	08039400 	call	803940 <__fixsfsi>
  8016b8:	100b883a 	mov	r5,r2
  8016bc:	8009883a 	mov	r4,r16
  8016c0:	01800044 	movi	r6,1
  8016c4:	0800b3c0 	call	800b3c <getColorFromArray>
  8016c8:	1009883a 	mov	r4,r2
  8016cc:	08038a80 	call	8038a8 <__floatsisf>
  8016d0:	9085ff32 	custom	252,r2,r18,r2
  8016d4:	88a3ff72 	custom	253,r17,r17,r2
  8016d8:	e0fffa17 	ldw	r3,-24(fp)
  8016dc:	e0bffb17 	ldw	r2,-20(fp)
  8016e0:	18a5ff32 	custom	252,r18,r3,r2
  8016e4:	e0fffc17 	ldw	r3,-16(fp)
  8016e8:	008fe034 	movhi	r2,16256
  8016ec:	1885ff72 	custom	253,r2,r3,r2
  8016f0:	1009883a 	mov	r4,r2
  8016f4:	08039400 	call	803940 <__fixsfsi>
  8016f8:	1021883a 	mov	r16,r2
  8016fc:	e0fffd17 	ldw	r3,-12(fp)
  801700:	008fe034 	movhi	r2,16256
  801704:	1885ff72 	custom	253,r2,r3,r2
  801708:	1009883a 	mov	r4,r2
  80170c:	08039400 	call	803940 <__fixsfsi>
  801710:	100b883a 	mov	r5,r2
  801714:	8009883a 	mov	r4,r16
  801718:	01800044 	movi	r6,1
  80171c:	0800b3c0 	call	800b3c <getColorFromArray>
  801720:	1009883a 	mov	r4,r2
  801724:	08038a80 	call	8038a8 <__floatsisf>
  801728:	9085ff32 	custom	252,r2,r18,r2
  80172c:	8885ff72 	custom	253,r2,r17,r2
  801730:	1009883a 	mov	r4,r2
  801734:	08039400 	call	803940 <__fixsfsi>
  801738:	e0bff815 	stw	r2,-32(fp)
			+ ((weightcol) * (1 - weightrow) * getColorFromArray((col + 1), row, green))
			+ ((1 - weightcol) * (weightrow) * getColorFromArray((col), (row + 1), green))
			+ ((weightcol) * (weightrow) * getColorFromArray((col + 1), (row + 1), green));

	interPBlue = (1 - weightcol) * (1 - weightrow) * getColorFromArray(col, row, blue)
  80173c:	00cfe034 	movhi	r3,16256
  801740:	e0bffa17 	ldw	r2,-24(fp)
  801744:	1889ffb2 	custom	254,r4,r3,r2
  801748:	00cfe034 	movhi	r3,16256
  80174c:	e0bffb17 	ldw	r2,-20(fp)
  801750:	1885ffb2 	custom	254,r2,r3,r2
  801754:	20a3ff32 	custom	252,r17,r4,r2
  801758:	e13ffc17 	ldw	r4,-16(fp)
  80175c:	08039400 	call	803940 <__fixsfsi>
  801760:	1021883a 	mov	r16,r2
  801764:	e13ffd17 	ldw	r4,-12(fp)
  801768:	08039400 	call	803940 <__fixsfsi>
  80176c:	100b883a 	mov	r5,r2
  801770:	8009883a 	mov	r4,r16
  801774:	000d883a 	mov	r6,zero
  801778:	0800b3c0 	call	800b3c <getColorFromArray>
  80177c:	1009883a 	mov	r4,r2
  801780:	08038a80 	call	8038a8 <__floatsisf>
  801784:	88a3ff32 	custom	252,r17,r17,r2
  801788:	00cfe034 	movhi	r3,16256
  80178c:	e0bffb17 	ldw	r2,-20(fp)
  801790:	1887ffb2 	custom	254,r3,r3,r2
  801794:	e0bffa17 	ldw	r2,-24(fp)
  801798:	18a5ff32 	custom	252,r18,r3,r2
  80179c:	e0fffc17 	ldw	r3,-16(fp)
  8017a0:	008fe034 	movhi	r2,16256
  8017a4:	1885ff72 	custom	253,r2,r3,r2
  8017a8:	1009883a 	mov	r4,r2
  8017ac:	08039400 	call	803940 <__fixsfsi>
  8017b0:	1021883a 	mov	r16,r2
  8017b4:	e13ffd17 	ldw	r4,-12(fp)
  8017b8:	08039400 	call	803940 <__fixsfsi>
  8017bc:	100b883a 	mov	r5,r2
  8017c0:	8009883a 	mov	r4,r16
  8017c4:	000d883a 	mov	r6,zero
  8017c8:	0800b3c0 	call	800b3c <getColorFromArray>
  8017cc:	1009883a 	mov	r4,r2
  8017d0:	08038a80 	call	8038a8 <__floatsisf>
  8017d4:	9085ff32 	custom	252,r2,r18,r2
  8017d8:	88a3ff72 	custom	253,r17,r17,r2
  8017dc:	00cfe034 	movhi	r3,16256
  8017e0:	e0bffa17 	ldw	r2,-24(fp)
  8017e4:	1887ffb2 	custom	254,r3,r3,r2
  8017e8:	e0bffb17 	ldw	r2,-20(fp)
  8017ec:	18a5ff32 	custom	252,r18,r3,r2
  8017f0:	e13ffc17 	ldw	r4,-16(fp)
  8017f4:	08039400 	call	803940 <__fixsfsi>
  8017f8:	1021883a 	mov	r16,r2
  8017fc:	e0fffd17 	ldw	r3,-12(fp)
  801800:	008fe034 	movhi	r2,16256
  801804:	1885ff72 	custom	253,r2,r3,r2
  801808:	1009883a 	mov	r4,r2
  80180c:	08039400 	call	803940 <__fixsfsi>
  801810:	100b883a 	mov	r5,r2
  801814:	8009883a 	mov	r4,r16
  801818:	000d883a 	mov	r6,zero
  80181c:	0800b3c0 	call	800b3c <getColorFromArray>
  801820:	1009883a 	mov	r4,r2
  801824:	08038a80 	call	8038a8 <__floatsisf>
  801828:	9085ff32 	custom	252,r2,r18,r2
  80182c:	88a3ff72 	custom	253,r17,r17,r2
  801830:	e0fffa17 	ldw	r3,-24(fp)
  801834:	e0bffb17 	ldw	r2,-20(fp)
  801838:	18a5ff32 	custom	252,r18,r3,r2
  80183c:	e0fffc17 	ldw	r3,-16(fp)
  801840:	008fe034 	movhi	r2,16256
  801844:	1885ff72 	custom	253,r2,r3,r2
  801848:	1009883a 	mov	r4,r2
  80184c:	08039400 	call	803940 <__fixsfsi>
  801850:	1021883a 	mov	r16,r2
  801854:	e0fffd17 	ldw	r3,-12(fp)
  801858:	008fe034 	movhi	r2,16256
  80185c:	1885ff72 	custom	253,r2,r3,r2
  801860:	1009883a 	mov	r4,r2
  801864:	08039400 	call	803940 <__fixsfsi>
  801868:	100b883a 	mov	r5,r2
  80186c:	8009883a 	mov	r4,r16
  801870:	000d883a 	mov	r6,zero
  801874:	0800b3c0 	call	800b3c <getColorFromArray>
  801878:	1009883a 	mov	r4,r2
  80187c:	08038a80 	call	8038a8 <__floatsisf>
  801880:	9085ff32 	custom	252,r2,r18,r2
  801884:	8885ff72 	custom	253,r2,r17,r2
  801888:	1009883a 	mov	r4,r2
  80188c:	08039400 	call	803940 <__fixsfsi>
  801890:	e0bff715 	stw	r2,-36(fp)
			+ ((weightcol) * (1 - weightrow) * getColorFromArray((col + 1), row, blue))
			+ ((1 - weightcol) * (weightrow) * getColorFromArray((col), (row + 1), blue))
			+ ((weightcol) * (weightrow) * getColorFromArray((col + 1), (row + 1), blue));

	return ((interPRed) + (interPGreen << 8) + (interPBlue << 16));
  801894:	e0bff817 	ldw	r2,-32(fp)
  801898:	1006923a 	slli	r3,r2,8
  80189c:	e0bff917 	ldw	r2,-28(fp)
  8018a0:	1887883a 	add	r3,r3,r2
  8018a4:	e0bff717 	ldw	r2,-36(fp)
  8018a8:	1004943a 	slli	r2,r2,16
  8018ac:	1885883a 	add	r2,r3,r2
}
  8018b0:	e037883a 	mov	sp,fp
  8018b4:	dfc00417 	ldw	ra,16(sp)
  8018b8:	df000317 	ldw	fp,12(sp)
  8018bc:	dc800217 	ldw	r18,8(sp)
  8018c0:	dc400117 	ldw	r17,4(sp)
  8018c4:	dc000017 	ldw	r16,0(sp)
  8018c8:	dec00504 	addi	sp,sp,20
  8018cc:	f800283a 	ret

008018d0 <cosf>:
  8018d0:	00a00034 	movhi	r2,32768
  8018d4:	10bfffc4 	addi	r2,r2,-1
  8018d8:	defffd04 	addi	sp,sp,-12
  8018dc:	110c703a 	and	r6,r2,r4
  8018e0:	00cfd274 	movhi	r3,16201
  8018e4:	18c3f604 	addi	r3,r3,4056
  8018e8:	dfc00215 	stw	ra,8(sp)
  8018ec:	200b883a 	mov	r5,r4
  8018f0:	1980130e 	bge	r3,r6,801940 <cosf+0x70>
  8018f4:	009fe034 	movhi	r2,32640
  8018f8:	10bfffc4 	addi	r2,r2,-1
  8018fc:	1180040e 	bge	r2,r6,801910 <cosf+0x40>
  801900:	080339c0 	call	80339c <__subsf3>
  801904:	dfc00217 	ldw	ra,8(sp)
  801908:	dec00304 	addi	sp,sp,12
  80190c:	f800283a 	ret
  801910:	d80b883a 	mov	r5,sp
  801914:	0801c000 	call	801c00 <__ieee754_rem_pio2f>
  801918:	118000cc 	andi	r6,r2,3
  80191c:	00c00044 	movi	r3,1
  801920:	30c00c26 	beq	r6,r3,801954 <cosf+0x84>
  801924:	00800084 	movi	r2,2
  801928:	30801426 	beq	r6,r2,80197c <cosf+0xac>
  80192c:	30000e1e 	bne	r6,zero,801968 <cosf+0x98>
  801930:	d9000017 	ldw	r4,0(sp)
  801934:	d9400117 	ldw	r5,4(sp)
  801938:	080213c0 	call	80213c <__kernel_cosf>
  80193c:	003ff106 	br	801904 <cosf+0x34>
  801940:	000b883a 	mov	r5,zero
  801944:	080213c0 	call	80213c <__kernel_cosf>
  801948:	dfc00217 	ldw	ra,8(sp)
  80194c:	dec00304 	addi	sp,sp,12
  801950:	f800283a 	ret
  801954:	d9000017 	ldw	r4,0(sp)
  801958:	d9400117 	ldw	r5,4(sp)
  80195c:	0802e880 	call	802e88 <__kernel_sinf>
  801960:	10a0003c 	xorhi	r2,r2,32768
  801964:	003fe706 	br	801904 <cosf+0x34>
  801968:	d9000017 	ldw	r4,0(sp)
  80196c:	d9400117 	ldw	r5,4(sp)
  801970:	180d883a 	mov	r6,r3
  801974:	0802e880 	call	802e88 <__kernel_sinf>
  801978:	003fe206 	br	801904 <cosf+0x34>
  80197c:	d9000017 	ldw	r4,0(sp)
  801980:	d9400117 	ldw	r5,4(sp)
  801984:	080213c0 	call	80213c <__kernel_cosf>
  801988:	10a0003c 	xorhi	r2,r2,32768
  80198c:	003fdd06 	br	801904 <cosf+0x34>

00801990 <floorf>:
  801990:	defffc04 	addi	sp,sp,-16
  801994:	00a00034 	movhi	r2,32768
  801998:	10bfffc4 	addi	r2,r2,-1
  80199c:	dc400115 	stw	r17,4(sp)
  8019a0:	20a2703a 	and	r17,r4,r2
  8019a4:	8806d5fa 	srli	r3,r17,23
  8019a8:	dc000015 	stw	r16,0(sp)
  8019ac:	00800584 	movi	r2,22
  8019b0:	1c3fe044 	addi	r16,r3,-127
  8019b4:	dc800215 	stw	r18,8(sp)
  8019b8:	dfc00315 	stw	ra,12(sp)
  8019bc:	200b883a 	mov	r5,r4
  8019c0:	2025883a 	mov	r18,r4
  8019c4:	14001816 	blt	r2,r16,801a28 <floorf+0x98>
  8019c8:	80002316 	blt	r16,zero,801a58 <floorf+0xc8>
  8019cc:	00802034 	movhi	r2,128
  8019d0:	10bfffc4 	addi	r2,r2,-1
  8019d4:	1423d83a 	sra	r17,r2,r16
  8019d8:	2446703a 	and	r3,r4,r17
  8019dc:	18000b26 	beq	r3,zero,801a0c <floorf+0x7c>
  8019e0:	015c52b4 	movhi	r5,29002
  8019e4:	297cb284 	addi	r5,r5,-3382
  8019e8:	080340c0 	call	80340c <__addsf3>
  8019ec:	1009883a 	mov	r4,r2
  8019f0:	000b883a 	mov	r5,zero
  8019f4:	08036c80 	call	8036c8 <__gtsf2>
  8019f8:	0080030e 	bge	zero,r2,801a08 <floorf+0x78>
  8019fc:	90002116 	blt	r18,zero,801a84 <floorf+0xf4>
  801a00:	0444303a 	nor	r2,zero,r17
  801a04:	90a4703a 	and	r18,r18,r2
  801a08:	900b883a 	mov	r5,r18
  801a0c:	2805883a 	mov	r2,r5
  801a10:	dfc00317 	ldw	ra,12(sp)
  801a14:	dc800217 	ldw	r18,8(sp)
  801a18:	dc400117 	ldw	r17,4(sp)
  801a1c:	dc000017 	ldw	r16,0(sp)
  801a20:	dec00404 	addi	sp,sp,16
  801a24:	f800283a 	ret
  801a28:	009fe034 	movhi	r2,32640
  801a2c:	10bfffc4 	addi	r2,r2,-1
  801a30:	147ff62e 	bgeu	r2,r17,801a0c <floorf+0x7c>
  801a34:	080340c0 	call	80340c <__addsf3>
  801a38:	100b883a 	mov	r5,r2
  801a3c:	2805883a 	mov	r2,r5
  801a40:	dfc00317 	ldw	ra,12(sp)
  801a44:	dc800217 	ldw	r18,8(sp)
  801a48:	dc400117 	ldw	r17,4(sp)
  801a4c:	dc000017 	ldw	r16,0(sp)
  801a50:	dec00404 	addi	sp,sp,16
  801a54:	f800283a 	ret
  801a58:	015c52b4 	movhi	r5,29002
  801a5c:	297cb284 	addi	r5,r5,-3382
  801a60:	080340c0 	call	80340c <__addsf3>
  801a64:	1009883a 	mov	r4,r2
  801a68:	000b883a 	mov	r5,zero
  801a6c:	08036c80 	call	8036c8 <__gtsf2>
  801a70:	00bfe50e 	bge	zero,r2,801a08 <floorf+0x78>
  801a74:	90000716 	blt	r18,zero,801a94 <floorf+0x104>
  801a78:	0025883a 	mov	r18,zero
  801a7c:	900b883a 	mov	r5,r18
  801a80:	003fe206 	br	801a0c <floorf+0x7c>
  801a84:	00802034 	movhi	r2,128
  801a88:	1405d83a 	sra	r2,r2,r16
  801a8c:	90a5883a 	add	r18,r18,r2
  801a90:	003fdb06 	br	801a00 <floorf+0x70>
  801a94:	883fdc26 	beq	r17,zero,801a08 <floorf+0x78>
  801a98:	04afe034 	movhi	r18,49024
  801a9c:	900b883a 	mov	r5,r18
  801aa0:	003fda06 	br	801a0c <floorf+0x7c>

00801aa4 <roundf>:
  801aa4:	209fe02c 	andhi	r2,r4,32640
  801aa8:	1004d5fa 	srli	r2,r2,23
  801aac:	deffff04 	addi	sp,sp,-4
  801ab0:	00c00584 	movi	r3,22
  801ab4:	11bfe044 	addi	r6,r2,-127
  801ab8:	dfc00015 	stw	ra,0(sp)
  801abc:	200f883a 	mov	r7,r4
  801ac0:	19801016 	blt	r3,r6,801b04 <roundf+0x60>
  801ac4:	00802034 	movhi	r2,128
  801ac8:	10bfffc4 	addi	r2,r2,-1
  801acc:	1189d83a 	sra	r4,r2,r6
  801ad0:	30001516 	blt	r6,zero,801b28 <roundf+0x84>
  801ad4:	00801034 	movhi	r2,64
  801ad8:	1185d83a 	sra	r2,r2,r6
  801adc:	0106303a 	nor	r3,zero,r4
  801ae0:	3908703a 	and	r4,r7,r4
  801ae4:	3885883a 	add	r2,r7,r2
  801ae8:	10c6703a 	and	r3,r2,r3
  801aec:	20000126 	beq	r4,zero,801af4 <roundf+0x50>
  801af0:	180f883a 	mov	r7,r3
  801af4:	3805883a 	mov	r2,r7
  801af8:	dfc00017 	ldw	ra,0(sp)
  801afc:	dec00104 	addi	sp,sp,4
  801b00:	f800283a 	ret
  801b04:	00802004 	movi	r2,128
  801b08:	200b883a 	mov	r5,r4
  801b0c:	30bff91e 	bne	r6,r2,801af4 <roundf+0x50>
  801b10:	080340c0 	call	80340c <__addsf3>
  801b14:	100f883a 	mov	r7,r2
  801b18:	3805883a 	mov	r2,r7
  801b1c:	dfc00017 	ldw	ra,0(sp)
  801b20:	dec00104 	addi	sp,sp,4
  801b24:	f800283a 	ret
  801b28:	00bfffc4 	movi	r2,-1
  801b2c:	38e0002c 	andhi	r3,r7,32768
  801b30:	30bfef1e 	bne	r6,r2,801af0 <roundf+0x4c>
  801b34:	18cfe034 	orhi	r3,r3,16256
  801b38:	180f883a 	mov	r7,r3
  801b3c:	003fed06 	br	801af4 <roundf+0x50>

00801b40 <sinf>:
  801b40:	00a00034 	movhi	r2,32768
  801b44:	10bfffc4 	addi	r2,r2,-1
  801b48:	defffd04 	addi	sp,sp,-12
  801b4c:	110c703a 	and	r6,r2,r4
  801b50:	00cfd274 	movhi	r3,16201
  801b54:	18c3f604 	addi	r3,r3,4056
  801b58:	dfc00215 	stw	ra,8(sp)
  801b5c:	200b883a 	mov	r5,r4
  801b60:	1980130e 	bge	r3,r6,801bb0 <sinf+0x70>
  801b64:	009fe034 	movhi	r2,32640
  801b68:	10bfffc4 	addi	r2,r2,-1
  801b6c:	1180040e 	bge	r2,r6,801b80 <sinf+0x40>
  801b70:	080339c0 	call	80339c <__subsf3>
  801b74:	dfc00217 	ldw	ra,8(sp)
  801b78:	dec00304 	addi	sp,sp,12
  801b7c:	f800283a 	ret
  801b80:	d80b883a 	mov	r5,sp
  801b84:	0801c000 	call	801c00 <__ieee754_rem_pio2f>
  801b88:	10c000cc 	andi	r3,r2,3
  801b8c:	01800044 	movi	r6,1
  801b90:	19800d26 	beq	r3,r6,801bc8 <sinf+0x88>
  801b94:	00800084 	movi	r2,2
  801b98:	18801426 	beq	r3,r2,801bec <sinf+0xac>
  801b9c:	18000e1e 	bne	r3,zero,801bd8 <sinf+0x98>
  801ba0:	d9000017 	ldw	r4,0(sp)
  801ba4:	d9400117 	ldw	r5,4(sp)
  801ba8:	0802e880 	call	802e88 <__kernel_sinf>
  801bac:	003ff106 	br	801b74 <sinf+0x34>
  801bb0:	000b883a 	mov	r5,zero
  801bb4:	000d883a 	mov	r6,zero
  801bb8:	0802e880 	call	802e88 <__kernel_sinf>
  801bbc:	dfc00217 	ldw	ra,8(sp)
  801bc0:	dec00304 	addi	sp,sp,12
  801bc4:	f800283a 	ret
  801bc8:	d9000017 	ldw	r4,0(sp)
  801bcc:	d9400117 	ldw	r5,4(sp)
  801bd0:	080213c0 	call	80213c <__kernel_cosf>
  801bd4:	003fe706 	br	801b74 <sinf+0x34>
  801bd8:	d9000017 	ldw	r4,0(sp)
  801bdc:	d9400117 	ldw	r5,4(sp)
  801be0:	080213c0 	call	80213c <__kernel_cosf>
  801be4:	10a0003c 	xorhi	r2,r2,32768
  801be8:	003fe206 	br	801b74 <sinf+0x34>
  801bec:	d9000017 	ldw	r4,0(sp)
  801bf0:	d9400117 	ldw	r5,4(sp)
  801bf4:	0802e880 	call	802e88 <__kernel_sinf>
  801bf8:	10a0003c 	xorhi	r2,r2,32768
  801bfc:	003fdd06 	br	801b74 <sinf+0x34>

00801c00 <__ieee754_rem_pio2f>:
  801c00:	defff104 	addi	sp,sp,-60
  801c04:	00a00034 	movhi	r2,32768
  801c08:	10bfffc4 	addi	r2,r2,-1
  801c0c:	dcc00815 	stw	r19,32(sp)
  801c10:	20a6703a 	and	r19,r4,r2
  801c14:	008fd274 	movhi	r2,16201
  801c18:	1083f604 	addi	r2,r2,4056
  801c1c:	dd800b15 	stw	r22,44(sp)
  801c20:	dd000915 	stw	r20,36(sp)
  801c24:	dfc00e15 	stw	ra,56(sp)
  801c28:	df000d15 	stw	fp,52(sp)
  801c2c:	ddc00c15 	stw	r23,48(sp)
  801c30:	dd400a15 	stw	r21,40(sp)
  801c34:	dc800715 	stw	r18,28(sp)
  801c38:	dc400615 	stw	r17,24(sp)
  801c3c:	dc000515 	stw	r16,20(sp)
  801c40:	202d883a 	mov	r22,r4
  801c44:	2829883a 	mov	r20,r5
  801c48:	14c01016 	blt	r2,r19,801c8c <__ieee754_rem_pio2f+0x8c>
  801c4c:	a1000015 	stw	r4,0(r20)
  801c50:	002b883a 	mov	r21,zero
  801c54:	28000115 	stw	zero,4(r5)
  801c58:	a805883a 	mov	r2,r21
  801c5c:	dfc00e17 	ldw	ra,56(sp)
  801c60:	df000d17 	ldw	fp,52(sp)
  801c64:	ddc00c17 	ldw	r23,48(sp)
  801c68:	dd800b17 	ldw	r22,44(sp)
  801c6c:	dd400a17 	ldw	r21,40(sp)
  801c70:	dd000917 	ldw	r20,36(sp)
  801c74:	dcc00817 	ldw	r19,32(sp)
  801c78:	dc800717 	ldw	r18,28(sp)
  801c7c:	dc400617 	ldw	r17,24(sp)
  801c80:	dc000517 	ldw	r16,20(sp)
  801c84:	dec00f04 	addi	sp,sp,60
  801c88:	f800283a 	ret
  801c8c:	009005f4 	movhi	r2,16407
  801c90:	10b2f8c4 	addi	r2,r2,-13341
  801c94:	14c00c0e 	bge	r2,r19,801cc8 <__ieee754_rem_pio2f+0xc8>
  801c98:	0090d274 	movhi	r2,17225
  801c9c:	1083e004 	addi	r2,r2,3968
  801ca0:	14c0220e 	bge	r2,r19,801d2c <__ieee754_rem_pio2f+0x12c>
  801ca4:	009fe034 	movhi	r2,32640
  801ca8:	10bfffc4 	addi	r2,r2,-1
  801cac:	14c0930e 	bge	r2,r19,801efc <__ieee754_rem_pio2f+0x2fc>
  801cb0:	200b883a 	mov	r5,r4
  801cb4:	080339c0 	call	80339c <__subsf3>
  801cb8:	002b883a 	mov	r21,zero
  801cbc:	a0800015 	stw	r2,0(r20)
  801cc0:	a0800115 	stw	r2,4(r20)
  801cc4:	003fe406 	br	801c58 <__ieee754_rem_pio2f+0x58>
  801cc8:	0100740e 	bge	zero,r4,801e9c <__ieee754_rem_pio2f+0x29c>
  801ccc:	014ff274 	movhi	r5,16329
  801cd0:	2943e004 	addi	r5,r5,3968
  801cd4:	080339c0 	call	80339c <__subsf3>
  801cd8:	1023883a 	mov	r17,r2
  801cdc:	00bffc04 	movi	r2,-16
  801ce0:	9884703a 	and	r2,r19,r2
  801ce4:	00cff274 	movhi	r3,16329
  801ce8:	18c3f404 	addi	r3,r3,4048
  801cec:	10c0c026 	beq	r2,r3,801ff0 <__ieee754_rem_pio2f+0x3f0>
  801cf0:	040dcd74 	movhi	r16,14133
  801cf4:	841110c4 	addi	r16,r16,17475
  801cf8:	8809883a 	mov	r4,r17
  801cfc:	800b883a 	mov	r5,r16
  801d00:	080339c0 	call	80339c <__subsf3>
  801d04:	100b883a 	mov	r5,r2
  801d08:	8809883a 	mov	r4,r17
  801d0c:	a0800015 	stw	r2,0(r20)
  801d10:	080339c0 	call	80339c <__subsf3>
  801d14:	1009883a 	mov	r4,r2
  801d18:	800b883a 	mov	r5,r16
  801d1c:	080339c0 	call	80339c <__subsf3>
  801d20:	05400044 	movi	r21,1
  801d24:	a0800115 	stw	r2,4(r20)
  801d28:	003fcb06 	br	801c58 <__ieee754_rem_pio2f+0x58>
  801d2c:	08030440 	call	803044 <fabsf>
  801d30:	1009883a 	mov	r4,r2
  801d34:	014fc8f4 	movhi	r5,16163
  801d38:	297e6104 	addi	r5,r5,-1660
  801d3c:	1023883a 	mov	r17,r2
  801d40:	08034700 	call	803470 <__mulsf3>
  801d44:	1009883a 	mov	r4,r2
  801d48:	014fc034 	movhi	r5,16128
  801d4c:	080340c0 	call	80340c <__addsf3>
  801d50:	1009883a 	mov	r4,r2
  801d54:	08039400 	call	803940 <__fixsfsi>
  801d58:	1009883a 	mov	r4,r2
  801d5c:	102b883a 	mov	r21,r2
  801d60:	08038a80 	call	8038a8 <__floatsisf>
  801d64:	1009883a 	mov	r4,r2
  801d68:	016ff274 	movhi	r5,49097
  801d6c:	2943e004 	addi	r5,r5,3968
  801d70:	1021883a 	mov	r16,r2
  801d74:	08034700 	call	803470 <__mulsf3>
  801d78:	100b883a 	mov	r5,r2
  801d7c:	8809883a 	mov	r4,r17
  801d80:	080340c0 	call	80340c <__addsf3>
  801d84:	014dcd74 	movhi	r5,14133
  801d88:	295110c4 	addi	r5,r5,17475
  801d8c:	8009883a 	mov	r4,r16
  801d90:	102f883a 	mov	r23,r2
  801d94:	08034700 	call	803470 <__mulsf3>
  801d98:	100b883a 	mov	r5,r2
  801d9c:	1023883a 	mov	r17,r2
  801da0:	008007c4 	movi	r2,31
  801da4:	8039883a 	mov	fp,r16
  801da8:	b825883a 	mov	r18,r23
  801dac:	1540a40e 	bge	r2,r21,802040 <__ieee754_rem_pio2f+0x440>
  801db0:	9009883a 	mov	r4,r18
  801db4:	880b883a 	mov	r5,r17
  801db8:	080339c0 	call	80339c <__subsf3>
  801dbc:	1006d5fa 	srli	r3,r2,23
  801dc0:	982fd5fa 	srai	r23,r19,23
  801dc4:	a0800015 	stw	r2,0(r20)
  801dc8:	18c03fcc 	andi	r3,r3,255
  801dcc:	b8c7c83a 	sub	r3,r23,r3
  801dd0:	00800204 	movi	r2,8
  801dd4:	10c0220e 	bge	r2,r3,801e60 <__ieee754_rem_pio2f+0x260>
  801dd8:	e009883a 	mov	r4,fp
  801ddc:	014dcd74 	movhi	r5,14133
  801de0:	29510004 	addi	r5,r5,17408
  801de4:	08034700 	call	803470 <__mulsf3>
  801de8:	100b883a 	mov	r5,r2
  801dec:	9009883a 	mov	r4,r18
  801df0:	1023883a 	mov	r17,r2
  801df4:	080339c0 	call	80339c <__subsf3>
  801df8:	1027883a 	mov	r19,r2
  801dfc:	e009883a 	mov	r4,fp
  801e00:	014ba1b4 	movhi	r5,11910
  801e04:	2968c204 	addi	r5,r5,-23800
  801e08:	08034700 	call	803470 <__mulsf3>
  801e0c:	9009883a 	mov	r4,r18
  801e10:	980b883a 	mov	r5,r19
  801e14:	1021883a 	mov	r16,r2
  801e18:	080339c0 	call	80339c <__subsf3>
  801e1c:	1009883a 	mov	r4,r2
  801e20:	880b883a 	mov	r5,r17
  801e24:	080339c0 	call	80339c <__subsf3>
  801e28:	100b883a 	mov	r5,r2
  801e2c:	8009883a 	mov	r4,r16
  801e30:	080339c0 	call	80339c <__subsf3>
  801e34:	100b883a 	mov	r5,r2
  801e38:	9809883a 	mov	r4,r19
  801e3c:	1023883a 	mov	r17,r2
  801e40:	080339c0 	call	80339c <__subsf3>
  801e44:	1006d5fa 	srli	r3,r2,23
  801e48:	a0800015 	stw	r2,0(r20)
  801e4c:	00800644 	movi	r2,25
  801e50:	18c03fcc 	andi	r3,r3,255
  801e54:	b8c7c83a 	sub	r3,r23,r3
  801e58:	10c09a16 	blt	r2,r3,8020c4 <__ieee754_rem_pio2f+0x4c4>
  801e5c:	9825883a 	mov	r18,r19
  801e60:	a1400017 	ldw	r5,0(r20)
  801e64:	9009883a 	mov	r4,r18
  801e68:	080339c0 	call	80339c <__subsf3>
  801e6c:	1009883a 	mov	r4,r2
  801e70:	880b883a 	mov	r5,r17
  801e74:	080339c0 	call	80339c <__subsf3>
  801e78:	a0800115 	stw	r2,4(r20)
  801e7c:	b03f760e 	bge	r22,zero,801c58 <__ieee754_rem_pio2f+0x58>
  801e80:	a0c00017 	ldw	r3,0(r20)
  801e84:	10a0003c 	xorhi	r2,r2,32768
  801e88:	056bc83a 	sub	r21,zero,r21
  801e8c:	18e0003c 	xorhi	r3,r3,32768
  801e90:	a0800115 	stw	r2,4(r20)
  801e94:	a0c00015 	stw	r3,0(r20)
  801e98:	003f6f06 	br	801c58 <__ieee754_rem_pio2f+0x58>
  801e9c:	014ff274 	movhi	r5,16329
  801ea0:	2943e004 	addi	r5,r5,3968
  801ea4:	080340c0 	call	80340c <__addsf3>
  801ea8:	1023883a 	mov	r17,r2
  801eac:	00bffc04 	movi	r2,-16
  801eb0:	9884703a 	and	r2,r19,r2
  801eb4:	00cff274 	movhi	r3,16329
  801eb8:	18c3f404 	addi	r3,r3,4048
  801ebc:	10c06d26 	beq	r2,r3,802074 <__ieee754_rem_pio2f+0x474>
  801ec0:	040dcd74 	movhi	r16,14133
  801ec4:	841110c4 	addi	r16,r16,17475
  801ec8:	8809883a 	mov	r4,r17
  801ecc:	800b883a 	mov	r5,r16
  801ed0:	080340c0 	call	80340c <__addsf3>
  801ed4:	100b883a 	mov	r5,r2
  801ed8:	8809883a 	mov	r4,r17
  801edc:	a0800015 	stw	r2,0(r20)
  801ee0:	080339c0 	call	80339c <__subsf3>
  801ee4:	1009883a 	mov	r4,r2
  801ee8:	800b883a 	mov	r5,r16
  801eec:	080340c0 	call	80340c <__addsf3>
  801ef0:	057fffc4 	movi	r21,-1
  801ef4:	a0800115 	stw	r2,4(r20)
  801ef8:	003f5706 	br	801c58 <__ieee754_rem_pio2f+0x58>
  801efc:	9805d5fa 	srai	r2,r19,23
  801f00:	0490e034 	movhi	r18,17280
  801f04:	054000c4 	movi	r21,3
  801f08:	15ffde84 	addi	r23,r2,-134
  801f0c:	b82295fa 	slli	r17,r23,23
  801f10:	9c63c83a 	sub	r17,r19,r17
  801f14:	8809883a 	mov	r4,r17
  801f18:	08039400 	call	803940 <__fixsfsi>
  801f1c:	1009883a 	mov	r4,r2
  801f20:	08038a80 	call	8038a8 <__floatsisf>
  801f24:	100b883a 	mov	r5,r2
  801f28:	8809883a 	mov	r4,r17
  801f2c:	d8800215 	stw	r2,8(sp)
  801f30:	080339c0 	call	80339c <__subsf3>
  801f34:	1009883a 	mov	r4,r2
  801f38:	900b883a 	mov	r5,r18
  801f3c:	08034700 	call	803470 <__mulsf3>
  801f40:	1009883a 	mov	r4,r2
  801f44:	1021883a 	mov	r16,r2
  801f48:	08039400 	call	803940 <__fixsfsi>
  801f4c:	1009883a 	mov	r4,r2
  801f50:	08038a80 	call	8038a8 <__floatsisf>
  801f54:	100b883a 	mov	r5,r2
  801f58:	8009883a 	mov	r4,r16
  801f5c:	d8800315 	stw	r2,12(sp)
  801f60:	080339c0 	call	80339c <__subsf3>
  801f64:	1009883a 	mov	r4,r2
  801f68:	900b883a 	mov	r5,r18
  801f6c:	08034700 	call	803470 <__mulsf3>
  801f70:	d8800415 	stw	r2,16(sp)
  801f74:	00000106 	br	801f7c <__ieee754_rem_pio2f+0x37c>
  801f78:	802b883a 	mov	r21,r16
  801f7c:	ac3fffc4 	addi	r16,r21,-1
  801f80:	8405883a 	add	r2,r16,r16
  801f84:	1085883a 	add	r2,r2,r2
  801f88:	d8c00204 	addi	r3,sp,8
  801f8c:	10c5883a 	add	r2,r2,r3
  801f90:	11000017 	ldw	r4,0(r2)
  801f94:	000b883a 	mov	r5,zero
  801f98:	08036500 	call	803650 <__eqsf2>
  801f9c:	103ff626 	beq	r2,zero,801f78 <__ieee754_rem_pio2f+0x378>
  801fa0:	a80f883a 	mov	r7,r21
  801fa4:	00800084 	movi	r2,2
  801fa8:	00c02074 	movhi	r3,129
  801fac:	18c62704 	addi	r3,r3,6300
  801fb0:	b80d883a 	mov	r6,r23
  801fb4:	d9000204 	addi	r4,sp,8
  801fb8:	a00b883a 	mov	r5,r20
  801fbc:	d8800015 	stw	r2,0(sp)
  801fc0:	d8c00115 	stw	r3,4(sp)
  801fc4:	08023f80 	call	8023f8 <__kernel_rem_pio2f>
  801fc8:	102b883a 	mov	r21,r2
  801fcc:	b03f220e 	bge	r22,zero,801c58 <__ieee754_rem_pio2f+0x58>
  801fd0:	a0c00017 	ldw	r3,0(r20)
  801fd4:	a0800117 	ldw	r2,4(r20)
  801fd8:	056bc83a 	sub	r21,zero,r21
  801fdc:	18e0003c 	xorhi	r3,r3,32768
  801fe0:	10a0003c 	xorhi	r2,r2,32768
  801fe4:	a0800115 	stw	r2,4(r20)
  801fe8:	a0c00015 	stw	r3,0(r20)
  801fec:	003f1a06 	br	801c58 <__ieee754_rem_pio2f+0x58>
  801ff0:	8809883a 	mov	r4,r17
  801ff4:	014dcd74 	movhi	r5,14133
  801ff8:	29510004 	addi	r5,r5,17408
  801ffc:	080339c0 	call	80339c <__subsf3>
  802000:	044ba1b4 	movhi	r17,11910
  802004:	8c68c204 	addi	r17,r17,-23800
  802008:	1009883a 	mov	r4,r2
  80200c:	880b883a 	mov	r5,r17
  802010:	1021883a 	mov	r16,r2
  802014:	080339c0 	call	80339c <__subsf3>
  802018:	100b883a 	mov	r5,r2
  80201c:	8009883a 	mov	r4,r16
  802020:	a0800015 	stw	r2,0(r20)
  802024:	080339c0 	call	80339c <__subsf3>
  802028:	1009883a 	mov	r4,r2
  80202c:	880b883a 	mov	r5,r17
  802030:	080339c0 	call	80339c <__subsf3>
  802034:	05400044 	movi	r21,1
  802038:	a0800115 	stw	r2,4(r20)
  80203c:	003f0606 	br	801c58 <__ieee754_rem_pio2f+0x58>
  802040:	ad47883a 	add	r3,r21,r21
  802044:	00802074 	movhi	r2,129
  802048:	10860704 	addi	r2,r2,6172
  80204c:	18c7883a 	add	r3,r3,r3
  802050:	1887883a 	add	r3,r3,r2
  802054:	193fff17 	ldw	r4,-4(r3)
  802058:	00bfc004 	movi	r2,-256
  80205c:	9884703a 	and	r2,r19,r2
  802060:	113f5326 	beq	r2,r4,801db0 <__ieee754_rem_pio2f+0x1b0>
  802064:	b809883a 	mov	r4,r23
  802068:	080339c0 	call	80339c <__subsf3>
  80206c:	a0800015 	stw	r2,0(r20)
  802070:	003f7b06 	br	801e60 <__ieee754_rem_pio2f+0x260>
  802074:	8809883a 	mov	r4,r17
  802078:	014dcd74 	movhi	r5,14133
  80207c:	29510004 	addi	r5,r5,17408
  802080:	080340c0 	call	80340c <__addsf3>
  802084:	044ba1b4 	movhi	r17,11910
  802088:	8c68c204 	addi	r17,r17,-23800
  80208c:	1009883a 	mov	r4,r2
  802090:	880b883a 	mov	r5,r17
  802094:	1021883a 	mov	r16,r2
  802098:	080340c0 	call	80340c <__addsf3>
  80209c:	100b883a 	mov	r5,r2
  8020a0:	8009883a 	mov	r4,r16
  8020a4:	a0800015 	stw	r2,0(r20)
  8020a8:	080339c0 	call	80339c <__subsf3>
  8020ac:	1009883a 	mov	r4,r2
  8020b0:	880b883a 	mov	r5,r17
  8020b4:	080340c0 	call	80340c <__addsf3>
  8020b8:	057fffc4 	movi	r21,-1
  8020bc:	a0800115 	stw	r2,4(r20)
  8020c0:	003ee506 	br	801c58 <__ieee754_rem_pio2f+0x58>
  8020c4:	e009883a 	mov	r4,fp
  8020c8:	014ba1b4 	movhi	r5,11910
  8020cc:	2968c004 	addi	r5,r5,-23808
  8020d0:	08034700 	call	803470 <__mulsf3>
  8020d4:	100b883a 	mov	r5,r2
  8020d8:	9809883a 	mov	r4,r19
  8020dc:	1025883a 	mov	r18,r2
  8020e0:	080339c0 	call	80339c <__subsf3>
  8020e4:	1021883a 	mov	r16,r2
  8020e8:	e009883a 	mov	r4,fp
  8020ec:	01492374 	movhi	r5,9357
  8020f0:	294c4c84 	addi	r5,r5,12594
  8020f4:	08034700 	call	803470 <__mulsf3>
  8020f8:	9809883a 	mov	r4,r19
  8020fc:	800b883a 	mov	r5,r16
  802100:	1023883a 	mov	r17,r2
  802104:	080339c0 	call	80339c <__subsf3>
  802108:	1009883a 	mov	r4,r2
  80210c:	900b883a 	mov	r5,r18
  802110:	080339c0 	call	80339c <__subsf3>
  802114:	100b883a 	mov	r5,r2
  802118:	8809883a 	mov	r4,r17
  80211c:	080339c0 	call	80339c <__subsf3>
  802120:	100b883a 	mov	r5,r2
  802124:	8009883a 	mov	r4,r16
  802128:	1023883a 	mov	r17,r2
  80212c:	8025883a 	mov	r18,r16
  802130:	080339c0 	call	80339c <__subsf3>
  802134:	a0800015 	stw	r2,0(r20)
  802138:	003f4906 	br	801e60 <__ieee754_rem_pio2f+0x260>

0080213c <__kernel_cosf>:
  80213c:	defff904 	addi	sp,sp,-28
  802140:	00a00034 	movhi	r2,32768
  802144:	10bfffc4 	addi	r2,r2,-1
  802148:	dc400115 	stw	r17,4(sp)
  80214c:	1122703a 	and	r17,r2,r4
  802150:	008c8034 	movhi	r2,12800
  802154:	10bfffc4 	addi	r2,r2,-1
  802158:	dd400515 	stw	r21,20(sp)
  80215c:	dcc00315 	stw	r19,12(sp)
  802160:	dfc00615 	stw	ra,24(sp)
  802164:	dd000415 	stw	r20,16(sp)
  802168:	dc800215 	stw	r18,8(sp)
  80216c:	dc000015 	stw	r16,0(sp)
  802170:	2027883a 	mov	r19,r4
  802174:	282b883a 	mov	r21,r5
  802178:	14404b16 	blt	r2,r17,8022a8 <__kernel_cosf+0x16c>
  80217c:	08039400 	call	803940 <__fixsfsi>
  802180:	10009326 	beq	r2,zero,8023d0 <__kernel_cosf+0x294>
  802184:	9809883a 	mov	r4,r19
  802188:	980b883a 	mov	r5,r19
  80218c:	08034700 	call	803470 <__mulsf3>
  802190:	1009883a 	mov	r4,r2
  802194:	016b5234 	movhi	r5,44360
  802198:	2975d384 	addi	r5,r5,-10418
  80219c:	1021883a 	mov	r16,r2
  8021a0:	08034700 	call	803470 <__mulsf3>
  8021a4:	1009883a 	mov	r4,r2
  8021a8:	014c43f4 	movhi	r5,12559
  8021ac:	295d3d84 	addi	r5,r5,29942
  8021b0:	080340c0 	call	80340c <__addsf3>
  8021b4:	100b883a 	mov	r5,r2
  8021b8:	8009883a 	mov	r4,r16
  8021bc:	08034700 	call	803470 <__mulsf3>
  8021c0:	1009883a 	mov	r4,r2
  8021c4:	014d2534 	movhi	r5,13460
  8021c8:	297c9f04 	addi	r5,r5,-3460
  8021cc:	080339c0 	call	80339c <__subsf3>
  8021d0:	100b883a 	mov	r5,r2
  8021d4:	8009883a 	mov	r4,r16
  8021d8:	08034700 	call	803470 <__mulsf3>
  8021dc:	1009883a 	mov	r4,r2
  8021e0:	014df434 	movhi	r5,14288
  8021e4:	29434044 	addi	r5,r5,3329
  8021e8:	080340c0 	call	80340c <__addsf3>
  8021ec:	100b883a 	mov	r5,r2
  8021f0:	8009883a 	mov	r4,r16
  8021f4:	08034700 	call	803470 <__mulsf3>
  8021f8:	1009883a 	mov	r4,r2
  8021fc:	014eadb4 	movhi	r5,15030
  802200:	2942d844 	addi	r5,r5,2913
  802204:	080339c0 	call	80339c <__subsf3>
  802208:	100b883a 	mov	r5,r2
  80220c:	8009883a 	mov	r4,r16
  802210:	08034700 	call	803470 <__mulsf3>
  802214:	1009883a 	mov	r4,r2
  802218:	014f4af4 	movhi	r5,15659
  80221c:	296aaac4 	addi	r5,r5,-21845
  802220:	080340c0 	call	80340c <__addsf3>
  802224:	100b883a 	mov	r5,r2
  802228:	8009883a 	mov	r4,r16
  80222c:	08034700 	call	803470 <__mulsf3>
  802230:	1025883a 	mov	r18,r2
  802234:	8009883a 	mov	r4,r16
  802238:	014fc034 	movhi	r5,16128
  80223c:	08034700 	call	803470 <__mulsf3>
  802240:	8009883a 	mov	r4,r16
  802244:	900b883a 	mov	r5,r18
  802248:	1023883a 	mov	r17,r2
  80224c:	08034700 	call	803470 <__mulsf3>
  802250:	9809883a 	mov	r4,r19
  802254:	a80b883a 	mov	r5,r21
  802258:	1021883a 	mov	r16,r2
  80225c:	08034700 	call	803470 <__mulsf3>
  802260:	100b883a 	mov	r5,r2
  802264:	8009883a 	mov	r4,r16
  802268:	080339c0 	call	80339c <__subsf3>
  80226c:	100b883a 	mov	r5,r2
  802270:	8809883a 	mov	r4,r17
  802274:	080339c0 	call	80339c <__subsf3>
  802278:	100b883a 	mov	r5,r2
  80227c:	010fe034 	movhi	r4,16256
  802280:	080339c0 	call	80339c <__subsf3>
  802284:	dfc00617 	ldw	ra,24(sp)
  802288:	dd400517 	ldw	r21,20(sp)
  80228c:	dd000417 	ldw	r20,16(sp)
  802290:	dcc00317 	ldw	r19,12(sp)
  802294:	dc800217 	ldw	r18,8(sp)
  802298:	dc400117 	ldw	r17,4(sp)
  80229c:	dc000017 	ldw	r16,0(sp)
  8022a0:	dec00704 	addi	sp,sp,28
  8022a4:	f800283a 	ret
  8022a8:	200b883a 	mov	r5,r4
  8022ac:	08034700 	call	803470 <__mulsf3>
  8022b0:	1009883a 	mov	r4,r2
  8022b4:	016b5234 	movhi	r5,44360
  8022b8:	2975d384 	addi	r5,r5,-10418
  8022bc:	1021883a 	mov	r16,r2
  8022c0:	08034700 	call	803470 <__mulsf3>
  8022c4:	1009883a 	mov	r4,r2
  8022c8:	014c43f4 	movhi	r5,12559
  8022cc:	295d3d84 	addi	r5,r5,29942
  8022d0:	080340c0 	call	80340c <__addsf3>
  8022d4:	100b883a 	mov	r5,r2
  8022d8:	8009883a 	mov	r4,r16
  8022dc:	08034700 	call	803470 <__mulsf3>
  8022e0:	1009883a 	mov	r4,r2
  8022e4:	014d2534 	movhi	r5,13460
  8022e8:	297c9f04 	addi	r5,r5,-3460
  8022ec:	080339c0 	call	80339c <__subsf3>
  8022f0:	100b883a 	mov	r5,r2
  8022f4:	8009883a 	mov	r4,r16
  8022f8:	08034700 	call	803470 <__mulsf3>
  8022fc:	1009883a 	mov	r4,r2
  802300:	014df434 	movhi	r5,14288
  802304:	29434044 	addi	r5,r5,3329
  802308:	080340c0 	call	80340c <__addsf3>
  80230c:	100b883a 	mov	r5,r2
  802310:	8009883a 	mov	r4,r16
  802314:	08034700 	call	803470 <__mulsf3>
  802318:	1009883a 	mov	r4,r2
  80231c:	014eadb4 	movhi	r5,15030
  802320:	2942d844 	addi	r5,r5,2913
  802324:	080339c0 	call	80339c <__subsf3>
  802328:	100b883a 	mov	r5,r2
  80232c:	8009883a 	mov	r4,r16
  802330:	08034700 	call	803470 <__mulsf3>
  802334:	1009883a 	mov	r4,r2
  802338:	014f4af4 	movhi	r5,15659
  80233c:	296aaac4 	addi	r5,r5,-21845
  802340:	080340c0 	call	80340c <__addsf3>
  802344:	100b883a 	mov	r5,r2
  802348:	8009883a 	mov	r4,r16
  80234c:	08034700 	call	803470 <__mulsf3>
  802350:	1025883a 	mov	r18,r2
  802354:	008fa6b4 	movhi	r2,16026
  802358:	10a66644 	addi	r2,r2,-26215
  80235c:	147fb50e 	bge	r2,r17,802234 <__kernel_cosf+0xf8>
  802360:	008fd234 	movhi	r2,16200
  802364:	14401c0e 	bge	r2,r17,8023d8 <__kernel_cosf+0x29c>
  802368:	044fa434 	movhi	r17,16016
  80236c:	050fce34 	movhi	r20,16184
  802370:	8009883a 	mov	r4,r16
  802374:	014fc034 	movhi	r5,16128
  802378:	08034700 	call	803470 <__mulsf3>
  80237c:	1009883a 	mov	r4,r2
  802380:	880b883a 	mov	r5,r17
  802384:	080339c0 	call	80339c <__subsf3>
  802388:	8009883a 	mov	r4,r16
  80238c:	900b883a 	mov	r5,r18
  802390:	1023883a 	mov	r17,r2
  802394:	08034700 	call	803470 <__mulsf3>
  802398:	9809883a 	mov	r4,r19
  80239c:	a80b883a 	mov	r5,r21
  8023a0:	1021883a 	mov	r16,r2
  8023a4:	08034700 	call	803470 <__mulsf3>
  8023a8:	100b883a 	mov	r5,r2
  8023ac:	8009883a 	mov	r4,r16
  8023b0:	080339c0 	call	80339c <__subsf3>
  8023b4:	100b883a 	mov	r5,r2
  8023b8:	8809883a 	mov	r4,r17
  8023bc:	080339c0 	call	80339c <__subsf3>
  8023c0:	100b883a 	mov	r5,r2
  8023c4:	a009883a 	mov	r4,r20
  8023c8:	080339c0 	call	80339c <__subsf3>
  8023cc:	003fad06 	br	802284 <__kernel_cosf+0x148>
  8023d0:	008fe034 	movhi	r2,16256
  8023d4:	003fab06 	br	802284 <__kernel_cosf+0x148>
  8023d8:	00bfc034 	movhi	r2,65280
  8023dc:	8885883a 	add	r2,r17,r2
  8023e0:	100b883a 	mov	r5,r2
  8023e4:	010fe034 	movhi	r4,16256
  8023e8:	1023883a 	mov	r17,r2
  8023ec:	080339c0 	call	80339c <__subsf3>
  8023f0:	1029883a 	mov	r20,r2
  8023f4:	003fde06 	br	802370 <__kernel_cosf+0x234>

008023f8 <__kernel_rem_pio2f>:
  8023f8:	deff9804 	addi	sp,sp,-416
  8023fc:	d8806817 	ldw	r2,416(sp)
  802400:	ddc06515 	stw	r23,404(sp)
  802404:	dfc06715 	stw	ra,412(sp)
  802408:	1087883a 	add	r3,r2,r2
  80240c:	18c7883a 	add	r3,r3,r3
  802410:	00802074 	movhi	r2,129
  802414:	1086ed04 	addi	r2,r2,7092
  802418:	1887883a 	add	r3,r3,r2
  80241c:	1dc00017 	ldw	r23,0(r3)
  802420:	30bfff44 	addi	r2,r6,-3
  802424:	38ffffc4 	addi	r3,r7,-1
  802428:	df006615 	stw	fp,408(sp)
  80242c:	dd806415 	stw	r22,400(sp)
  802430:	dd406315 	stw	r21,396(sp)
  802434:	dd006215 	stw	r20,392(sp)
  802438:	dcc06115 	stw	r19,388(sp)
  80243c:	dc806015 	stw	r18,384(sp)
  802440:	dc405f15 	stw	r17,380(sp)
  802444:	dc005e15 	stw	r16,376(sp)
  802448:	d9c05915 	stw	r7,356(sp)
  80244c:	d9005715 	stw	r4,348(sp)
  802450:	d9405815 	stw	r5,352(sp)
  802454:	d8c05615 	stw	r3,344(sp)
  802458:	10024716 	blt	r2,zero,802d78 <__kernel_rem_pio2f+0x980>
  80245c:	1005d0fa 	srai	r2,r2,3
  802460:	d8805015 	stw	r2,320(sp)
  802464:	10024816 	blt	r2,zero,802d88 <__kernel_rem_pio2f+0x990>
  802468:	d9005017 	ldw	r4,320(sp)
  80246c:	d9405617 	ldw	r5,344(sp)
  802470:	20bffe24 	muli	r2,r4,-8
  802474:	b947883a 	add	r3,r23,r5
  802478:	3085883a 	add	r2,r6,r2
  80247c:	173ffe04 	addi	fp,r2,-8
  802480:	18001116 	blt	r3,zero,8024c8 <__kernel_rem_pio2f+0xd0>
  802484:	2161c83a 	sub	r16,r4,r5
  802488:	d9c06917 	ldw	r7,420(sp)
  80248c:	8405883a 	add	r2,r16,r16
  802490:	1085883a 	add	r2,r2,r2
  802494:	38a3883a 	add	r17,r7,r2
  802498:	80e7883a 	add	r19,r16,r3
  80249c:	dc801404 	addi	r18,sp,80
  8024a0:	00000106 	br	8024a8 <__kernel_rem_pio2f+0xb0>
  8024a4:	84000044 	addi	r16,r16,1
  8024a8:	0005883a 	mov	r2,zero
  8024ac:	80000216 	blt	r16,zero,8024b8 <__kernel_rem_pio2f+0xc0>
  8024b0:	89000017 	ldw	r4,0(r17)
  8024b4:	08038a80 	call	8038a8 <__floatsisf>
  8024b8:	90800015 	stw	r2,0(r18)
  8024bc:	8c400104 	addi	r17,r17,4
  8024c0:	94800104 	addi	r18,r18,4
  8024c4:	84fff71e 	bne	r16,r19,8024a4 <__kernel_rem_pio2f+0xac>
  8024c8:	b8001c16 	blt	r23,zero,80253c <__kernel_rem_pio2f+0x144>
  8024cc:	dcc05617 	ldw	r19,344(sp)
  8024d0:	da005917 	ldw	r8,356(sp)
  8024d4:	dd003c04 	addi	r20,sp,240
  8024d8:	982a403a 	cmpge	r21,r19,zero
  8024dc:	ba2d883a 	add	r22,r23,r8
  8024e0:	a801ad26 	beq	r21,zero,802b98 <__kernel_rem_pio2f+0x7a0>
  8024e4:	dc405717 	ldw	r17,348(sp)
  8024e8:	0021883a 	mov	r16,zero
  8024ec:	0025883a 	mov	r18,zero
  8024f0:	9c05c83a 	sub	r2,r19,r16
  8024f4:	1085883a 	add	r2,r2,r2
  8024f8:	1085883a 	add	r2,r2,r2
  8024fc:	16c5883a 	add	r2,r2,sp
  802500:	89000017 	ldw	r4,0(r17)
  802504:	11401417 	ldw	r5,80(r2)
  802508:	84000044 	addi	r16,r16,1
  80250c:	8c400104 	addi	r17,r17,4
  802510:	08034700 	call	803470 <__mulsf3>
  802514:	100b883a 	mov	r5,r2
  802518:	9009883a 	mov	r4,r18
  80251c:	080340c0 	call	80340c <__addsf3>
  802520:	1025883a 	mov	r18,r2
  802524:	d8805917 	ldw	r2,356(sp)
  802528:	143ff11e 	bne	r2,r16,8024f0 <__kernel_rem_pio2f+0xf8>
  80252c:	9cc00044 	addi	r19,r19,1
  802530:	a4800015 	stw	r18,0(r20)
  802534:	a5000104 	addi	r20,r20,4
  802538:	9dbfe91e 	bne	r19,r22,8024e0 <__kernel_rem_pio2f+0xe8>
  80253c:	bdc5883a 	add	r2,r23,r23
  802540:	d9005617 	ldw	r4,344(sp)
  802544:	15c7883a 	add	r3,r2,r23
  802548:	1dc7883a 	add	r3,r3,r23
  80254c:	1085883a 	add	r2,r2,r2
  802550:	2008403a 	cmpge	r4,r4,zero
  802554:	16c5883a 	add	r2,r2,sp
  802558:	1ec7883a 	add	r3,r3,sp
  80255c:	e1400050 	cmplti	r5,fp,1
  802560:	b82d883a 	mov	r22,r23
  802564:	d9005d15 	stw	r4,372(sp)
  802568:	d8805a15 	stw	r2,360(sp)
  80256c:	d8c05c15 	stw	r3,368(sp)
  802570:	d9405b15 	stw	r5,364(sp)
  802574:	b5a3883a 	add	r17,r22,r22
  802578:	8c45883a 	add	r2,r17,r17
  80257c:	16c5883a 	add	r2,r2,sp
  802580:	14803c17 	ldw	r18,240(r2)
  802584:	05801c0e 	bge	zero,r22,8025f8 <__kernel_rem_pio2f+0x200>
  802588:	15003c04 	addi	r20,r2,240
  80258c:	b027883a 	mov	r19,r22
  802590:	d82b883a 	mov	r21,sp
  802594:	014ee034 	movhi	r5,15232
  802598:	9009883a 	mov	r4,r18
  80259c:	08034700 	call	803470 <__mulsf3>
  8025a0:	1009883a 	mov	r4,r2
  8025a4:	08039400 	call	803940 <__fixsfsi>
  8025a8:	1009883a 	mov	r4,r2
  8025ac:	08038a80 	call	8038a8 <__floatsisf>
  8025b0:	1009883a 	mov	r4,r2
  8025b4:	0170e034 	movhi	r5,50048
  8025b8:	1021883a 	mov	r16,r2
  8025bc:	08034700 	call	803470 <__mulsf3>
  8025c0:	1009883a 	mov	r4,r2
  8025c4:	900b883a 	mov	r5,r18
  8025c8:	080340c0 	call	80340c <__addsf3>
  8025cc:	1009883a 	mov	r4,r2
  8025d0:	08039400 	call	803940 <__fixsfsi>
  8025d4:	a8800015 	stw	r2,0(r21)
  8025d8:	a53fff04 	addi	r20,r20,-4
  8025dc:	a1400017 	ldw	r5,0(r20)
  8025e0:	8009883a 	mov	r4,r16
  8025e4:	9cffffc4 	addi	r19,r19,-1
  8025e8:	080340c0 	call	80340c <__addsf3>
  8025ec:	1025883a 	mov	r18,r2
  8025f0:	ad400104 	addi	r21,r21,4
  8025f4:	983fe71e 	bne	r19,zero,802594 <__kernel_rem_pio2f+0x19c>
  8025f8:	9009883a 	mov	r4,r18
  8025fc:	e00b883a 	mov	r5,fp
  802600:	08030540 	call	803054 <scalbnf>
  802604:	1009883a 	mov	r4,r2
  802608:	014f8034 	movhi	r5,15872
  80260c:	1021883a 	mov	r16,r2
  802610:	08034700 	call	803470 <__mulsf3>
  802614:	1009883a 	mov	r4,r2
  802618:	08019900 	call	801990 <floorf>
  80261c:	1009883a 	mov	r4,r2
  802620:	01704034 	movhi	r5,49408
  802624:	08034700 	call	803470 <__mulsf3>
  802628:	100b883a 	mov	r5,r2
  80262c:	8009883a 	mov	r4,r16
  802630:	080340c0 	call	80340c <__addsf3>
  802634:	1009883a 	mov	r4,r2
  802638:	1021883a 	mov	r16,r2
  80263c:	08039400 	call	803940 <__fixsfsi>
  802640:	1009883a 	mov	r4,r2
  802644:	d8805515 	stw	r2,340(sp)
  802648:	08038a80 	call	8038a8 <__floatsisf>
  80264c:	100b883a 	mov	r5,r2
  802650:	8009883a 	mov	r4,r16
  802654:	080339c0 	call	80339c <__subsf3>
  802658:	d9c05b17 	ldw	r7,364(sp)
  80265c:	1027883a 	mov	r19,r2
  802660:	38012b1e 	bne	r7,zero,802b10 <__kernel_rem_pio2f+0x718>
  802664:	b0bfffc4 	addi	r2,r22,-1
  802668:	1085883a 	add	r2,r2,r2
  80266c:	1085883a 	add	r2,r2,r2
  802670:	16c5883a 	add	r2,r2,sp
  802674:	11400017 	ldw	r5,0(r2)
  802678:	00c00204 	movi	r3,8
  80267c:	1f07c83a 	sub	r3,r3,fp
  802680:	28cdd83a 	sra	r6,r5,r3
  802684:	010001c4 	movi	r4,7
  802688:	da005517 	ldw	r8,340(sp)
  80268c:	30c6983a 	sll	r3,r6,r3
  802690:	2709c83a 	sub	r4,r4,fp
  802694:	4191883a 	add	r8,r8,r6
  802698:	28cbc83a 	sub	r5,r5,r3
  80269c:	2909d83a 	sra	r4,r5,r4
  8026a0:	da005515 	stw	r8,340(sp)
  8026a4:	11400015 	stw	r5,0(r2)
  8026a8:	d9005415 	stw	r4,336(sp)
  8026ac:	d8c05417 	ldw	r3,336(sp)
  8026b0:	00c0220e 	bge	zero,r3,80273c <__kernel_rem_pio2f+0x344>
  8026b4:	d9005517 	ldw	r4,340(sp)
  8026b8:	21000044 	addi	r4,r4,1
  8026bc:	d9005515 	stw	r4,340(sp)
  8026c0:	0581450e 	bge	zero,r22,802bd8 <__kernel_rem_pio2f+0x7e0>
  8026c4:	0021883a 	mov	r16,zero
  8026c8:	000b883a 	mov	r5,zero
  8026cc:	d809883a 	mov	r4,sp
  8026d0:	01c04004 	movi	r7,256
  8026d4:	01803fc4 	movi	r6,255
  8026d8:	00000706 	br	8026f8 <__kernel_rem_pio2f+0x300>
  8026dc:	38c5c83a 	sub	r2,r7,r3
  8026e0:	18000226 	beq	r3,zero,8026ec <__kernel_rem_pio2f+0x2f4>
  8026e4:	04000044 	movi	r16,1
  8026e8:	20800015 	stw	r2,0(r4)
  8026ec:	29400044 	addi	r5,r5,1
  8026f0:	21000104 	addi	r4,r4,4
  8026f4:	b1400826 	beq	r22,r5,802718 <__kernel_rem_pio2f+0x320>
  8026f8:	8004c03a 	cmpne	r2,r16,zero
  8026fc:	20c00017 	ldw	r3,0(r4)
  802700:	103ff626 	beq	r2,zero,8026dc <__kernel_rem_pio2f+0x2e4>
  802704:	30c5c83a 	sub	r2,r6,r3
  802708:	29400044 	addi	r5,r5,1
  80270c:	20800015 	stw	r2,0(r4)
  802710:	21000104 	addi	r4,r4,4
  802714:	b17ff81e 	bne	r22,r5,8026f8 <__kernel_rem_pio2f+0x300>
  802718:	d9405b17 	ldw	r5,364(sp)
  80271c:	2800041e 	bne	r5,zero,802730 <__kernel_rem_pio2f+0x338>
  802720:	00800044 	movi	r2,1
  802724:	e0810126 	beq	fp,r2,802b2c <__kernel_rem_pio2f+0x734>
  802728:	00800084 	movi	r2,2
  80272c:	e0810726 	beq	fp,r2,802b4c <__kernel_rem_pio2f+0x754>
  802730:	d9c05417 	ldw	r7,336(sp)
  802734:	00800084 	movi	r2,2
  802738:	38806126 	beq	r7,r2,8028c0 <__kernel_rem_pio2f+0x4c8>
  80273c:	9809883a 	mov	r4,r19
  802740:	000b883a 	mov	r5,zero
  802744:	08036500 	call	803650 <__eqsf2>
  802748:	1000701e 	bne	r2,zero,80290c <__kernel_rem_pio2f+0x514>
  80274c:	b1bfffc4 	addi	r6,r22,-1
  802750:	35c00b16 	blt	r6,r23,802780 <__kernel_rem_pio2f+0x388>
  802754:	3185883a 	add	r2,r6,r6
  802758:	1085883a 	add	r2,r2,r2
  80275c:	16c9883a 	add	r4,r2,sp
  802760:	3007883a 	mov	r3,r6
  802764:	000b883a 	mov	r5,zero
  802768:	20800017 	ldw	r2,0(r4)
  80276c:	18ffffc4 	addi	r3,r3,-1
  802770:	213fff04 	addi	r4,r4,-4
  802774:	288ab03a 	or	r5,r5,r2
  802778:	1dfffb0e 	bge	r3,r23,802768 <__kernel_rem_pio2f+0x370>
  80277c:	2800681e 	bne	r5,zero,802920 <__kernel_rem_pio2f+0x528>
  802780:	da005a17 	ldw	r8,360(sp)
  802784:	40bfff17 	ldw	r2,-4(r8)
  802788:	1000fe1e 	bne	r2,zero,802b84 <__kernel_rem_pio2f+0x78c>
  80278c:	d8805c17 	ldw	r2,368(sp)
  802790:	01000044 	movi	r4,1
  802794:	10ffff04 	addi	r3,r2,-4
  802798:	18ffff04 	addi	r3,r3,-4
  80279c:	18800017 	ldw	r2,0(r3)
  8027a0:	21000044 	addi	r4,r4,1
  8027a4:	103ffc26 	beq	r2,zero,802798 <__kernel_rem_pio2f+0x3a0>
  8027a8:	b12b883a 	add	r21,r22,r4
  8027ac:	b4000044 	addi	r16,r22,1
  8027b0:	ac00020e 	bge	r21,r16,8027bc <__kernel_rem_pio2f+0x3c4>
  8027b4:	a82d883a 	mov	r22,r21
  8027b8:	003f6e06 	br	802574 <__kernel_rem_pio2f+0x17c>
  8027bc:	d8c05017 	ldw	r3,320(sp)
  8027c0:	d9005917 	ldw	r4,356(sp)
  8027c4:	da006917 	ldw	r8,420(sp)
  8027c8:	b0c5883a 	add	r2,r22,r3
  8027cc:	b10f883a 	add	r7,r22,r4
  8027d0:	1085883a 	add	r2,r2,r2
  8027d4:	1085883a 	add	r2,r2,r2
  8027d8:	39cb883a 	add	r5,r7,r7
  8027dc:	840d883a 	add	r6,r16,r16
  8027e0:	4085883a 	add	r2,r8,r2
  8027e4:	294b883a 	add	r5,r5,r5
  8027e8:	318d883a 	add	r6,r6,r6
  8027ec:	d8c01404 	addi	r3,sp,80
  8027f0:	d9003c04 	addi	r4,sp,240
  8027f4:	1947883a 	add	r3,r3,r5
  8027f8:	2189883a 	add	r4,r4,r6
  8027fc:	10800104 	addi	r2,r2,4
  802800:	d8c05215 	stw	r3,328(sp)
  802804:	d9005115 	stw	r4,324(sp)
  802808:	d8805315 	stw	r2,332(sp)
  80280c:	382d883a 	mov	r22,r7
  802810:	d8805317 	ldw	r2,332(sp)
  802814:	11000017 	ldw	r4,0(r2)
  802818:	08038a80 	call	8038a8 <__floatsisf>
  80281c:	d8c05217 	ldw	r3,328(sp)
  802820:	d9005d17 	ldw	r4,372(sp)
  802824:	18800015 	stw	r2,0(r3)
  802828:	20002326 	beq	r4,zero,8028b8 <__kernel_rem_pio2f+0x4c0>
  80282c:	b585883a 	add	r2,r22,r22
  802830:	1585883a 	add	r2,r2,r22
  802834:	1585883a 	add	r2,r2,r22
  802838:	dc405717 	ldw	r17,348(sp)
  80283c:	16c5883a 	add	r2,r2,sp
  802840:	14801404 	addi	r18,r2,80
  802844:	0029883a 	mov	r20,zero
  802848:	0027883a 	mov	r19,zero
  80284c:	89000017 	ldw	r4,0(r17)
  802850:	91400017 	ldw	r5,0(r18)
  802854:	a5000044 	addi	r20,r20,1
  802858:	94bfff04 	addi	r18,r18,-4
  80285c:	08034700 	call	803470 <__mulsf3>
  802860:	100b883a 	mov	r5,r2
  802864:	9809883a 	mov	r4,r19
  802868:	080340c0 	call	80340c <__addsf3>
  80286c:	d9405917 	ldw	r5,356(sp)
  802870:	1027883a 	mov	r19,r2
  802874:	8c400104 	addi	r17,r17,4
  802878:	2d3ff41e 	bne	r5,r20,80284c <__kernel_rem_pio2f+0x454>
  80287c:	d9c05117 	ldw	r7,324(sp)
  802880:	da005317 	ldw	r8,332(sp)
  802884:	d8805217 	ldw	r2,328(sp)
  802888:	3cc00015 	stw	r19,0(r7)
  80288c:	42000104 	addi	r8,r8,4
  802890:	10800104 	addi	r2,r2,4
  802894:	39c00104 	addi	r7,r7,4
  802898:	84000044 	addi	r16,r16,1
  80289c:	da005315 	stw	r8,332(sp)
  8028a0:	d8805215 	stw	r2,328(sp)
  8028a4:	d9c05115 	stw	r7,324(sp)
  8028a8:	b5800044 	addi	r22,r22,1
  8028ac:	ac3fd80e 	bge	r21,r16,802810 <__kernel_rem_pio2f+0x418>
  8028b0:	a82d883a 	mov	r22,r21
  8028b4:	003f2f06 	br	802574 <__kernel_rem_pio2f+0x17c>
  8028b8:	0027883a 	mov	r19,zero
  8028bc:	003fef06 	br	80287c <__kernel_rem_pio2f+0x484>
  8028c0:	050fe034 	movhi	r20,16256
  8028c4:	980b883a 	mov	r5,r19
  8028c8:	a009883a 	mov	r4,r20
  8028cc:	080339c0 	call	80339c <__subsf3>
  8028d0:	1025883a 	mov	r18,r2
  8028d4:	8005003a 	cmpeq	r2,r16,zero
  8028d8:	9027883a 	mov	r19,r18
  8028dc:	103f971e 	bne	r2,zero,80273c <__kernel_rem_pio2f+0x344>
  8028e0:	a009883a 	mov	r4,r20
  8028e4:	e00b883a 	mov	r5,fp
  8028e8:	08030540 	call	803054 <scalbnf>
  8028ec:	100b883a 	mov	r5,r2
  8028f0:	9009883a 	mov	r4,r18
  8028f4:	080339c0 	call	80339c <__subsf3>
  8028f8:	1027883a 	mov	r19,r2
  8028fc:	9809883a 	mov	r4,r19
  802900:	000b883a 	mov	r5,zero
  802904:	08036500 	call	803650 <__eqsf2>
  802908:	103f9026 	beq	r2,zero,80274c <__kernel_rem_pio2f+0x354>
  80290c:	9809883a 	mov	r4,r19
  802910:	000b883a 	mov	r5,zero
  802914:	08036500 	call	803650 <__eqsf2>
  802918:	10011d1e 	bne	r2,zero,802d90 <__kernel_rem_pio2f+0x998>
  80291c:	b1bfffc4 	addi	r6,r22,-1
  802920:	3185883a 	add	r2,r6,r6
  802924:	1085883a 	add	r2,r2,r2
  802928:	16c5883a 	add	r2,r2,sp
  80292c:	10c00017 	ldw	r3,0(r2)
  802930:	e73ffe04 	addi	fp,fp,-8
  802934:	18013c1e 	bne	r3,zero,802e28 <__kernel_rem_pio2f+0xa30>
  802938:	302d883a 	mov	r22,r6
  80293c:	1007883a 	mov	r3,r2
  802940:	18ffff04 	addi	r3,r3,-4
  802944:	18800017 	ldw	r2,0(r3)
  802948:	b5bfffc4 	addi	r22,r22,-1
  80294c:	e73ffe04 	addi	fp,fp,-8
  802950:	103ffb26 	beq	r2,zero,802940 <__kernel_rem_pio2f+0x548>
  802954:	e00b883a 	mov	r5,fp
  802958:	010fe034 	movhi	r4,16256
  80295c:	08030540 	call	803054 <scalbnf>
  802960:	1025883a 	mov	r18,r2
  802964:	b0003416 	blt	r22,zero,802a38 <__kernel_rem_pio2f+0x640>
  802968:	b585883a 	add	r2,r22,r22
  80296c:	1085883a 	add	r2,r2,r2
  802970:	16e1883a 	add	r16,r2,sp
  802974:	b023883a 	mov	r17,r22
  802978:	04ffffc4 	movi	r19,-1
  80297c:	81000017 	ldw	r4,0(r16)
  802980:	8c7fffc4 	addi	r17,r17,-1
  802984:	08038a80 	call	8038a8 <__floatsisf>
  802988:	900b883a 	mov	r5,r18
  80298c:	1009883a 	mov	r4,r2
  802990:	08034700 	call	803470 <__mulsf3>
  802994:	80803c15 	stw	r2,240(r16)
  802998:	9009883a 	mov	r4,r18
  80299c:	014ee034 	movhi	r5,15232
  8029a0:	08034700 	call	803470 <__mulsf3>
  8029a4:	1025883a 	mov	r18,r2
  8029a8:	843fff04 	addi	r16,r16,-4
  8029ac:	8cfff31e 	bne	r17,r19,80297c <__kernel_rem_pio2f+0x584>
  8029b0:	b02b883a 	mov	r21,r22
  8029b4:	0029883a 	mov	r20,zero
  8029b8:	b838403a 	cmpge	fp,r23,zero
  8029bc:	e0007c26 	beq	fp,zero,802bb0 <__kernel_rem_pio2f+0x7b8>
  8029c0:	a0007b16 	blt	r20,zero,802bb0 <__kernel_rem_pio2f+0x7b8>
  8029c4:	ad45883a 	add	r2,r21,r21
  8029c8:	1085883a 	add	r2,r2,r2
  8029cc:	d8c03c04 	addi	r3,sp,240
  8029d0:	18a5883a 	add	r18,r3,r2
  8029d4:	0021883a 	mov	r16,zero
  8029d8:	0027883a 	mov	r19,zero
  8029dc:	04402074 	movhi	r17,129
  8029e0:	8c46f004 	addi	r17,r17,7104
  8029e4:	00000106 	br	8029ec <__kernel_rem_pio2f+0x5f4>
  8029e8:	a4000b16 	blt	r20,r16,802a18 <__kernel_rem_pio2f+0x620>
  8029ec:	89000017 	ldw	r4,0(r17)
  8029f0:	91400017 	ldw	r5,0(r18)
  8029f4:	84000044 	addi	r16,r16,1
  8029f8:	8c400104 	addi	r17,r17,4
  8029fc:	08034700 	call	803470 <__mulsf3>
  802a00:	100b883a 	mov	r5,r2
  802a04:	9809883a 	mov	r4,r19
  802a08:	080340c0 	call	80340c <__addsf3>
  802a0c:	94800104 	addi	r18,r18,4
  802a10:	1027883a 	mov	r19,r2
  802a14:	bc3ff40e 	bge	r23,r16,8029e8 <__kernel_rem_pio2f+0x5f0>
  802a18:	a505883a 	add	r2,r20,r20
  802a1c:	1085883a 	add	r2,r2,r2
  802a20:	16c5883a 	add	r2,r2,sp
  802a24:	14c02815 	stw	r19,160(r2)
  802a28:	ad7fffc4 	addi	r21,r21,-1
  802a2c:	00bfffc4 	movi	r2,-1
  802a30:	a5000044 	addi	r20,r20,1
  802a34:	a8bfe11e 	bne	r21,r2,8029bc <__kernel_rem_pio2f+0x5c4>
  802a38:	d8c06817 	ldw	r3,416(sp)
  802a3c:	00800084 	movi	r2,2
  802a40:	10c06a16 	blt	r2,r3,802bec <__kernel_rem_pio2f+0x7f4>
  802a44:	00c0b70e 	bge	zero,r3,802d24 <__kernel_rem_pio2f+0x92c>
  802a48:	b0010916 	blt	r22,zero,802e70 <__kernel_rem_pio2f+0xa78>
  802a4c:	b585883a 	add	r2,r22,r22
  802a50:	1085883a 	add	r2,r2,r2
  802a54:	16c5883a 	add	r2,r2,sp
  802a58:	14402804 	addi	r17,r2,160
  802a5c:	b021883a 	mov	r16,r22
  802a60:	0005883a 	mov	r2,zero
  802a64:	04bfffc4 	movi	r18,-1
  802a68:	89400017 	ldw	r5,0(r17)
  802a6c:	1009883a 	mov	r4,r2
  802a70:	843fffc4 	addi	r16,r16,-1
  802a74:	080340c0 	call	80340c <__addsf3>
  802a78:	8c7fff04 	addi	r17,r17,-4
  802a7c:	84bffa1e 	bne	r16,r18,802a68 <__kernel_rem_pio2f+0x670>
  802a80:	da005417 	ldw	r8,336(sp)
  802a84:	4000e61e 	bne	r8,zero,802e20 <__kernel_rem_pio2f+0xa28>
  802a88:	1007883a 	mov	r3,r2
  802a8c:	d9405817 	ldw	r5,352(sp)
  802a90:	d9002817 	ldw	r4,160(sp)
  802a94:	28c00015 	stw	r3,0(r5)
  802a98:	100b883a 	mov	r5,r2
  802a9c:	080339c0 	call	80339c <__subsf3>
  802aa0:	0580080e 	bge	zero,r22,802ac4 <__kernel_rem_pio2f+0x6cc>
  802aa4:	0023883a 	mov	r17,zero
  802aa8:	dc002904 	addi	r16,sp,164
  802aac:	81400017 	ldw	r5,0(r16)
  802ab0:	1009883a 	mov	r4,r2
  802ab4:	8c400044 	addi	r17,r17,1
  802ab8:	080340c0 	call	80340c <__addsf3>
  802abc:	84000104 	addi	r16,r16,4
  802ac0:	8dbffa1e 	bne	r17,r22,802aac <__kernel_rem_pio2f+0x6b4>
  802ac4:	d9c05417 	ldw	r7,336(sp)
  802ac8:	38000126 	beq	r7,zero,802ad0 <__kernel_rem_pio2f+0x6d8>
  802acc:	10a0003c 	xorhi	r2,r2,32768
  802ad0:	da005817 	ldw	r8,352(sp)
  802ad4:	40800115 	stw	r2,4(r8)
  802ad8:	da005517 	ldw	r8,340(sp)
  802adc:	408001cc 	andi	r2,r8,7
  802ae0:	dfc06717 	ldw	ra,412(sp)
  802ae4:	df006617 	ldw	fp,408(sp)
  802ae8:	ddc06517 	ldw	r23,404(sp)
  802aec:	dd806417 	ldw	r22,400(sp)
  802af0:	dd406317 	ldw	r21,396(sp)
  802af4:	dd006217 	ldw	r20,392(sp)
  802af8:	dcc06117 	ldw	r19,388(sp)
  802afc:	dc806017 	ldw	r18,384(sp)
  802b00:	dc405f17 	ldw	r17,380(sp)
  802b04:	dc005e17 	ldw	r16,376(sp)
  802b08:	dec06804 	addi	sp,sp,416
  802b0c:	f800283a 	ret
  802b10:	e000161e 	bne	fp,zero,802b6c <__kernel_rem_pio2f+0x774>
  802b14:	8c45883a 	add	r2,r17,r17
  802b18:	16c5883a 	add	r2,r2,sp
  802b1c:	10ffff17 	ldw	r3,-4(r2)
  802b20:	1807d23a 	srai	r3,r3,8
  802b24:	d8c05415 	stw	r3,336(sp)
  802b28:	003ee006 	br	8026ac <__kernel_rem_pio2f+0x2b4>
  802b2c:	b705c83a 	sub	r2,r22,fp
  802b30:	1085883a 	add	r2,r2,r2
  802b34:	1085883a 	add	r2,r2,r2
  802b38:	16c5883a 	add	r2,r2,sp
  802b3c:	10c00017 	ldw	r3,0(r2)
  802b40:	18c01fcc 	andi	r3,r3,127
  802b44:	10c00015 	stw	r3,0(r2)
  802b48:	003ef906 	br	802730 <__kernel_rem_pio2f+0x338>
  802b4c:	b0bfffc4 	addi	r2,r22,-1
  802b50:	1085883a 	add	r2,r2,r2
  802b54:	1085883a 	add	r2,r2,r2
  802b58:	16c5883a 	add	r2,r2,sp
  802b5c:	10c00017 	ldw	r3,0(r2)
  802b60:	18c00fcc 	andi	r3,r3,63
  802b64:	10c00015 	stw	r3,0(r2)
  802b68:	003ef106 	br	802730 <__kernel_rem_pio2f+0x338>
  802b6c:	1009883a 	mov	r4,r2
  802b70:	014fc034 	movhi	r5,16128
  802b74:	08037400 	call	803740 <__gesf2>
  802b78:	1000190e 	bge	r2,zero,802be0 <__kernel_rem_pio2f+0x7e8>
  802b7c:	d8005415 	stw	zero,336(sp)
  802b80:	003eee06 	br	80273c <__kernel_rem_pio2f+0x344>
  802b84:	01000044 	movi	r4,1
  802b88:	b12b883a 	add	r21,r22,r4
  802b8c:	b4000044 	addi	r16,r22,1
  802b90:	ac3f0816 	blt	r21,r16,8027b4 <__kernel_rem_pio2f+0x3bc>
  802b94:	003f0906 	br	8027bc <__kernel_rem_pio2f+0x3c4>
  802b98:	0025883a 	mov	r18,zero
  802b9c:	9cc00044 	addi	r19,r19,1
  802ba0:	a4800015 	stw	r18,0(r20)
  802ba4:	a5000104 	addi	r20,r20,4
  802ba8:	9dbe4d1e 	bne	r19,r22,8024e0 <__kernel_rem_pio2f+0xe8>
  802bac:	003e6306 	br	80253c <__kernel_rem_pio2f+0x144>
  802bb0:	a505883a 	add	r2,r20,r20
  802bb4:	1085883a 	add	r2,r2,r2
  802bb8:	16c5883a 	add	r2,r2,sp
  802bbc:	0027883a 	mov	r19,zero
  802bc0:	14c02815 	stw	r19,160(r2)
  802bc4:	ad7fffc4 	addi	r21,r21,-1
  802bc8:	00bfffc4 	movi	r2,-1
  802bcc:	a5000044 	addi	r20,r20,1
  802bd0:	a8bf7a1e 	bne	r21,r2,8029bc <__kernel_rem_pio2f+0x5c4>
  802bd4:	003f9806 	br	802a38 <__kernel_rem_pio2f+0x640>
  802bd8:	0021883a 	mov	r16,zero
  802bdc:	003ece06 	br	802718 <__kernel_rem_pio2f+0x320>
  802be0:	00800084 	movi	r2,2
  802be4:	d8805415 	stw	r2,336(sp)
  802be8:	003eb206 	br	8026b4 <__kernel_rem_pio2f+0x2bc>
  802bec:	d9006817 	ldw	r4,416(sp)
  802bf0:	008000c4 	movi	r2,3
  802bf4:	20bfb81e 	bne	r4,r2,802ad8 <__kernel_rem_pio2f+0x6e0>
  802bf8:	0580190e 	bge	zero,r22,802c60 <__kernel_rem_pio2f+0x868>
  802bfc:	b021883a 	mov	r16,r22
  802c00:	00000106 	br	802c08 <__kernel_rem_pio2f+0x810>
  802c04:	a821883a 	mov	r16,r21
  802c08:	857fffc4 	addi	r21,r16,-1
  802c0c:	ad63883a 	add	r17,r21,r21
  802c10:	8421883a 	add	r16,r16,r16
  802c14:	8c63883a 	add	r17,r17,r17
  802c18:	8421883a 	add	r16,r16,r16
  802c1c:	8ee3883a 	add	r17,r17,sp
  802c20:	86e1883a 	add	r16,r16,sp
  802c24:	8c802817 	ldw	r18,160(r17)
  802c28:	84c02817 	ldw	r19,160(r16)
  802c2c:	9009883a 	mov	r4,r18
  802c30:	980b883a 	mov	r5,r19
  802c34:	080340c0 	call	80340c <__addsf3>
  802c38:	100b883a 	mov	r5,r2
  802c3c:	9009883a 	mov	r4,r18
  802c40:	1029883a 	mov	r20,r2
  802c44:	080339c0 	call	80339c <__subsf3>
  802c48:	100b883a 	mov	r5,r2
  802c4c:	9809883a 	mov	r4,r19
  802c50:	080340c0 	call	80340c <__addsf3>
  802c54:	80802815 	stw	r2,160(r16)
  802c58:	8d002815 	stw	r20,160(r17)
  802c5c:	a83fe91e 	bne	r21,zero,802c04 <__kernel_rem_pio2f+0x80c>
  802c60:	00800044 	movi	r2,1
  802c64:	1580840e 	bge	r2,r22,802e78 <__kernel_rem_pio2f+0xa80>
  802c68:	b007883a 	mov	r3,r22
  802c6c:	1cffffc4 	addi	r19,r3,-1
  802c70:	18e1883a 	add	r16,r3,r3
  802c74:	9ce3883a 	add	r17,r19,r19
  802c78:	8c63883a 	add	r17,r17,r17
  802c7c:	8421883a 	add	r16,r16,r16
  802c80:	8ee3883a 	add	r17,r17,sp
  802c84:	86e1883a 	add	r16,r16,sp
  802c88:	8c802817 	ldw	r18,160(r17)
  802c8c:	85002817 	ldw	r20,160(r16)
  802c90:	9009883a 	mov	r4,r18
  802c94:	a00b883a 	mov	r5,r20
  802c98:	080340c0 	call	80340c <__addsf3>
  802c9c:	100b883a 	mov	r5,r2
  802ca0:	9009883a 	mov	r4,r18
  802ca4:	102b883a 	mov	r21,r2
  802ca8:	080339c0 	call	80339c <__subsf3>
  802cac:	100b883a 	mov	r5,r2
  802cb0:	a009883a 	mov	r4,r20
  802cb4:	080340c0 	call	80340c <__addsf3>
  802cb8:	80802815 	stw	r2,160(r16)
  802cbc:	01000044 	movi	r4,1
  802cc0:	9807883a 	mov	r3,r19
  802cc4:	8d402815 	stw	r21,160(r17)
  802cc8:	993fe81e 	bne	r19,r4,802c6c <__kernel_rem_pio2f+0x874>
  802ccc:	b585883a 	add	r2,r22,r22
  802cd0:	1085883a 	add	r2,r2,r2
  802cd4:	16c5883a 	add	r2,r2,sp
  802cd8:	2025883a 	mov	r18,r4
  802cdc:	b021883a 	mov	r16,r22
  802ce0:	14402804 	addi	r17,r2,160
  802ce4:	0009883a 	mov	r4,zero
  802ce8:	89400017 	ldw	r5,0(r17)
  802cec:	843fffc4 	addi	r16,r16,-1
  802cf0:	8c7fff04 	addi	r17,r17,-4
  802cf4:	080340c0 	call	80340c <__addsf3>
  802cf8:	1009883a 	mov	r4,r2
  802cfc:	84bffa1e 	bne	r16,r18,802ce8 <__kernel_rem_pio2f+0x8f0>
  802d00:	d8805417 	ldw	r2,336(sp)
  802d04:	1000501e 	bne	r2,zero,802e48 <__kernel_rem_pio2f+0xa50>
  802d08:	d8802817 	ldw	r2,160(sp)
  802d0c:	d8c02917 	ldw	r3,164(sp)
  802d10:	d9405817 	ldw	r5,352(sp)
  802d14:	29000215 	stw	r4,8(r5)
  802d18:	28800015 	stw	r2,0(r5)
  802d1c:	28c00115 	stw	r3,4(r5)
  802d20:	003f6d06 	br	802ad8 <__kernel_rem_pio2f+0x6e0>
  802d24:	183f6c1e 	bne	r3,zero,802ad8 <__kernel_rem_pio2f+0x6e0>
  802d28:	b0005516 	blt	r22,zero,802e80 <__kernel_rem_pio2f+0xa88>
  802d2c:	b585883a 	add	r2,r22,r22
  802d30:	1085883a 	add	r2,r2,r2
  802d34:	16c5883a 	add	r2,r2,sp
  802d38:	14402804 	addi	r17,r2,160
  802d3c:	b021883a 	mov	r16,r22
  802d40:	0005883a 	mov	r2,zero
  802d44:	04bfffc4 	movi	r18,-1
  802d48:	89400017 	ldw	r5,0(r17)
  802d4c:	1009883a 	mov	r4,r2
  802d50:	843fffc4 	addi	r16,r16,-1
  802d54:	080340c0 	call	80340c <__addsf3>
  802d58:	8c7fff04 	addi	r17,r17,-4
  802d5c:	84bffa1e 	bne	r16,r18,802d48 <__kernel_rem_pio2f+0x950>
  802d60:	d9405417 	ldw	r5,336(sp)
  802d64:	28000126 	beq	r5,zero,802d6c <__kernel_rem_pio2f+0x974>
  802d68:	10a0003c 	xorhi	r2,r2,32768
  802d6c:	d9c05817 	ldw	r7,352(sp)
  802d70:	38800015 	stw	r2,0(r7)
  802d74:	003f5806 	br	802ad8 <__kernel_rem_pio2f+0x6e0>
  802d78:	30800104 	addi	r2,r6,4
  802d7c:	1005d0fa 	srai	r2,r2,3
  802d80:	d8805015 	stw	r2,320(sp)
  802d84:	103db80e 	bge	r2,zero,802468 <__kernel_rem_pio2f+0x70>
  802d88:	d8005015 	stw	zero,320(sp)
  802d8c:	003db606 	br	802468 <__kernel_rem_pio2f+0x70>
  802d90:	9809883a 	mov	r4,r19
  802d94:	070bc83a 	sub	r5,zero,fp
  802d98:	08030540 	call	803054 <scalbnf>
  802d9c:	1009883a 	mov	r4,r2
  802da0:	0150e034 	movhi	r5,17280
  802da4:	1027883a 	mov	r19,r2
  802da8:	08037400 	call	803740 <__gesf2>
  802dac:	10002016 	blt	r2,zero,802e30 <__kernel_rem_pio2f+0xa38>
  802db0:	014ee034 	movhi	r5,15232
  802db4:	9809883a 	mov	r4,r19
  802db8:	08034700 	call	803470 <__mulsf3>
  802dbc:	1009883a 	mov	r4,r2
  802dc0:	08039400 	call	803940 <__fixsfsi>
  802dc4:	1009883a 	mov	r4,r2
  802dc8:	08038a80 	call	8038a8 <__floatsisf>
  802dcc:	1009883a 	mov	r4,r2
  802dd0:	0170e034 	movhi	r5,50048
  802dd4:	1025883a 	mov	r18,r2
  802dd8:	08034700 	call	803470 <__mulsf3>
  802ddc:	100b883a 	mov	r5,r2
  802de0:	9809883a 	mov	r4,r19
  802de4:	080340c0 	call	80340c <__addsf3>
  802de8:	1009883a 	mov	r4,r2
  802dec:	8c63883a 	add	r17,r17,r17
  802df0:	b5800044 	addi	r22,r22,1
  802df4:	08039400 	call	803940 <__fixsfsi>
  802df8:	8ee3883a 	add	r17,r17,sp
  802dfc:	b5a1883a 	add	r16,r22,r22
  802e00:	8421883a 	add	r16,r16,r16
  802e04:	9009883a 	mov	r4,r18
  802e08:	88800015 	stw	r2,0(r17)
  802e0c:	86e1883a 	add	r16,r16,sp
  802e10:	08039400 	call	803940 <__fixsfsi>
  802e14:	e7000204 	addi	fp,fp,8
  802e18:	80800015 	stw	r2,0(r16)
  802e1c:	003ecd06 	br	802954 <__kernel_rem_pio2f+0x55c>
  802e20:	10e0003c 	xorhi	r3,r2,32768
  802e24:	003f1906 	br	802a8c <__kernel_rem_pio2f+0x694>
  802e28:	302d883a 	mov	r22,r6
  802e2c:	003ec906 	br	802954 <__kernel_rem_pio2f+0x55c>
  802e30:	8c61883a 	add	r16,r17,r17
  802e34:	9809883a 	mov	r4,r19
  802e38:	86e1883a 	add	r16,r16,sp
  802e3c:	08039400 	call	803940 <__fixsfsi>
  802e40:	80800015 	stw	r2,0(r16)
  802e44:	003ec306 	br	802954 <__kernel_rem_pio2f+0x55c>
  802e48:	d8c02817 	ldw	r3,160(sp)
  802e4c:	d8802917 	ldw	r2,164(sp)
  802e50:	d9c05817 	ldw	r7,352(sp)
  802e54:	2120003c 	xorhi	r4,r4,32768
  802e58:	18e0003c 	xorhi	r3,r3,32768
  802e5c:	10a0003c 	xorhi	r2,r2,32768
  802e60:	39000215 	stw	r4,8(r7)
  802e64:	38c00015 	stw	r3,0(r7)
  802e68:	38800115 	stw	r2,4(r7)
  802e6c:	003f1a06 	br	802ad8 <__kernel_rem_pio2f+0x6e0>
  802e70:	0005883a 	mov	r2,zero
  802e74:	003f0206 	br	802a80 <__kernel_rem_pio2f+0x688>
  802e78:	0009883a 	mov	r4,zero
  802e7c:	003fa006 	br	802d00 <__kernel_rem_pio2f+0x908>
  802e80:	0005883a 	mov	r2,zero
  802e84:	003fb606 	br	802d60 <__kernel_rem_pio2f+0x968>

00802e88 <__kernel_sinf>:
  802e88:	00e00034 	movhi	r3,32768
  802e8c:	18ffffc4 	addi	r3,r3,-1
  802e90:	defff904 	addi	sp,sp,-28
  802e94:	1906703a 	and	r3,r3,r4
  802e98:	008c8034 	movhi	r2,12800
  802e9c:	10bfffc4 	addi	r2,r2,-1
  802ea0:	dd400515 	stw	r21,20(sp)
  802ea4:	dc800215 	stw	r18,8(sp)
  802ea8:	dc000015 	stw	r16,0(sp)
  802eac:	dfc00615 	stw	ra,24(sp)
  802eb0:	dd000415 	stw	r20,16(sp)
  802eb4:	dcc00315 	stw	r19,12(sp)
  802eb8:	dc400115 	stw	r17,4(sp)
  802ebc:	2025883a 	mov	r18,r4
  802ec0:	3021883a 	mov	r16,r6
  802ec4:	282b883a 	mov	r21,r5
  802ec8:	10c00216 	blt	r2,r3,802ed4 <__kernel_sinf+0x4c>
  802ecc:	08039400 	call	803940 <__fixsfsi>
  802ed0:	10004326 	beq	r2,zero,802fe0 <__kernel_sinf+0x158>
  802ed4:	9009883a 	mov	r4,r18
  802ed8:	900b883a 	mov	r5,r18
  802edc:	08034700 	call	803470 <__mulsf3>
  802ee0:	1023883a 	mov	r17,r2
  802ee4:	9009883a 	mov	r4,r18
  802ee8:	100b883a 	mov	r5,r2
  802eec:	08034700 	call	803470 <__mulsf3>
  802ef0:	8809883a 	mov	r4,r17
  802ef4:	014bcbf4 	movhi	r5,12079
  802ef8:	297274c4 	addi	r5,r5,-13869
  802efc:	1029883a 	mov	r20,r2
  802f00:	08034700 	call	803470 <__mulsf3>
  802f04:	1009883a 	mov	r4,r2
  802f08:	014cb5f4 	movhi	r5,13015
  802f0c:	294bcd04 	addi	r5,r5,12084
  802f10:	080339c0 	call	80339c <__subsf3>
  802f14:	100b883a 	mov	r5,r2
  802f18:	8809883a 	mov	r4,r17
  802f1c:	08034700 	call	803470 <__mulsf3>
  802f20:	1009883a 	mov	r4,r2
  802f24:	014d8e74 	movhi	r5,13881
  802f28:	297bc6c4 	addi	r5,r5,-4325
  802f2c:	080340c0 	call	80340c <__addsf3>
  802f30:	100b883a 	mov	r5,r2
  802f34:	8809883a 	mov	r4,r17
  802f38:	08034700 	call	803470 <__mulsf3>
  802f3c:	1009883a 	mov	r4,r2
  802f40:	014e5434 	movhi	r5,14672
  802f44:	29434044 	addi	r5,r5,3329
  802f48:	080339c0 	call	80339c <__subsf3>
  802f4c:	100b883a 	mov	r5,r2
  802f50:	8809883a 	mov	r4,r17
  802f54:	08034700 	call	803470 <__mulsf3>
  802f58:	1009883a 	mov	r4,r2
  802f5c:	014f0274 	movhi	r5,15369
  802f60:	29622244 	addi	r5,r5,-30583
  802f64:	080340c0 	call	80340c <__addsf3>
  802f68:	1027883a 	mov	r19,r2
  802f6c:	a809883a 	mov	r4,r21
  802f70:	014fc034 	movhi	r5,16128
  802f74:	80002426 	beq	r16,zero,803008 <__kernel_sinf+0x180>
  802f78:	08034700 	call	803470 <__mulsf3>
  802f7c:	a009883a 	mov	r4,r20
  802f80:	980b883a 	mov	r5,r19
  802f84:	1021883a 	mov	r16,r2
  802f88:	08034700 	call	803470 <__mulsf3>
  802f8c:	100b883a 	mov	r5,r2
  802f90:	8009883a 	mov	r4,r16
  802f94:	080339c0 	call	80339c <__subsf3>
  802f98:	100b883a 	mov	r5,r2
  802f9c:	8809883a 	mov	r4,r17
  802fa0:	08034700 	call	803470 <__mulsf3>
  802fa4:	1009883a 	mov	r4,r2
  802fa8:	a80b883a 	mov	r5,r21
  802fac:	080339c0 	call	80339c <__subsf3>
  802fb0:	a009883a 	mov	r4,r20
  802fb4:	014f8af4 	movhi	r5,15915
  802fb8:	296aaac4 	addi	r5,r5,-21845
  802fbc:	1021883a 	mov	r16,r2
  802fc0:	08034700 	call	803470 <__mulsf3>
  802fc4:	100b883a 	mov	r5,r2
  802fc8:	8009883a 	mov	r4,r16
  802fcc:	080340c0 	call	80340c <__addsf3>
  802fd0:	100b883a 	mov	r5,r2
  802fd4:	9009883a 	mov	r4,r18
  802fd8:	080339c0 	call	80339c <__subsf3>
  802fdc:	1025883a 	mov	r18,r2
  802fe0:	9005883a 	mov	r2,r18
  802fe4:	dfc00617 	ldw	ra,24(sp)
  802fe8:	dd400517 	ldw	r21,20(sp)
  802fec:	dd000417 	ldw	r20,16(sp)
  802ff0:	dcc00317 	ldw	r19,12(sp)
  802ff4:	dc800217 	ldw	r18,8(sp)
  802ff8:	dc400117 	ldw	r17,4(sp)
  802ffc:	dc000017 	ldw	r16,0(sp)
  803000:	dec00704 	addi	sp,sp,28
  803004:	f800283a 	ret
  803008:	100b883a 	mov	r5,r2
  80300c:	8809883a 	mov	r4,r17
  803010:	08034700 	call	803470 <__mulsf3>
  803014:	1009883a 	mov	r4,r2
  803018:	014f8af4 	movhi	r5,15915
  80301c:	296aaac4 	addi	r5,r5,-21845
  803020:	080339c0 	call	80339c <__subsf3>
  803024:	100b883a 	mov	r5,r2
  803028:	a009883a 	mov	r4,r20
  80302c:	08034700 	call	803470 <__mulsf3>
  803030:	100b883a 	mov	r5,r2
  803034:	9009883a 	mov	r4,r18
  803038:	080340c0 	call	80340c <__addsf3>
  80303c:	1025883a 	mov	r18,r2
  803040:	003fe706 	br	802fe0 <__kernel_sinf+0x158>

00803044 <fabsf>:
  803044:	00a00034 	movhi	r2,32768
  803048:	10bfffc4 	addi	r2,r2,-1
  80304c:	2084703a 	and	r2,r4,r2
  803050:	f800283a 	ret

00803054 <scalbnf>:
  803054:	00a00034 	movhi	r2,32768
  803058:	10bfffc4 	addi	r2,r2,-1
  80305c:	defffe04 	addi	sp,sp,-8
  803060:	2086703a 	and	r3,r4,r2
  803064:	dc000015 	stw	r16,0(sp)
  803068:	dfc00115 	stw	ra,4(sp)
  80306c:	200d883a 	mov	r6,r4
  803070:	200f883a 	mov	r7,r4
  803074:	2821883a 	mov	r16,r5
  803078:	18001a26 	beq	r3,zero,8030e4 <scalbnf+0x90>
  80307c:	009fe034 	movhi	r2,32640
  803080:	10bfffc4 	addi	r2,r2,-1
  803084:	10c01c36 	bltu	r2,r3,8030f8 <scalbnf+0xa4>
  803088:	00802034 	movhi	r2,128
  80308c:	10bfffc4 	addi	r2,r2,-1
  803090:	10c02136 	bltu	r2,r3,803118 <scalbnf+0xc4>
  803094:	01530034 	movhi	r5,19456
  803098:	08034700 	call	803470 <__mulsf3>
  80309c:	1009883a 	mov	r4,r2
  8030a0:	100d883a 	mov	r6,r2
  8030a4:	00bffff4 	movhi	r2,65535
  8030a8:	108f2c04 	addi	r2,r2,15536
  8030ac:	80802616 	blt	r16,r2,803148 <scalbnf+0xf4>
  8030b0:	209fe02c 	andhi	r2,r4,32640
  8030b4:	1005d5fa 	srai	r2,r2,23
  8030b8:	200f883a 	mov	r7,r4
  8030bc:	10bff9c4 	addi	r2,r2,-25
  8030c0:	1407883a 	add	r3,r2,r16
  8030c4:	00803f84 	movi	r2,254
  8030c8:	10c01516 	blt	r2,r3,803120 <scalbnf+0xcc>
  8030cc:	00c0230e 	bge	zero,r3,80315c <scalbnf+0x108>
  8030d0:	180695fa 	slli	r3,r3,23
  8030d4:	00a02034 	movhi	r2,32896
  8030d8:	10bfffc4 	addi	r2,r2,-1
  8030dc:	3884703a 	and	r2,r7,r2
  8030e0:	10ccb03a 	or	r6,r2,r3
  8030e4:	3005883a 	mov	r2,r6
  8030e8:	dfc00117 	ldw	ra,4(sp)
  8030ec:	dc000017 	ldw	r16,0(sp)
  8030f0:	dec00204 	addi	sp,sp,8
  8030f4:	f800283a 	ret
  8030f8:	200b883a 	mov	r5,r4
  8030fc:	080340c0 	call	80340c <__addsf3>
  803100:	100d883a 	mov	r6,r2
  803104:	3005883a 	mov	r2,r6
  803108:	dfc00117 	ldw	ra,4(sp)
  80310c:	dc000017 	ldw	r16,0(sp)
  803110:	dec00204 	addi	sp,sp,8
  803114:	f800283a 	ret
  803118:	1804d5fa 	srli	r2,r3,23
  80311c:	003fe806 	br	8030c0 <scalbnf+0x6c>
  803120:	041c52b4 	movhi	r16,29002
  803124:	843cb284 	addi	r16,r16,-3382
  803128:	300b883a 	mov	r5,r6
  80312c:	8009883a 	mov	r4,r16
  803130:	08031a00 	call	8031a0 <copysignf>
  803134:	1009883a 	mov	r4,r2
  803138:	800b883a 	mov	r5,r16
  80313c:	08034700 	call	803470 <__mulsf3>
  803140:	100d883a 	mov	r6,r2
  803144:	003fe706 	br	8030e4 <scalbnf+0x90>
  803148:	014368b4 	movhi	r5,3490
  80314c:	29509804 	addi	r5,r5,16992
  803150:	08034700 	call	803470 <__mulsf3>
  803154:	100d883a 	mov	r6,r2
  803158:	003fe206 	br	8030e4 <scalbnf+0x90>
  80315c:	00bffa84 	movi	r2,-22
  803160:	1880050e 	bge	r3,r2,803178 <scalbnf+0x124>
  803164:	00b0d414 	movui	r2,50000
  803168:	143fed16 	blt	r2,r16,803120 <scalbnf+0xcc>
  80316c:	040368b4 	movhi	r16,3490
  803170:	84109804 	addi	r16,r16,16992
  803174:	003fec06 	br	803128 <scalbnf+0xd4>
  803178:	18800644 	addi	r2,r3,25
  80317c:	100495fa 	slli	r2,r2,23
  803180:	01202034 	movhi	r4,32896
  803184:	213fffc4 	addi	r4,r4,-1
  803188:	3908703a 	and	r4,r7,r4
  80318c:	2088b03a 	or	r4,r4,r2
  803190:	014cc034 	movhi	r5,13056
  803194:	08034700 	call	803470 <__mulsf3>
  803198:	100d883a 	mov	r6,r2
  80319c:	003fd106 	br	8030e4 <scalbnf+0x90>

008031a0 <copysignf>:
  8031a0:	00a00034 	movhi	r2,32768
  8031a4:	10bfffc4 	addi	r2,r2,-1
  8031a8:	2088703a 	and	r4,r4,r2
  8031ac:	28a0002c 	andhi	r2,r5,32768
  8031b0:	2084b03a 	or	r2,r4,r2
  8031b4:	f800283a 	ret

008031b8 <_fpadd_parts>:
  8031b8:	21c00017 	ldw	r7,0(r4)
  8031bc:	02000044 	movi	r8,1
  8031c0:	41c0332e 	bgeu	r8,r7,803290 <_fpadd_parts+0xd8>
  8031c4:	28800017 	ldw	r2,0(r5)
  8031c8:	4080462e 	bgeu	r8,r2,8032e4 <_fpadd_parts+0x12c>
  8031cc:	00c00104 	movi	r3,4
  8031d0:	38c06b26 	beq	r7,r3,803380 <_fpadd_parts+0x1c8>
  8031d4:	10c04326 	beq	r2,r3,8032e4 <_fpadd_parts+0x12c>
  8031d8:	00c00084 	movi	r3,2
  8031dc:	10c02e26 	beq	r2,r3,803298 <_fpadd_parts+0xe0>
  8031e0:	38c04026 	beq	r7,r3,8032e4 <_fpadd_parts+0x12c>
  8031e4:	22800217 	ldw	r10,8(r4)
  8031e8:	28c00217 	ldw	r3,8(r5)
  8031ec:	23000317 	ldw	r12,12(r4)
  8031f0:	2a400317 	ldw	r9,12(r5)
  8031f4:	50cfc83a 	sub	r7,r10,r3
  8031f8:	3817883a 	mov	r11,r7
  8031fc:	38004f16 	blt	r7,zero,80333c <_fpadd_parts+0x184>
  803200:	008007c4 	movi	r2,31
  803204:	11c03316 	blt	r2,r7,8032d4 <_fpadd_parts+0x11c>
  803208:	02c0540e 	bge	zero,r11,80335c <_fpadd_parts+0x1a4>
  80320c:	41c4983a 	sll	r2,r8,r7
  803210:	49c6d83a 	srl	r3,r9,r7
  803214:	10bfffc4 	addi	r2,r2,-1
  803218:	4884703a 	and	r2,r9,r2
  80321c:	1004c03a 	cmpne	r2,r2,zero
  803220:	1892b03a 	or	r9,r3,r2
  803224:	20c00117 	ldw	r3,4(r4)
  803228:	28800117 	ldw	r2,4(r5)
  80322c:	18803c26 	beq	r3,r2,803320 <_fpadd_parts+0x168>
  803230:	18002f26 	beq	r3,zero,8032f0 <_fpadd_parts+0x138>
  803234:	4b05c83a 	sub	r2,r9,r12
  803238:	10004216 	blt	r2,zero,803344 <_fpadd_parts+0x18c>
  80323c:	32800215 	stw	r10,8(r6)
  803240:	30800315 	stw	r2,12(r6)
  803244:	30000115 	stw	zero,4(r6)
  803248:	31000317 	ldw	r4,12(r6)
  80324c:	01d00034 	movhi	r7,16384
  803250:	39ffff84 	addi	r7,r7,-2
  803254:	20bfffc4 	addi	r2,r4,-1
  803258:	2007883a 	mov	r3,r4
  80325c:	38800836 	bltu	r7,r2,803280 <_fpadd_parts+0xc8>
  803260:	31400217 	ldw	r5,8(r6)
  803264:	18c9883a 	add	r4,r3,r3
  803268:	20bfffc4 	addi	r2,r4,-1
  80326c:	297fffc4 	addi	r5,r5,-1
  803270:	2007883a 	mov	r3,r4
  803274:	38bffb2e 	bgeu	r7,r2,803264 <_fpadd_parts+0xac>
  803278:	31400215 	stw	r5,8(r6)
  80327c:	31000315 	stw	r4,12(r6)
  803280:	008000c4 	movi	r2,3
  803284:	30800015 	stw	r2,0(r6)
  803288:	20001b16 	blt	r4,zero,8032f8 <_fpadd_parts+0x140>
  80328c:	3009883a 	mov	r4,r6
  803290:	2005883a 	mov	r2,r4
  803294:	f800283a 	ret
  803298:	38fffd1e 	bne	r7,r3,803290 <_fpadd_parts+0xd8>
  80329c:	31c00015 	stw	r7,0(r6)
  8032a0:	20800117 	ldw	r2,4(r4)
  8032a4:	30800115 	stw	r2,4(r6)
  8032a8:	20c00217 	ldw	r3,8(r4)
  8032ac:	30c00215 	stw	r3,8(r6)
  8032b0:	20800317 	ldw	r2,12(r4)
  8032b4:	30800315 	stw	r2,12(r6)
  8032b8:	20c00117 	ldw	r3,4(r4)
  8032bc:	28800117 	ldw	r2,4(r5)
  8032c0:	3009883a 	mov	r4,r6
  8032c4:	1886703a 	and	r3,r3,r2
  8032c8:	2005883a 	mov	r2,r4
  8032cc:	30c00115 	stw	r3,4(r6)
  8032d0:	f800283a 	ret
  8032d4:	1a801716 	blt	r3,r10,803334 <_fpadd_parts+0x17c>
  8032d8:	1815883a 	mov	r10,r3
  8032dc:	0019883a 	mov	r12,zero
  8032e0:	003fd006 	br	803224 <_fpadd_parts+0x6c>
  8032e4:	2809883a 	mov	r4,r5
  8032e8:	2005883a 	mov	r2,r4
  8032ec:	f800283a 	ret
  8032f0:	6245c83a 	sub	r2,r12,r9
  8032f4:	003fd006 	br	803238 <_fpadd_parts+0x80>
  8032f8:	30800217 	ldw	r2,8(r6)
  8032fc:	2006d07a 	srli	r3,r4,1
  803300:	2100004c 	andi	r4,r4,1
  803304:	10800044 	addi	r2,r2,1
  803308:	1906b03a 	or	r3,r3,r4
  80330c:	3009883a 	mov	r4,r6
  803310:	30800215 	stw	r2,8(r6)
  803314:	2005883a 	mov	r2,r4
  803318:	30c00315 	stw	r3,12(r6)
  80331c:	f800283a 	ret
  803320:	4b09883a 	add	r4,r9,r12
  803324:	30c00115 	stw	r3,4(r6)
  803328:	32800215 	stw	r10,8(r6)
  80332c:	31000315 	stw	r4,12(r6)
  803330:	003fd306 	br	803280 <_fpadd_parts+0xc8>
  803334:	0013883a 	mov	r9,zero
  803338:	003fba06 	br	803224 <_fpadd_parts+0x6c>
  80333c:	01cfc83a 	sub	r7,zero,r7
  803340:	003faf06 	br	803200 <_fpadd_parts+0x48>
  803344:	0089c83a 	sub	r4,zero,r2
  803348:	00800044 	movi	r2,1
  80334c:	30800115 	stw	r2,4(r6)
  803350:	32800215 	stw	r10,8(r6)
  803354:	31000315 	stw	r4,12(r6)
  803358:	003fbb06 	br	803248 <_fpadd_parts+0x90>
  80335c:	583fb126 	beq	r11,zero,803224 <_fpadd_parts+0x6c>
  803360:	41c4983a 	sll	r2,r8,r7
  803364:	61c6d83a 	srl	r3,r12,r7
  803368:	51d5883a 	add	r10,r10,r7
  80336c:	10bfffc4 	addi	r2,r2,-1
  803370:	6084703a 	and	r2,r12,r2
  803374:	1004c03a 	cmpne	r2,r2,zero
  803378:	1898b03a 	or	r12,r3,r2
  80337c:	003fa906 	br	803224 <_fpadd_parts+0x6c>
  803380:	11ffc31e 	bne	r2,r7,803290 <_fpadd_parts+0xd8>
  803384:	28c00117 	ldw	r3,4(r5)
  803388:	20800117 	ldw	r2,4(r4)
  80338c:	10ffc026 	beq	r2,r3,803290 <_fpadd_parts+0xd8>
  803390:	01002074 	movhi	r4,129
  803394:	2106fb04 	addi	r4,r4,7148
  803398:	003fbd06 	br	803290 <_fpadd_parts+0xd8>

0080339c <__subsf3>:
  80339c:	deffef04 	addi	sp,sp,-68
  8033a0:	dcc00f15 	stw	r19,60(sp)
  8033a4:	dcc00204 	addi	r19,sp,8
  8033a8:	dc400e15 	stw	r17,56(sp)
  8033ac:	d9000015 	stw	r4,0(sp)
  8033b0:	d9400115 	stw	r5,4(sp)
  8033b4:	d809883a 	mov	r4,sp
  8033b8:	980b883a 	mov	r5,r19
  8033bc:	dc400604 	addi	r17,sp,24
  8033c0:	dfc01015 	stw	ra,64(sp)
  8033c4:	0803d980 	call	803d98 <__unpack_f>
  8033c8:	d9000104 	addi	r4,sp,4
  8033cc:	880b883a 	mov	r5,r17
  8033d0:	0803d980 	call	803d98 <__unpack_f>
  8033d4:	d8800717 	ldw	r2,28(sp)
  8033d8:	9809883a 	mov	r4,r19
  8033dc:	880b883a 	mov	r5,r17
  8033e0:	d9800a04 	addi	r6,sp,40
  8033e4:	1080005c 	xori	r2,r2,1
  8033e8:	d8800715 	stw	r2,28(sp)
  8033ec:	08031b80 	call	8031b8 <_fpadd_parts>
  8033f0:	1009883a 	mov	r4,r2
  8033f4:	0803c380 	call	803c38 <__pack_f>
  8033f8:	dfc01017 	ldw	ra,64(sp)
  8033fc:	dcc00f17 	ldw	r19,60(sp)
  803400:	dc400e17 	ldw	r17,56(sp)
  803404:	dec01104 	addi	sp,sp,68
  803408:	f800283a 	ret

0080340c <__addsf3>:
  80340c:	deffef04 	addi	sp,sp,-68
  803410:	dcc00f15 	stw	r19,60(sp)
  803414:	dcc00204 	addi	r19,sp,8
  803418:	dc400e15 	stw	r17,56(sp)
  80341c:	d9000015 	stw	r4,0(sp)
  803420:	d9400115 	stw	r5,4(sp)
  803424:	d809883a 	mov	r4,sp
  803428:	980b883a 	mov	r5,r19
  80342c:	dc400604 	addi	r17,sp,24
  803430:	dfc01015 	stw	ra,64(sp)
  803434:	0803d980 	call	803d98 <__unpack_f>
  803438:	d9000104 	addi	r4,sp,4
  80343c:	880b883a 	mov	r5,r17
  803440:	0803d980 	call	803d98 <__unpack_f>
  803444:	d9800a04 	addi	r6,sp,40
  803448:	9809883a 	mov	r4,r19
  80344c:	880b883a 	mov	r5,r17
  803450:	08031b80 	call	8031b8 <_fpadd_parts>
  803454:	1009883a 	mov	r4,r2
  803458:	0803c380 	call	803c38 <__pack_f>
  80345c:	dfc01017 	ldw	ra,64(sp)
  803460:	dcc00f17 	ldw	r19,60(sp)
  803464:	dc400e17 	ldw	r17,56(sp)
  803468:	dec01104 	addi	sp,sp,68
  80346c:	f800283a 	ret

00803470 <__mulsf3>:
  803470:	deffef04 	addi	sp,sp,-68
  803474:	dc400f15 	stw	r17,60(sp)
  803478:	dc400204 	addi	r17,sp,8
  80347c:	dc000e15 	stw	r16,56(sp)
  803480:	d9000015 	stw	r4,0(sp)
  803484:	d9400115 	stw	r5,4(sp)
  803488:	d809883a 	mov	r4,sp
  80348c:	880b883a 	mov	r5,r17
  803490:	dc000604 	addi	r16,sp,24
  803494:	dfc01015 	stw	ra,64(sp)
  803498:	0803d980 	call	803d98 <__unpack_f>
  80349c:	d9000104 	addi	r4,sp,4
  8034a0:	800b883a 	mov	r5,r16
  8034a4:	0803d980 	call	803d98 <__unpack_f>
  8034a8:	d9000217 	ldw	r4,8(sp)
  8034ac:	00800044 	movi	r2,1
  8034b0:	01400104 	movi	r5,4
  8034b4:	1100142e 	bgeu	r2,r4,803508 <__mulsf3+0x98>
  8034b8:	d8c00617 	ldw	r3,24(sp)
  8034bc:	10c0052e 	bgeu	r2,r3,8034d4 <__mulsf3+0x64>
  8034c0:	21400f26 	beq	r4,r5,803500 <__mulsf3+0x90>
  8034c4:	19405d26 	beq	r3,r5,80363c <__mulsf3+0x1cc>
  8034c8:	00800084 	movi	r2,2
  8034cc:	20800e26 	beq	r4,r2,803508 <__mulsf3+0x98>
  8034d0:	1880181e 	bne	r3,r2,803534 <__mulsf3+0xc4>
  8034d4:	d8c00717 	ldw	r3,28(sp)
  8034d8:	d8800317 	ldw	r2,12(sp)
  8034dc:	8009883a 	mov	r4,r16
  8034e0:	10c4c03a 	cmpne	r2,r2,r3
  8034e4:	d8800715 	stw	r2,28(sp)
  8034e8:	0803c380 	call	803c38 <__pack_f>
  8034ec:	dfc01017 	ldw	ra,64(sp)
  8034f0:	dc400f17 	ldw	r17,60(sp)
  8034f4:	dc000e17 	ldw	r16,56(sp)
  8034f8:	dec01104 	addi	sp,sp,68
  8034fc:	f800283a 	ret
  803500:	00800084 	movi	r2,2
  803504:	18804f26 	beq	r3,r2,803644 <__mulsf3+0x1d4>
  803508:	d8800317 	ldw	r2,12(sp)
  80350c:	d8c00717 	ldw	r3,28(sp)
  803510:	8809883a 	mov	r4,r17
  803514:	10c4c03a 	cmpne	r2,r2,r3
  803518:	d8800315 	stw	r2,12(sp)
  80351c:	0803c380 	call	803c38 <__pack_f>
  803520:	dfc01017 	ldw	ra,64(sp)
  803524:	dc400f17 	ldw	r17,60(sp)
  803528:	dc000e17 	ldw	r16,56(sp)
  80352c:	dec01104 	addi	sp,sp,68
  803530:	f800283a 	ret
  803534:	d8800517 	ldw	r2,20(sp)
  803538:	da000917 	ldw	r8,36(sp)
  80353c:	0013883a 	mov	r9,zero
  803540:	0007883a 	mov	r3,zero
  803544:	480f883a 	mov	r7,r9
  803548:	180b883a 	mov	r5,r3
  80354c:	400d883a 	mov	r6,r8
  803550:	1009883a 	mov	r4,r2
  803554:	0803b200 	call	803b20 <__muldi3>
  803558:	da800417 	ldw	r10,16(sp)
  80355c:	d9800817 	ldw	r6,32(sp)
  803560:	da400317 	ldw	r9,12(sp)
  803564:	52800084 	addi	r10,r10,2
  803568:	3295883a 	add	r10,r6,r10
  80356c:	d9800717 	ldw	r6,28(sp)
  803570:	180b883a 	mov	r5,r3
  803574:	180f883a 	mov	r7,r3
  803578:	4992c03a 	cmpne	r9,r9,r6
  80357c:	da400b15 	stw	r9,44(sp)
  803580:	1007883a 	mov	r3,r2
  803584:	da800c15 	stw	r10,48(sp)
  803588:	2800070e 	bge	r5,zero,8035a8 <__mulsf3+0x138>
  80358c:	2880004c 	andi	r2,r5,1
  803590:	1005003a 	cmpeq	r2,r2,zero
  803594:	500d883a 	mov	r6,r10
  803598:	10001e26 	beq	r2,zero,803614 <__mulsf3+0x1a4>
  80359c:	380ed07a 	srli	r7,r7,1
  8035a0:	31800044 	addi	r6,r6,1
  8035a4:	d9800c15 	stw	r6,48(sp)
  8035a8:	01100034 	movhi	r4,16384
  8035ac:	213fffc4 	addi	r4,r4,-1
  8035b0:	21c00b36 	bltu	r4,r7,8035e0 <__mulsf3+0x170>
  8035b4:	d8800c17 	ldw	r2,48(sp)
  8035b8:	00000206 	br	8035c4 <__mulsf3+0x154>
  8035bc:	18c7883a 	add	r3,r3,r3
  8035c0:	21c00636 	bltu	r4,r7,8035dc <__mulsf3+0x16c>
  8035c4:	10bfffc4 	addi	r2,r2,-1
  8035c8:	39cf883a 	add	r7,r7,r7
  8035cc:	183ffb0e 	bge	r3,zero,8035bc <__mulsf3+0x14c>
  8035d0:	39c00054 	ori	r7,r7,1
  8035d4:	18c7883a 	add	r3,r3,r3
  8035d8:	21fffa2e 	bgeu	r4,r7,8035c4 <__mulsf3+0x154>
  8035dc:	d8800c15 	stw	r2,48(sp)
  8035e0:	39001fcc 	andi	r4,r7,127
  8035e4:	00801004 	movi	r2,64
  8035e8:	20800d26 	beq	r4,r2,803620 <__mulsf3+0x1b0>
  8035ec:	008000c4 	movi	r2,3
  8035f0:	d9000a04 	addi	r4,sp,40
  8035f4:	d9c00d15 	stw	r7,52(sp)
  8035f8:	d8800a15 	stw	r2,40(sp)
  8035fc:	0803c380 	call	803c38 <__pack_f>
  803600:	dfc01017 	ldw	ra,64(sp)
  803604:	dc400f17 	ldw	r17,60(sp)
  803608:	dc000e17 	ldw	r16,56(sp)
  80360c:	dec01104 	addi	sp,sp,68
  803610:	f800283a 	ret
  803614:	1804d07a 	srli	r2,r3,1
  803618:	10e00034 	orhi	r3,r2,32768
  80361c:	003fdf06 	br	80359c <__mulsf3+0x12c>
  803620:	3880200c 	andi	r2,r7,128
  803624:	103ff11e 	bne	r2,zero,8035ec <__mulsf3+0x17c>
  803628:	183ff026 	beq	r3,zero,8035ec <__mulsf3+0x17c>
  80362c:	3907883a 	add	r3,r7,r4
  803630:	00bfe004 	movi	r2,-128
  803634:	188e703a 	and	r7,r3,r2
  803638:	003fec06 	br	8035ec <__mulsf3+0x17c>
  80363c:	00800084 	movi	r2,2
  803640:	20bfa41e 	bne	r4,r2,8034d4 <__mulsf3+0x64>
  803644:	01002074 	movhi	r4,129
  803648:	2106fb04 	addi	r4,r4,7148
  80364c:	003fb306 	br	80351c <__mulsf3+0xac>

00803650 <__eqsf2>:
  803650:	defff304 	addi	sp,sp,-52
  803654:	dc400b15 	stw	r17,44(sp)
  803658:	dc400204 	addi	r17,sp,8
  80365c:	dc000a15 	stw	r16,40(sp)
  803660:	d9000015 	stw	r4,0(sp)
  803664:	d9400115 	stw	r5,4(sp)
  803668:	d809883a 	mov	r4,sp
  80366c:	880b883a 	mov	r5,r17
  803670:	dc000604 	addi	r16,sp,24
  803674:	dfc00c15 	stw	ra,48(sp)
  803678:	0803d980 	call	803d98 <__unpack_f>
  80367c:	d9000104 	addi	r4,sp,4
  803680:	800b883a 	mov	r5,r16
  803684:	0803d980 	call	803d98 <__unpack_f>
  803688:	d8800217 	ldw	r2,8(sp)
  80368c:	00c00044 	movi	r3,1
  803690:	180d883a 	mov	r6,r3
  803694:	1880062e 	bgeu	r3,r2,8036b0 <__eqsf2+0x60>
  803698:	d8800617 	ldw	r2,24(sp)
  80369c:	8809883a 	mov	r4,r17
  8036a0:	800b883a 	mov	r5,r16
  8036a4:	1880022e 	bgeu	r3,r2,8036b0 <__eqsf2+0x60>
  8036a8:	0803e600 	call	803e60 <__fpcmp_parts_f>
  8036ac:	100d883a 	mov	r6,r2
  8036b0:	3005883a 	mov	r2,r6
  8036b4:	dfc00c17 	ldw	ra,48(sp)
  8036b8:	dc400b17 	ldw	r17,44(sp)
  8036bc:	dc000a17 	ldw	r16,40(sp)
  8036c0:	dec00d04 	addi	sp,sp,52
  8036c4:	f800283a 	ret

008036c8 <__gtsf2>:
  8036c8:	defff304 	addi	sp,sp,-52
  8036cc:	dc400b15 	stw	r17,44(sp)
  8036d0:	dc400204 	addi	r17,sp,8
  8036d4:	dc000a15 	stw	r16,40(sp)
  8036d8:	d9000015 	stw	r4,0(sp)
  8036dc:	d9400115 	stw	r5,4(sp)
  8036e0:	d809883a 	mov	r4,sp
  8036e4:	880b883a 	mov	r5,r17
  8036e8:	dc000604 	addi	r16,sp,24
  8036ec:	dfc00c15 	stw	ra,48(sp)
  8036f0:	0803d980 	call	803d98 <__unpack_f>
  8036f4:	d9000104 	addi	r4,sp,4
  8036f8:	800b883a 	mov	r5,r16
  8036fc:	0803d980 	call	803d98 <__unpack_f>
  803700:	d8800217 	ldw	r2,8(sp)
  803704:	00c00044 	movi	r3,1
  803708:	01bfffc4 	movi	r6,-1
  80370c:	1880062e 	bgeu	r3,r2,803728 <__gtsf2+0x60>
  803710:	d8800617 	ldw	r2,24(sp)
  803714:	8809883a 	mov	r4,r17
  803718:	800b883a 	mov	r5,r16
  80371c:	1880022e 	bgeu	r3,r2,803728 <__gtsf2+0x60>
  803720:	0803e600 	call	803e60 <__fpcmp_parts_f>
  803724:	100d883a 	mov	r6,r2
  803728:	3005883a 	mov	r2,r6
  80372c:	dfc00c17 	ldw	ra,48(sp)
  803730:	dc400b17 	ldw	r17,44(sp)
  803734:	dc000a17 	ldw	r16,40(sp)
  803738:	dec00d04 	addi	sp,sp,52
  80373c:	f800283a 	ret

00803740 <__gesf2>:
  803740:	defff304 	addi	sp,sp,-52
  803744:	dc400b15 	stw	r17,44(sp)
  803748:	dc400204 	addi	r17,sp,8
  80374c:	dc000a15 	stw	r16,40(sp)
  803750:	d9000015 	stw	r4,0(sp)
  803754:	d9400115 	stw	r5,4(sp)
  803758:	d809883a 	mov	r4,sp
  80375c:	880b883a 	mov	r5,r17
  803760:	dc000604 	addi	r16,sp,24
  803764:	dfc00c15 	stw	ra,48(sp)
  803768:	0803d980 	call	803d98 <__unpack_f>
  80376c:	d9000104 	addi	r4,sp,4
  803770:	800b883a 	mov	r5,r16
  803774:	0803d980 	call	803d98 <__unpack_f>
  803778:	d8800217 	ldw	r2,8(sp)
  80377c:	00c00044 	movi	r3,1
  803780:	01bfffc4 	movi	r6,-1
  803784:	1880062e 	bgeu	r3,r2,8037a0 <__gesf2+0x60>
  803788:	d8800617 	ldw	r2,24(sp)
  80378c:	8809883a 	mov	r4,r17
  803790:	800b883a 	mov	r5,r16
  803794:	1880022e 	bgeu	r3,r2,8037a0 <__gesf2+0x60>
  803798:	0803e600 	call	803e60 <__fpcmp_parts_f>
  80379c:	100d883a 	mov	r6,r2
  8037a0:	3005883a 	mov	r2,r6
  8037a4:	dfc00c17 	ldw	ra,48(sp)
  8037a8:	dc400b17 	ldw	r17,44(sp)
  8037ac:	dc000a17 	ldw	r16,40(sp)
  8037b0:	dec00d04 	addi	sp,sp,52
  8037b4:	f800283a 	ret

008037b8 <__ltsf2>:
  8037b8:	defff304 	addi	sp,sp,-52
  8037bc:	dc400b15 	stw	r17,44(sp)
  8037c0:	dc400204 	addi	r17,sp,8
  8037c4:	dc000a15 	stw	r16,40(sp)
  8037c8:	d9000015 	stw	r4,0(sp)
  8037cc:	d9400115 	stw	r5,4(sp)
  8037d0:	d809883a 	mov	r4,sp
  8037d4:	880b883a 	mov	r5,r17
  8037d8:	dc000604 	addi	r16,sp,24
  8037dc:	dfc00c15 	stw	ra,48(sp)
  8037e0:	0803d980 	call	803d98 <__unpack_f>
  8037e4:	d9000104 	addi	r4,sp,4
  8037e8:	800b883a 	mov	r5,r16
  8037ec:	0803d980 	call	803d98 <__unpack_f>
  8037f0:	d8800217 	ldw	r2,8(sp)
  8037f4:	00c00044 	movi	r3,1
  8037f8:	180d883a 	mov	r6,r3
  8037fc:	1880062e 	bgeu	r3,r2,803818 <__ltsf2+0x60>
  803800:	d8800617 	ldw	r2,24(sp)
  803804:	8809883a 	mov	r4,r17
  803808:	800b883a 	mov	r5,r16
  80380c:	1880022e 	bgeu	r3,r2,803818 <__ltsf2+0x60>
  803810:	0803e600 	call	803e60 <__fpcmp_parts_f>
  803814:	100d883a 	mov	r6,r2
  803818:	3005883a 	mov	r2,r6
  80381c:	dfc00c17 	ldw	ra,48(sp)
  803820:	dc400b17 	ldw	r17,44(sp)
  803824:	dc000a17 	ldw	r16,40(sp)
  803828:	dec00d04 	addi	sp,sp,52
  80382c:	f800283a 	ret

00803830 <__lesf2>:
  803830:	defff304 	addi	sp,sp,-52
  803834:	dc400b15 	stw	r17,44(sp)
  803838:	dc400204 	addi	r17,sp,8
  80383c:	dc000a15 	stw	r16,40(sp)
  803840:	d9000015 	stw	r4,0(sp)
  803844:	d9400115 	stw	r5,4(sp)
  803848:	d809883a 	mov	r4,sp
  80384c:	880b883a 	mov	r5,r17
  803850:	dc000604 	addi	r16,sp,24
  803854:	dfc00c15 	stw	ra,48(sp)
  803858:	0803d980 	call	803d98 <__unpack_f>
  80385c:	d9000104 	addi	r4,sp,4
  803860:	800b883a 	mov	r5,r16
  803864:	0803d980 	call	803d98 <__unpack_f>
  803868:	d8800217 	ldw	r2,8(sp)
  80386c:	00c00044 	movi	r3,1
  803870:	180d883a 	mov	r6,r3
  803874:	1880062e 	bgeu	r3,r2,803890 <__lesf2+0x60>
  803878:	d8800617 	ldw	r2,24(sp)
  80387c:	8809883a 	mov	r4,r17
  803880:	800b883a 	mov	r5,r16
  803884:	1880022e 	bgeu	r3,r2,803890 <__lesf2+0x60>
  803888:	0803e600 	call	803e60 <__fpcmp_parts_f>
  80388c:	100d883a 	mov	r6,r2
  803890:	3005883a 	mov	r2,r6
  803894:	dfc00c17 	ldw	ra,48(sp)
  803898:	dc400b17 	ldw	r17,44(sp)
  80389c:	dc000a17 	ldw	r16,40(sp)
  8038a0:	dec00d04 	addi	sp,sp,52
  8038a4:	f800283a 	ret

008038a8 <__floatsisf>:
  8038a8:	2006d7fa 	srli	r3,r4,31
  8038ac:	defffa04 	addi	sp,sp,-24
  8038b0:	008000c4 	movi	r2,3
  8038b4:	dfc00515 	stw	ra,20(sp)
  8038b8:	dc000415 	stw	r16,16(sp)
  8038bc:	d8800015 	stw	r2,0(sp)
  8038c0:	d8c00115 	stw	r3,4(sp)
  8038c4:	2000081e 	bne	r4,zero,8038e8 <__floatsisf+0x40>
  8038c8:	00800084 	movi	r2,2
  8038cc:	d8800015 	stw	r2,0(sp)
  8038d0:	d809883a 	mov	r4,sp
  8038d4:	0803c380 	call	803c38 <__pack_f>
  8038d8:	dfc00517 	ldw	ra,20(sp)
  8038dc:	dc000417 	ldw	r16,16(sp)
  8038e0:	dec00604 	addi	sp,sp,24
  8038e4:	f800283a 	ret
  8038e8:	00800784 	movi	r2,30
  8038ec:	1807003a 	cmpeq	r3,r3,zero
  8038f0:	d8800215 	stw	r2,8(sp)
  8038f4:	18000e1e 	bne	r3,zero,803930 <__floatsisf+0x88>
  8038f8:	00a00034 	movhi	r2,32768
  8038fc:	20800e26 	beq	r4,r2,803938 <__floatsisf+0x90>
  803900:	0121c83a 	sub	r16,zero,r4
  803904:	8009883a 	mov	r4,r16
  803908:	dc000315 	stw	r16,12(sp)
  80390c:	0803bb80 	call	803bb8 <__clzsi2>
  803910:	117fffc4 	addi	r5,r2,-1
  803914:	017fee0e 	bge	zero,r5,8038d0 <__floatsisf+0x28>
  803918:	d8800217 	ldw	r2,8(sp)
  80391c:	8146983a 	sll	r3,r16,r5
  803920:	1145c83a 	sub	r2,r2,r5
  803924:	d8c00315 	stw	r3,12(sp)
  803928:	d8800215 	stw	r2,8(sp)
  80392c:	003fe806 	br	8038d0 <__floatsisf+0x28>
  803930:	2021883a 	mov	r16,r4
  803934:	003ff306 	br	803904 <__floatsisf+0x5c>
  803938:	00b3c034 	movhi	r2,52992
  80393c:	003fe606 	br	8038d8 <__floatsisf+0x30>

00803940 <__fixsfsi>:
  803940:	defffa04 	addi	sp,sp,-24
  803944:	d9000015 	stw	r4,0(sp)
  803948:	d9400104 	addi	r5,sp,4
  80394c:	d809883a 	mov	r4,sp
  803950:	dfc00515 	stw	ra,20(sp)
  803954:	0803d980 	call	803d98 <__unpack_f>
  803958:	d8c00117 	ldw	r3,4(sp)
  80395c:	00800084 	movi	r2,2
  803960:	1880041e 	bne	r3,r2,803974 <__fixsfsi+0x34>
  803964:	0005883a 	mov	r2,zero
  803968:	dfc00517 	ldw	ra,20(sp)
  80396c:	dec00604 	addi	sp,sp,24
  803970:	f800283a 	ret
  803974:	00800044 	movi	r2,1
  803978:	10fffa2e 	bgeu	r2,r3,803964 <__fixsfsi+0x24>
  80397c:	00800104 	movi	r2,4
  803980:	18800426 	beq	r3,r2,803994 <__fixsfsi+0x54>
  803984:	d8800317 	ldw	r2,12(sp)
  803988:	103ff616 	blt	r2,zero,803964 <__fixsfsi+0x24>
  80398c:	00c00784 	movi	r3,30
  803990:	1880070e 	bge	r3,r2,8039b0 <__fixsfsi+0x70>
  803994:	d8800217 	ldw	r2,8(sp)
  803998:	10000c1e 	bne	r2,zero,8039cc <__fixsfsi+0x8c>
  80399c:	00a00034 	movhi	r2,32768
  8039a0:	10bfffc4 	addi	r2,r2,-1
  8039a4:	dfc00517 	ldw	ra,20(sp)
  8039a8:	dec00604 	addi	sp,sp,24
  8039ac:	f800283a 	ret
  8039b0:	1885c83a 	sub	r2,r3,r2
  8039b4:	d9000217 	ldw	r4,8(sp)
  8039b8:	d8c00417 	ldw	r3,16(sp)
  8039bc:	1884d83a 	srl	r2,r3,r2
  8039c0:	203fe926 	beq	r4,zero,803968 <__fixsfsi+0x28>
  8039c4:	0085c83a 	sub	r2,zero,r2
  8039c8:	003fe706 	br	803968 <__fixsfsi+0x28>
  8039cc:	00a00034 	movhi	r2,32768
  8039d0:	003fe506 	br	803968 <__fixsfsi+0x28>

008039d4 <udivmodsi4>:
  8039d4:	29001b2e 	bgeu	r5,r4,803a44 <udivmodsi4+0x70>
  8039d8:	28001a16 	blt	r5,zero,803a44 <udivmodsi4+0x70>
  8039dc:	00800044 	movi	r2,1
  8039e0:	0007883a 	mov	r3,zero
  8039e4:	01c007c4 	movi	r7,31
  8039e8:	00000306 	br	8039f8 <udivmodsi4+0x24>
  8039ec:	19c01326 	beq	r3,r7,803a3c <udivmodsi4+0x68>
  8039f0:	18c00044 	addi	r3,r3,1
  8039f4:	28000416 	blt	r5,zero,803a08 <udivmodsi4+0x34>
  8039f8:	294b883a 	add	r5,r5,r5
  8039fc:	1085883a 	add	r2,r2,r2
  803a00:	293ffa36 	bltu	r5,r4,8039ec <udivmodsi4+0x18>
  803a04:	10000d26 	beq	r2,zero,803a3c <udivmodsi4+0x68>
  803a08:	0007883a 	mov	r3,zero
  803a0c:	21400236 	bltu	r4,r5,803a18 <udivmodsi4+0x44>
  803a10:	2149c83a 	sub	r4,r4,r5
  803a14:	1886b03a 	or	r3,r3,r2
  803a18:	1004d07a 	srli	r2,r2,1
  803a1c:	280ad07a 	srli	r5,r5,1
  803a20:	103ffa1e 	bne	r2,zero,803a0c <udivmodsi4+0x38>
  803a24:	30000226 	beq	r6,zero,803a30 <udivmodsi4+0x5c>
  803a28:	2005883a 	mov	r2,r4
  803a2c:	f800283a 	ret
  803a30:	1809883a 	mov	r4,r3
  803a34:	2005883a 	mov	r2,r4
  803a38:	f800283a 	ret
  803a3c:	0007883a 	mov	r3,zero
  803a40:	003ff806 	br	803a24 <udivmodsi4+0x50>
  803a44:	00800044 	movi	r2,1
  803a48:	0007883a 	mov	r3,zero
  803a4c:	003fef06 	br	803a0c <udivmodsi4+0x38>

00803a50 <__divsi3>:
  803a50:	defffe04 	addi	sp,sp,-8
  803a54:	dc000015 	stw	r16,0(sp)
  803a58:	dfc00115 	stw	ra,4(sp)
  803a5c:	0021883a 	mov	r16,zero
  803a60:	20000c16 	blt	r4,zero,803a94 <__divsi3+0x44>
  803a64:	000d883a 	mov	r6,zero
  803a68:	28000e16 	blt	r5,zero,803aa4 <__divsi3+0x54>
  803a6c:	08039d40 	call	8039d4 <udivmodsi4>
  803a70:	1007883a 	mov	r3,r2
  803a74:	8005003a 	cmpeq	r2,r16,zero
  803a78:	1000011e 	bne	r2,zero,803a80 <__divsi3+0x30>
  803a7c:	00c7c83a 	sub	r3,zero,r3
  803a80:	1805883a 	mov	r2,r3
  803a84:	dfc00117 	ldw	ra,4(sp)
  803a88:	dc000017 	ldw	r16,0(sp)
  803a8c:	dec00204 	addi	sp,sp,8
  803a90:	f800283a 	ret
  803a94:	0109c83a 	sub	r4,zero,r4
  803a98:	04000044 	movi	r16,1
  803a9c:	000d883a 	mov	r6,zero
  803aa0:	283ff20e 	bge	r5,zero,803a6c <__divsi3+0x1c>
  803aa4:	014bc83a 	sub	r5,zero,r5
  803aa8:	8021003a 	cmpeq	r16,r16,zero
  803aac:	003fef06 	br	803a6c <__divsi3+0x1c>

00803ab0 <__modsi3>:
  803ab0:	deffff04 	addi	sp,sp,-4
  803ab4:	dfc00015 	stw	ra,0(sp)
  803ab8:	01800044 	movi	r6,1
  803abc:	2807883a 	mov	r3,r5
  803ac0:	20000416 	blt	r4,zero,803ad4 <__modsi3+0x24>
  803ac4:	28000c16 	blt	r5,zero,803af8 <__modsi3+0x48>
  803ac8:	dfc00017 	ldw	ra,0(sp)
  803acc:	dec00104 	addi	sp,sp,4
  803ad0:	08039d41 	jmpi	8039d4 <udivmodsi4>
  803ad4:	0109c83a 	sub	r4,zero,r4
  803ad8:	28000b16 	blt	r5,zero,803b08 <__modsi3+0x58>
  803adc:	180b883a 	mov	r5,r3
  803ae0:	01800044 	movi	r6,1
  803ae4:	08039d40 	call	8039d4 <udivmodsi4>
  803ae8:	0085c83a 	sub	r2,zero,r2
  803aec:	dfc00017 	ldw	ra,0(sp)
  803af0:	dec00104 	addi	sp,sp,4
  803af4:	f800283a 	ret
  803af8:	014bc83a 	sub	r5,zero,r5
  803afc:	dfc00017 	ldw	ra,0(sp)
  803b00:	dec00104 	addi	sp,sp,4
  803b04:	08039d41 	jmpi	8039d4 <udivmodsi4>
  803b08:	0147c83a 	sub	r3,zero,r5
  803b0c:	003ff306 	br	803adc <__modsi3+0x2c>

00803b10 <__udivsi3>:
  803b10:	000d883a 	mov	r6,zero
  803b14:	08039d41 	jmpi	8039d4 <udivmodsi4>

00803b18 <__umodsi3>:
  803b18:	01800044 	movi	r6,1
  803b1c:	08039d41 	jmpi	8039d4 <udivmodsi4>

00803b20 <__muldi3>:
  803b20:	2011883a 	mov	r8,r4
  803b24:	427fffcc 	andi	r9,r8,65535
  803b28:	4018d43a 	srli	r12,r8,16
  803b2c:	32bfffcc 	andi	r10,r6,65535
  803b30:	3016d43a 	srli	r11,r6,16
  803b34:	4a85383a 	mul	r2,r9,r10
  803b38:	6295383a 	mul	r10,r12,r10
  803b3c:	4ad3383a 	mul	r9,r9,r11
  803b40:	113fffcc 	andi	r4,r2,65535
  803b44:	1004d43a 	srli	r2,r2,16
  803b48:	4a93883a 	add	r9,r9,r10
  803b4c:	3807883a 	mov	r3,r7
  803b50:	1245883a 	add	r2,r2,r9
  803b54:	280f883a 	mov	r7,r5
  803b58:	180b883a 	mov	r5,r3
  803b5c:	1006943a 	slli	r3,r2,16
  803b60:	defffd04 	addi	sp,sp,-12
  803b64:	dc800215 	stw	r18,8(sp)
  803b68:	1907883a 	add	r3,r3,r4
  803b6c:	dc400115 	stw	r17,4(sp)
  803b70:	dc000015 	stw	r16,0(sp)
  803b74:	4165383a 	mul	r18,r8,r5
  803b78:	31e3383a 	mul	r17,r6,r7
  803b7c:	1012d43a 	srli	r9,r2,16
  803b80:	62d9383a 	mul	r12,r12,r11
  803b84:	181f883a 	mov	r15,r3
  803b88:	1280022e 	bgeu	r2,r10,803b94 <__muldi3+0x74>
  803b8c:	00800074 	movhi	r2,1
  803b90:	6099883a 	add	r12,r12,r2
  803b94:	624d883a 	add	r6,r12,r9
  803b98:	9187883a 	add	r3,r18,r6
  803b9c:	88c7883a 	add	r3,r17,r3
  803ba0:	7805883a 	mov	r2,r15
  803ba4:	dc800217 	ldw	r18,8(sp)
  803ba8:	dc400117 	ldw	r17,4(sp)
  803bac:	dc000017 	ldw	r16,0(sp)
  803bb0:	dec00304 	addi	sp,sp,12
  803bb4:	f800283a 	ret

00803bb8 <__clzsi2>:
  803bb8:	00bfffd4 	movui	r2,65535
  803bbc:	11000e36 	bltu	r2,r4,803bf8 <__clzsi2+0x40>
  803bc0:	00803fc4 	movi	r2,255
  803bc4:	01400204 	movi	r5,8
  803bc8:	0007883a 	mov	r3,zero
  803bcc:	11001036 	bltu	r2,r4,803c10 <__clzsi2+0x58>
  803bd0:	000b883a 	mov	r5,zero
  803bd4:	20c6d83a 	srl	r3,r4,r3
  803bd8:	00802074 	movhi	r2,129
  803bdc:	1086ff04 	addi	r2,r2,7164
  803be0:	1887883a 	add	r3,r3,r2
  803be4:	18800003 	ldbu	r2,0(r3)
  803be8:	00c00804 	movi	r3,32
  803bec:	2885883a 	add	r2,r5,r2
  803bf0:	1885c83a 	sub	r2,r3,r2
  803bf4:	f800283a 	ret
  803bf8:	01400404 	movi	r5,16
  803bfc:	00804034 	movhi	r2,256
  803c00:	10bfffc4 	addi	r2,r2,-1
  803c04:	2807883a 	mov	r3,r5
  803c08:	113ff22e 	bgeu	r2,r4,803bd4 <__clzsi2+0x1c>
  803c0c:	01400604 	movi	r5,24
  803c10:	2807883a 	mov	r3,r5
  803c14:	20c6d83a 	srl	r3,r4,r3
  803c18:	00802074 	movhi	r2,129
  803c1c:	1086ff04 	addi	r2,r2,7164
  803c20:	1887883a 	add	r3,r3,r2
  803c24:	18800003 	ldbu	r2,0(r3)
  803c28:	00c00804 	movi	r3,32
  803c2c:	2885883a 	add	r2,r5,r2
  803c30:	1885c83a 	sub	r2,r3,r2
  803c34:	f800283a 	ret

00803c38 <__pack_f>:
  803c38:	20c00017 	ldw	r3,0(r4)
  803c3c:	01c00044 	movi	r7,1
  803c40:	21800317 	ldw	r6,12(r4)
  803c44:	21400117 	ldw	r5,4(r4)
  803c48:	38c02d2e 	bgeu	r7,r3,803d00 <__pack_f+0xc8>
  803c4c:	00800104 	movi	r2,4
  803c50:	18802826 	beq	r3,r2,803cf4 <__pack_f+0xbc>
  803c54:	00800084 	movi	r2,2
  803c58:	18800126 	beq	r3,r2,803c60 <__pack_f+0x28>
  803c5c:	3000101e 	bne	r6,zero,803ca0 <__pack_f+0x68>
  803c60:	000d883a 	mov	r6,zero
  803c64:	0007883a 	mov	r3,zero
  803c68:	19003fcc 	andi	r4,r3,255
  803c6c:	200895fa 	slli	r4,r4,23
  803c70:	00c02034 	movhi	r3,128
  803c74:	18ffffc4 	addi	r3,r3,-1
  803c78:	30c6703a 	and	r3,r6,r3
  803c7c:	10a0002c 	andhi	r2,r2,32768
  803c80:	10c4b03a 	or	r2,r2,r3
  803c84:	280a97fa 	slli	r5,r5,31
  803c88:	1104b03a 	or	r2,r2,r4
  803c8c:	00e00034 	movhi	r3,32768
  803c90:	18ffffc4 	addi	r3,r3,-1
  803c94:	10c4703a 	and	r2,r2,r3
  803c98:	1144b03a 	or	r2,r2,r5
  803c9c:	f800283a 	ret
  803ca0:	21000217 	ldw	r4,8(r4)
  803ca4:	00bfe084 	movi	r2,-126
  803ca8:	20801b16 	blt	r4,r2,803d18 <__pack_f+0xe0>
  803cac:	00801fc4 	movi	r2,127
  803cb0:	11001016 	blt	r2,r4,803cf4 <__pack_f+0xbc>
  803cb4:	308e703a 	and	r7,r6,r2
  803cb8:	2087883a 	add	r3,r4,r2
  803cbc:	00801004 	movi	r2,64
  803cc0:	38800526 	beq	r7,r2,803cd8 <__pack_f+0xa0>
  803cc4:	31800fc4 	addi	r6,r6,63
  803cc8:	30000716 	blt	r6,zero,803ce8 <__pack_f+0xb0>
  803ccc:	300490ba 	slli	r2,r6,2
  803cd0:	100cd27a 	srli	r6,r2,9
  803cd4:	003fe406 	br	803c68 <__pack_f+0x30>
  803cd8:	3080200c 	andi	r2,r6,128
  803cdc:	103ffa26 	beq	r2,zero,803cc8 <__pack_f+0x90>
  803ce0:	31cd883a 	add	r6,r6,r7
  803ce4:	003ff806 	br	803cc8 <__pack_f+0x90>
  803ce8:	300cd07a 	srli	r6,r6,1
  803cec:	18c00044 	addi	r3,r3,1
  803cf0:	003ff606 	br	803ccc <__pack_f+0x94>
  803cf4:	000d883a 	mov	r6,zero
  803cf8:	00ffffc4 	movi	r3,-1
  803cfc:	003fda06 	br	803c68 <__pack_f+0x30>
  803d00:	31800434 	orhi	r6,r6,16
  803d04:	00802034 	movhi	r2,128
  803d08:	10bfffc4 	addi	r2,r2,-1
  803d0c:	308c703a 	and	r6,r6,r2
  803d10:	00ffffc4 	movi	r3,-1
  803d14:	003fd406 	br	803c68 <__pack_f+0x30>
  803d18:	1109c83a 	sub	r4,r2,r4
  803d1c:	00800644 	movi	r2,25
  803d20:	11001216 	blt	r2,r4,803d6c <__pack_f+0x134>
  803d24:	3904983a 	sll	r2,r7,r4
  803d28:	3106d83a 	srl	r3,r6,r4
  803d2c:	10bfffc4 	addi	r2,r2,-1
  803d30:	3084703a 	and	r2,r6,r2
  803d34:	1004c03a 	cmpne	r2,r2,zero
  803d38:	1886b03a 	or	r3,r3,r2
  803d3c:	19001fcc 	andi	r4,r3,127
  803d40:	00801004 	movi	r2,64
  803d44:	20800c26 	beq	r4,r2,803d78 <__pack_f+0x140>
  803d48:	18c00fc4 	addi	r3,r3,63
  803d4c:	00900034 	movhi	r2,16384
  803d50:	10bfffc4 	addi	r2,r2,-1
  803d54:	180cd1fa 	srli	r6,r3,7
  803d58:	10c7803a 	cmpltu	r3,r2,r3
  803d5c:	00802034 	movhi	r2,128
  803d60:	10bfffc4 	addi	r2,r2,-1
  803d64:	308c703a 	and	r6,r6,r2
  803d68:	003fbf06 	br	803c68 <__pack_f+0x30>
  803d6c:	0007883a 	mov	r3,zero
  803d70:	000d883a 	mov	r6,zero
  803d74:	003ff906 	br	803d5c <__pack_f+0x124>
  803d78:	1880200c 	andi	r2,r3,128
  803d7c:	10000126 	beq	r2,zero,803d84 <__pack_f+0x14c>
  803d80:	1907883a 	add	r3,r3,r4
  803d84:	180cd1fa 	srli	r6,r3,7
  803d88:	00900034 	movhi	r2,16384
  803d8c:	10bfffc4 	addi	r2,r2,-1
  803d90:	10c7803a 	cmpltu	r3,r2,r3
  803d94:	003ff106 	br	803d5c <__pack_f+0x124>

00803d98 <__unpack_f>:
  803d98:	21800017 	ldw	r6,0(r4)
  803d9c:	00c02034 	movhi	r3,128
  803da0:	18ffffc4 	addi	r3,r3,-1
  803da4:	3004d5fa 	srli	r2,r6,23
  803da8:	3008d7fa 	srli	r4,r6,31
  803dac:	30ce703a 	and	r7,r6,r3
  803db0:	10c03fcc 	andi	r3,r2,255
  803db4:	29000115 	stw	r4,4(r5)
  803db8:	1800131e 	bne	r3,zero,803e08 <__unpack_f+0x70>
  803dbc:	38000f26 	beq	r7,zero,803dfc <__unpack_f+0x64>
  803dc0:	380691fa 	slli	r3,r7,7
  803dc4:	01bfe084 	movi	r6,-126
  803dc8:	008000c4 	movi	r2,3
  803dcc:	01100034 	movhi	r4,16384
  803dd0:	213fffc4 	addi	r4,r4,-1
  803dd4:	28800015 	stw	r2,0(r5)
  803dd8:	29800215 	stw	r6,8(r5)
  803ddc:	20c00536 	bltu	r4,r3,803df4 <__unpack_f+0x5c>
  803de0:	3005883a 	mov	r2,r6
  803de4:	18c7883a 	add	r3,r3,r3
  803de8:	10bfffc4 	addi	r2,r2,-1
  803dec:	20fffd2e 	bgeu	r4,r3,803de4 <__unpack_f+0x4c>
  803df0:	28800215 	stw	r2,8(r5)
  803df4:	28c00315 	stw	r3,12(r5)
  803df8:	f800283a 	ret
  803dfc:	00800084 	movi	r2,2
  803e00:	28800015 	stw	r2,0(r5)
  803e04:	f800283a 	ret
  803e08:	00803fc4 	movi	r2,255
  803e0c:	18800826 	beq	r3,r2,803e30 <__unpack_f+0x98>
  803e10:	380491fa 	slli	r2,r7,7
  803e14:	18ffe044 	addi	r3,r3,-127
  803e18:	28c00215 	stw	r3,8(r5)
  803e1c:	10900034 	orhi	r2,r2,16384
  803e20:	28800315 	stw	r2,12(r5)
  803e24:	008000c4 	movi	r2,3
  803e28:	28800015 	stw	r2,0(r5)
  803e2c:	f800283a 	ret
  803e30:	3800031e 	bne	r7,zero,803e40 <__unpack_f+0xa8>
  803e34:	00800104 	movi	r2,4
  803e38:	28800015 	stw	r2,0(r5)
  803e3c:	f800283a 	ret
  803e40:	3080042c 	andhi	r2,r6,16
  803e44:	10000426 	beq	r2,zero,803e58 <__unpack_f+0xc0>
  803e48:	00800044 	movi	r2,1
  803e4c:	28800015 	stw	r2,0(r5)
  803e50:	29c00315 	stw	r7,12(r5)
  803e54:	f800283a 	ret
  803e58:	28000015 	stw	zero,0(r5)
  803e5c:	003ffc06 	br	803e50 <__unpack_f+0xb8>

00803e60 <__fpcmp_parts_f>:
  803e60:	21800017 	ldw	r6,0(r4)
  803e64:	00c00044 	movi	r3,1
  803e68:	19800a2e 	bgeu	r3,r6,803e94 <__fpcmp_parts_f+0x34>
  803e6c:	28800017 	ldw	r2,0(r5)
  803e70:	1880082e 	bgeu	r3,r2,803e94 <__fpcmp_parts_f+0x34>
  803e74:	00c00104 	movi	r3,4
  803e78:	30c01e26 	beq	r6,r3,803ef4 <__fpcmp_parts_f+0x94>
  803e7c:	10c01a26 	beq	r2,r3,803ee8 <__fpcmp_parts_f+0x88>
  803e80:	00c00084 	movi	r3,2
  803e84:	30c00526 	beq	r6,r3,803e9c <__fpcmp_parts_f+0x3c>
  803e88:	10c0071e 	bne	r2,r3,803ea8 <__fpcmp_parts_f+0x48>
  803e8c:	20800117 	ldw	r2,4(r4)
  803e90:	1000091e 	bne	r2,zero,803eb8 <__fpcmp_parts_f+0x58>
  803e94:	00800044 	movi	r2,1
  803e98:	f800283a 	ret
  803e9c:	10c0121e 	bne	r2,r3,803ee8 <__fpcmp_parts_f+0x88>
  803ea0:	0005883a 	mov	r2,zero
  803ea4:	f800283a 	ret
  803ea8:	20c00117 	ldw	r3,4(r4)
  803eac:	28800117 	ldw	r2,4(r5)
  803eb0:	18800326 	beq	r3,r2,803ec0 <__fpcmp_parts_f+0x60>
  803eb4:	183ff726 	beq	r3,zero,803e94 <__fpcmp_parts_f+0x34>
  803eb8:	00bfffc4 	movi	r2,-1
  803ebc:	f800283a 	ret
  803ec0:	21800217 	ldw	r6,8(r4)
  803ec4:	28800217 	ldw	r2,8(r5)
  803ec8:	11bffa16 	blt	r2,r6,803eb4 <__fpcmp_parts_f+0x54>
  803ecc:	30800416 	blt	r6,r2,803ee0 <__fpcmp_parts_f+0x80>
  803ed0:	21000317 	ldw	r4,12(r4)
  803ed4:	29400317 	ldw	r5,12(r5)
  803ed8:	293ff636 	bltu	r5,r4,803eb4 <__fpcmp_parts_f+0x54>
  803edc:	217ff02e 	bgeu	r4,r5,803ea0 <__fpcmp_parts_f+0x40>
  803ee0:	183fec1e 	bne	r3,zero,803e94 <__fpcmp_parts_f+0x34>
  803ee4:	003ff406 	br	803eb8 <__fpcmp_parts_f+0x58>
  803ee8:	28800117 	ldw	r2,4(r5)
  803eec:	103fe91e 	bne	r2,zero,803e94 <__fpcmp_parts_f+0x34>
  803ef0:	003ff106 	br	803eb8 <__fpcmp_parts_f+0x58>
  803ef4:	11bfe51e 	bne	r2,r6,803e8c <__fpcmp_parts_f+0x2c>
  803ef8:	28c00117 	ldw	r3,4(r5)
  803efc:	20800117 	ldw	r2,4(r4)
  803f00:	1885c83a 	sub	r2,r3,r2
  803f04:	f800283a 	ret

00803f08 <_fopen_r>:
  803f08:	defffa04 	addi	sp,sp,-24
  803f0c:	dcc00415 	stw	r19,16(sp)
  803f10:	2827883a 	mov	r19,r5
  803f14:	300b883a 	mov	r5,r6
  803f18:	d80d883a 	mov	r6,sp
  803f1c:	dc800315 	stw	r18,12(sp)
  803f20:	dc400215 	stw	r17,8(sp)
  803f24:	dc000115 	stw	r16,4(sp)
  803f28:	dfc00515 	stw	ra,20(sp)
  803f2c:	2021883a 	mov	r16,r4
  803f30:	08069780 	call	806978 <__sflags>
  803f34:	1025883a 	mov	r18,r2
  803f38:	8009883a 	mov	r4,r16
  803f3c:	0023883a 	mov	r17,zero
  803f40:	1000081e 	bne	r2,zero,803f64 <_fopen_r+0x5c>
  803f44:	8805883a 	mov	r2,r17
  803f48:	dfc00517 	ldw	ra,20(sp)
  803f4c:	dcc00417 	ldw	r19,16(sp)
  803f50:	dc800317 	ldw	r18,12(sp)
  803f54:	dc400217 	ldw	r17,8(sp)
  803f58:	dc000117 	ldw	r16,4(sp)
  803f5c:	dec00604 	addi	sp,sp,24
  803f60:	f800283a 	ret
  803f64:	08068880 	call	806888 <__sfp>
  803f68:	1023883a 	mov	r17,r2
  803f6c:	980b883a 	mov	r5,r19
  803f70:	8009883a 	mov	r4,r16
  803f74:	01c06d84 	movi	r7,438
  803f78:	103ff226 	beq	r2,zero,803f44 <_fopen_r+0x3c>
  803f7c:	d9800017 	ldw	r6,0(sp)
  803f80:	08056780 	call	805678 <_open_r>
  803f84:	10001816 	blt	r2,zero,803fe8 <_fopen_r+0xe0>
  803f88:	00c02034 	movhi	r3,128
  803f8c:	18d6de04 	addi	r3,r3,23416
  803f90:	923fffcc 	andi	r8,r18,65535
  803f94:	8880038d 	sth	r2,14(r17)
  803f98:	00802034 	movhi	r2,128
  803f9c:	1096fd04 	addi	r2,r2,23540
  803fa0:	88800815 	stw	r2,32(r17)
  803fa4:	88c00915 	stw	r3,36(r17)
  803fa8:	00802034 	movhi	r2,128
  803fac:	1096c404 	addi	r2,r2,23312
  803fb0:	00c02034 	movhi	r3,128
  803fb4:	18d6c204 	addi	r3,r3,23304
  803fb8:	4200400c 	andi	r8,r8,256
  803fbc:	8c80030d 	sth	r18,12(r17)
  803fc0:	8009883a 	mov	r4,r16
  803fc4:	880b883a 	mov	r5,r17
  803fc8:	000d883a 	mov	r6,zero
  803fcc:	01c00084 	movi	r7,2
  803fd0:	88800a15 	stw	r2,40(r17)
  803fd4:	88c00b15 	stw	r3,44(r17)
  803fd8:	8c400715 	stw	r17,28(r17)
  803fdc:	403fd926 	beq	r8,zero,803f44 <_fopen_r+0x3c>
  803fe0:	08046940 	call	804694 <_fseek_r>
  803fe4:	003fd706 	br	803f44 <_fopen_r+0x3c>
  803fe8:	08067100 	call	806710 <__sfp_lock_acquire>
  803fec:	8800030d 	sth	zero,12(r17)
  803ff0:	08067140 	call	806714 <__sfp_lock_release>
  803ff4:	0023883a 	mov	r17,zero
  803ff8:	003fd206 	br	803f44 <_fopen_r+0x3c>

00803ffc <fopen>:
  803ffc:	01802074 	movhi	r6,129
  804000:	31913f04 	addi	r6,r6,17660
  804004:	2007883a 	mov	r3,r4
  804008:	31000017 	ldw	r4,0(r6)
  80400c:	280d883a 	mov	r6,r5
  804010:	180b883a 	mov	r5,r3
  804014:	0803f081 	jmpi	803f08 <_fopen_r>

00804018 <_fread_r>:
  804018:	defff504 	addi	sp,sp,-44
  80401c:	ddc00815 	stw	r23,32(sp)
  804020:	39af383a 	mul	r23,r7,r6
  804024:	df000915 	stw	fp,36(sp)
  804028:	dd800715 	stw	r22,28(sp)
  80402c:	dcc00415 	stw	r19,16(sp)
  804030:	dc000115 	stw	r16,4(sp)
  804034:	dfc00a15 	stw	ra,40(sp)
  804038:	dd400615 	stw	r21,24(sp)
  80403c:	dd000515 	stw	r20,20(sp)
  804040:	dc800315 	stw	r18,12(sp)
  804044:	dc400215 	stw	r17,8(sp)
  804048:	d9800015 	stw	r6,0(sp)
  80404c:	3839883a 	mov	fp,r7
  804050:	2821883a 	mov	r16,r5
  804054:	202d883a 	mov	r22,r4
  804058:	dcc00b17 	ldw	r19,44(sp)
  80405c:	b8005926 	beq	r23,zero,8041c4 <_fread_r+0x1ac>
  804060:	20000226 	beq	r4,zero,80406c <_fread_r+0x54>
  804064:	20800e17 	ldw	r2,56(r4)
  804068:	10005826 	beq	r2,zero,8041cc <_fread_r+0x1b4>
  80406c:	9c400117 	ldw	r17,4(r19)
  804070:	88005916 	blt	r17,zero,8041d8 <_fread_r+0x1c0>
  804074:	9880030b 	ldhu	r2,12(r19)
  804078:	8029883a 	mov	r20,r16
  80407c:	1080008c 	andi	r2,r2,2
  804080:	1000221e 	bne	r2,zero,80410c <_fread_r+0xf4>
  804084:	b825883a 	mov	r18,r23
  804088:	00000106 	br	804090 <_fread_r+0x78>
  80408c:	9c400117 	ldw	r17,4(r19)
  804090:	a009883a 	mov	r4,r20
  804094:	880d883a 	mov	r6,r17
  804098:	8c80542e 	bgeu	r17,r18,8041ec <_fread_r+0x1d4>
  80409c:	99400017 	ldw	r5,0(r19)
  8040a0:	a469883a 	add	r20,r20,r17
  8040a4:	9465c83a 	sub	r18,r18,r17
  8040a8:	08055400 	call	805540 <memcpy>
  8040ac:	98800017 	ldw	r2,0(r19)
  8040b0:	b009883a 	mov	r4,r22
  8040b4:	980b883a 	mov	r5,r19
  8040b8:	1461883a 	add	r16,r2,r17
  8040bc:	9c000015 	stw	r16,0(r19)
  8040c0:	08058b80 	call	8058b8 <__srefill_r>
  8040c4:	103ff126 	beq	r2,zero,80408c <_fread_r+0x74>
  8040c8:	d9400017 	ldw	r5,0(sp)
  8040cc:	bc89c83a 	sub	r4,r23,r18
  8040d0:	0803b100 	call	803b10 <__udivsi3>
  8040d4:	1039883a 	mov	fp,r2
  8040d8:	e005883a 	mov	r2,fp
  8040dc:	dfc00a17 	ldw	ra,40(sp)
  8040e0:	df000917 	ldw	fp,36(sp)
  8040e4:	ddc00817 	ldw	r23,32(sp)
  8040e8:	dd800717 	ldw	r22,28(sp)
  8040ec:	dd400617 	ldw	r21,24(sp)
  8040f0:	dd000517 	ldw	r20,20(sp)
  8040f4:	dcc00417 	ldw	r19,16(sp)
  8040f8:	dc800317 	ldw	r18,12(sp)
  8040fc:	dc400217 	ldw	r17,8(sp)
  804100:	dc000117 	ldw	r16,4(sp)
  804104:	dec00b04 	addi	sp,sp,44
  804108:	f800283a 	ret
  80410c:	b825883a 	mov	r18,r23
  804110:	8dc03436 	bltu	r17,r23,8041e4 <_fread_r+0x1cc>
  804114:	99400017 	ldw	r5,0(r19)
  804118:	a009883a 	mov	r4,r20
  80411c:	900d883a 	mov	r6,r18
  804120:	08055400 	call	805540 <memcpy>
  804124:	9c000017 	ldw	r16,0(r19)
  804128:	98800117 	ldw	r2,4(r19)
  80412c:	99400c17 	ldw	r5,48(r19)
  804130:	84a1883a 	add	r16,r16,r18
  804134:	14a3c83a 	sub	r17,r2,r18
  804138:	a4ab883a 	add	r21,r20,r18
  80413c:	9c400115 	stw	r17,4(r19)
  804140:	9c000015 	stw	r16,0(r19)
  804144:	bca9c83a 	sub	r20,r23,r18
  804148:	28000826 	beq	r5,zero,80416c <_fread_r+0x154>
  80414c:	a03fe226 	beq	r20,zero,8040d8 <_fread_r+0xc0>
  804150:	98801004 	addi	r2,r19,64
  804154:	28800326 	beq	r5,r2,804164 <_fread_r+0x14c>
  804158:	b009883a 	mov	r4,r22
  80415c:	08043800 	call	804380 <_free_r>
  804160:	9c000017 	ldw	r16,0(r19)
  804164:	98000c15 	stw	zero,48(r19)
  804168:	00000106 	br	804170 <_fread_r+0x158>
  80416c:	a03fda26 	beq	r20,zero,8040d8 <_fread_r+0xc0>
  804170:	9c800417 	ldw	r18,16(r19)
  804174:	9c400517 	ldw	r17,20(r19)
  804178:	9d400015 	stw	r21,0(r19)
  80417c:	9d400415 	stw	r21,16(r19)
  804180:	9d000515 	stw	r20,20(r19)
  804184:	b009883a 	mov	r4,r22
  804188:	980b883a 	mov	r5,r19
  80418c:	08058b80 	call	8058b8 <__srefill_r>
  804190:	98c00117 	ldw	r3,4(r19)
  804194:	9c800415 	stw	r18,16(r19)
  804198:	9c400515 	stw	r17,20(r19)
  80419c:	a8eb883a 	add	r21,r21,r3
  8041a0:	9c000015 	stw	r16,0(r19)
  8041a4:	a0e9c83a 	sub	r20,r20,r3
  8041a8:	98000115 	stw	zero,4(r19)
  8041ac:	103fef26 	beq	r2,zero,80416c <_fread_r+0x154>
  8041b0:	d9400017 	ldw	r5,0(sp)
  8041b4:	bd09c83a 	sub	r4,r23,r20
  8041b8:	0803b100 	call	803b10 <__udivsi3>
  8041bc:	1039883a 	mov	fp,r2
  8041c0:	003fc506 	br	8040d8 <_fread_r+0xc0>
  8041c4:	0039883a 	mov	fp,zero
  8041c8:	003fc306 	br	8040d8 <_fread_r+0xc0>
  8041cc:	08067200 	call	806720 <__sinit>
  8041d0:	9c400117 	ldw	r17,4(r19)
  8041d4:	883fa70e 	bge	r17,zero,804074 <_fread_r+0x5c>
  8041d8:	0023883a 	mov	r17,zero
  8041dc:	98000115 	stw	zero,4(r19)
  8041e0:	003fa406 	br	804074 <_fread_r+0x5c>
  8041e4:	8825883a 	mov	r18,r17
  8041e8:	003fca06 	br	804114 <_fread_r+0xfc>
  8041ec:	99400017 	ldw	r5,0(r19)
  8041f0:	900d883a 	mov	r6,r18
  8041f4:	08055400 	call	805540 <memcpy>
  8041f8:	98c00117 	ldw	r3,4(r19)
  8041fc:	98800017 	ldw	r2,0(r19)
  804200:	1c87c83a 	sub	r3,r3,r18
  804204:	1485883a 	add	r2,r2,r18
  804208:	98800015 	stw	r2,0(r19)
  80420c:	98c00115 	stw	r3,4(r19)
  804210:	003fb106 	br	8040d8 <_fread_r+0xc0>

00804214 <fread>:
  804214:	00802074 	movhi	r2,129
  804218:	10913f04 	addi	r2,r2,17660
  80421c:	2017883a 	mov	r11,r4
  804220:	11000017 	ldw	r4,0(r2)
  804224:	defffe04 	addi	sp,sp,-8
  804228:	3013883a 	mov	r9,r6
  80422c:	2805883a 	mov	r2,r5
  804230:	d9c00015 	stw	r7,0(sp)
  804234:	580b883a 	mov	r5,r11
  804238:	100d883a 	mov	r6,r2
  80423c:	480f883a 	mov	r7,r9
  804240:	dfc00115 	stw	ra,4(sp)
  804244:	08040180 	call	804018 <_fread_r>
  804248:	dfc00117 	ldw	ra,4(sp)
  80424c:	dec00204 	addi	sp,sp,8
  804250:	f800283a 	ret

00804254 <_malloc_trim_r>:
  804254:	defffb04 	addi	sp,sp,-20
  804258:	dcc00315 	stw	r19,12(sp)
  80425c:	04c02074 	movhi	r19,129
  804260:	9ccb0a04 	addi	r19,r19,11304
  804264:	dc800215 	stw	r18,8(sp)
  804268:	dc400115 	stw	r17,4(sp)
  80426c:	dc000015 	stw	r16,0(sp)
  804270:	2823883a 	mov	r17,r5
  804274:	2025883a 	mov	r18,r4
  804278:	dfc00415 	stw	ra,16(sp)
  80427c:	08089440 	call	808944 <__malloc_lock>
  804280:	98800217 	ldw	r2,8(r19)
  804284:	9009883a 	mov	r4,r18
  804288:	000b883a 	mov	r5,zero
  80428c:	10c00117 	ldw	r3,4(r2)
  804290:	00bfff04 	movi	r2,-4
  804294:	18a0703a 	and	r16,r3,r2
  804298:	8463c83a 	sub	r17,r16,r17
  80429c:	8c43fbc4 	addi	r17,r17,4079
  8042a0:	8822d33a 	srli	r17,r17,12
  8042a4:	0083ffc4 	movi	r2,4095
  8042a8:	8c7fffc4 	addi	r17,r17,-1
  8042ac:	8822933a 	slli	r17,r17,12
  8042b0:	1440060e 	bge	r2,r17,8042cc <_malloc_trim_r+0x78>
  8042b4:	0805a980 	call	805a98 <_sbrk_r>
  8042b8:	98c00217 	ldw	r3,8(r19)
  8042bc:	9009883a 	mov	r4,r18
  8042c0:	044bc83a 	sub	r5,zero,r17
  8042c4:	80c7883a 	add	r3,r16,r3
  8042c8:	10c00926 	beq	r2,r3,8042f0 <_malloc_trim_r+0x9c>
  8042cc:	08089640 	call	808964 <__malloc_unlock>
  8042d0:	0005883a 	mov	r2,zero
  8042d4:	dfc00417 	ldw	ra,16(sp)
  8042d8:	dcc00317 	ldw	r19,12(sp)
  8042dc:	dc800217 	ldw	r18,8(sp)
  8042e0:	dc400117 	ldw	r17,4(sp)
  8042e4:	dc000017 	ldw	r16,0(sp)
  8042e8:	dec00504 	addi	sp,sp,20
  8042ec:	f800283a 	ret
  8042f0:	9009883a 	mov	r4,r18
  8042f4:	0805a980 	call	805a98 <_sbrk_r>
  8042f8:	844dc83a 	sub	r6,r16,r17
  8042fc:	00ffffc4 	movi	r3,-1
  804300:	9009883a 	mov	r4,r18
  804304:	000b883a 	mov	r5,zero
  804308:	01c02074 	movhi	r7,129
  80430c:	39d8af04 	addi	r7,r7,25276
  804310:	31800054 	ori	r6,r6,1
  804314:	10c00926 	beq	r2,r3,80433c <_malloc_trim_r+0xe8>
  804318:	38800017 	ldw	r2,0(r7)
  80431c:	98c00217 	ldw	r3,8(r19)
  804320:	9009883a 	mov	r4,r18
  804324:	1445c83a 	sub	r2,r2,r17
  804328:	38800015 	stw	r2,0(r7)
  80432c:	19800115 	stw	r6,4(r3)
  804330:	08089640 	call	808964 <__malloc_unlock>
  804334:	00800044 	movi	r2,1
  804338:	003fe606 	br	8042d4 <_malloc_trim_r+0x80>
  80433c:	0805a980 	call	805a98 <_sbrk_r>
  804340:	99800217 	ldw	r6,8(r19)
  804344:	100f883a 	mov	r7,r2
  804348:	9009883a 	mov	r4,r18
  80434c:	1187c83a 	sub	r3,r2,r6
  804350:	008003c4 	movi	r2,15
  804354:	19400054 	ori	r5,r3,1
  804358:	10ffdc0e 	bge	r2,r3,8042cc <_malloc_trim_r+0x78>
  80435c:	00802074 	movhi	r2,129
  804360:	10914204 	addi	r2,r2,17672
  804364:	10c00017 	ldw	r3,0(r2)
  804368:	00802074 	movhi	r2,129
  80436c:	1098af04 	addi	r2,r2,25276
  804370:	31400115 	stw	r5,4(r6)
  804374:	38c7c83a 	sub	r3,r7,r3
  804378:	10c00015 	stw	r3,0(r2)
  80437c:	003fd306 	br	8042cc <_malloc_trim_r+0x78>

00804380 <_free_r>:
  804380:	defffd04 	addi	sp,sp,-12
  804384:	dc400115 	stw	r17,4(sp)
  804388:	dc000015 	stw	r16,0(sp)
  80438c:	dfc00215 	stw	ra,8(sp)
  804390:	2821883a 	mov	r16,r5
  804394:	2023883a 	mov	r17,r4
  804398:	28005a26 	beq	r5,zero,804504 <_free_r+0x184>
  80439c:	08089440 	call	808944 <__malloc_lock>
  8043a0:	823ffe04 	addi	r8,r16,-8
  8043a4:	41400117 	ldw	r5,4(r8)
  8043a8:	00bfff84 	movi	r2,-2
  8043ac:	02802074 	movhi	r10,129
  8043b0:	528b0a04 	addi	r10,r10,11304
  8043b4:	288e703a 	and	r7,r5,r2
  8043b8:	41cd883a 	add	r6,r8,r7
  8043bc:	30c00117 	ldw	r3,4(r6)
  8043c0:	51000217 	ldw	r4,8(r10)
  8043c4:	00bfff04 	movi	r2,-4
  8043c8:	1892703a 	and	r9,r3,r2
  8043cc:	5017883a 	mov	r11,r10
  8043d0:	31006726 	beq	r6,r4,804570 <_free_r+0x1f0>
  8043d4:	2880004c 	andi	r2,r5,1
  8043d8:	1005003a 	cmpeq	r2,r2,zero
  8043dc:	32400115 	stw	r9,4(r6)
  8043e0:	10001a1e 	bne	r2,zero,80444c <_free_r+0xcc>
  8043e4:	000b883a 	mov	r5,zero
  8043e8:	3247883a 	add	r3,r6,r9
  8043ec:	18800117 	ldw	r2,4(r3)
  8043f0:	1080004c 	andi	r2,r2,1
  8043f4:	1000231e 	bne	r2,zero,804484 <_free_r+0x104>
  8043f8:	280ac03a 	cmpne	r5,r5,zero
  8043fc:	3a4f883a 	add	r7,r7,r9
  804400:	2800451e 	bne	r5,zero,804518 <_free_r+0x198>
  804404:	31000217 	ldw	r4,8(r6)
  804408:	00802074 	movhi	r2,129
  80440c:	108b0c04 	addi	r2,r2,11312
  804410:	20807b26 	beq	r4,r2,804600 <_free_r+0x280>
  804414:	30800317 	ldw	r2,12(r6)
  804418:	3a07883a 	add	r3,r7,r8
  80441c:	19c00015 	stw	r7,0(r3)
  804420:	11000215 	stw	r4,8(r2)
  804424:	20800315 	stw	r2,12(r4)
  804428:	38800054 	ori	r2,r7,1
  80442c:	40800115 	stw	r2,4(r8)
  804430:	28001a26 	beq	r5,zero,80449c <_free_r+0x11c>
  804434:	8809883a 	mov	r4,r17
  804438:	dfc00217 	ldw	ra,8(sp)
  80443c:	dc400117 	ldw	r17,4(sp)
  804440:	dc000017 	ldw	r16,0(sp)
  804444:	dec00304 	addi	sp,sp,12
  804448:	08089641 	jmpi	808964 <__malloc_unlock>
  80444c:	80bffe17 	ldw	r2,-8(r16)
  804450:	50c00204 	addi	r3,r10,8
  804454:	4091c83a 	sub	r8,r8,r2
  804458:	41000217 	ldw	r4,8(r8)
  80445c:	388f883a 	add	r7,r7,r2
  804460:	20c06126 	beq	r4,r3,8045e8 <_free_r+0x268>
  804464:	40800317 	ldw	r2,12(r8)
  804468:	3247883a 	add	r3,r6,r9
  80446c:	000b883a 	mov	r5,zero
  804470:	11000215 	stw	r4,8(r2)
  804474:	20800315 	stw	r2,12(r4)
  804478:	18800117 	ldw	r2,4(r3)
  80447c:	1080004c 	andi	r2,r2,1
  804480:	103fdd26 	beq	r2,zero,8043f8 <_free_r+0x78>
  804484:	38800054 	ori	r2,r7,1
  804488:	3a07883a 	add	r3,r7,r8
  80448c:	280ac03a 	cmpne	r5,r5,zero
  804490:	40800115 	stw	r2,4(r8)
  804494:	19c00015 	stw	r7,0(r3)
  804498:	283fe61e 	bne	r5,zero,804434 <_free_r+0xb4>
  80449c:	00807fc4 	movi	r2,511
  8044a0:	11c01f2e 	bgeu	r2,r7,804520 <_free_r+0x1a0>
  8044a4:	3806d27a 	srli	r3,r7,9
  8044a8:	1800481e 	bne	r3,zero,8045cc <_free_r+0x24c>
  8044ac:	3804d0fa 	srli	r2,r7,3
  8044b0:	100690fa 	slli	r3,r2,3
  8044b4:	1acd883a 	add	r6,r3,r11
  8044b8:	31400217 	ldw	r5,8(r6)
  8044bc:	31405926 	beq	r6,r5,804624 <_free_r+0x2a4>
  8044c0:	28800117 	ldw	r2,4(r5)
  8044c4:	00ffff04 	movi	r3,-4
  8044c8:	10c4703a 	and	r2,r2,r3
  8044cc:	3880022e 	bgeu	r7,r2,8044d8 <_free_r+0x158>
  8044d0:	29400217 	ldw	r5,8(r5)
  8044d4:	317ffa1e 	bne	r6,r5,8044c0 <_free_r+0x140>
  8044d8:	29800317 	ldw	r6,12(r5)
  8044dc:	41800315 	stw	r6,12(r8)
  8044e0:	41400215 	stw	r5,8(r8)
  8044e4:	8809883a 	mov	r4,r17
  8044e8:	2a000315 	stw	r8,12(r5)
  8044ec:	32000215 	stw	r8,8(r6)
  8044f0:	dfc00217 	ldw	ra,8(sp)
  8044f4:	dc400117 	ldw	r17,4(sp)
  8044f8:	dc000017 	ldw	r16,0(sp)
  8044fc:	dec00304 	addi	sp,sp,12
  804500:	08089641 	jmpi	808964 <__malloc_unlock>
  804504:	dfc00217 	ldw	ra,8(sp)
  804508:	dc400117 	ldw	r17,4(sp)
  80450c:	dc000017 	ldw	r16,0(sp)
  804510:	dec00304 	addi	sp,sp,12
  804514:	f800283a 	ret
  804518:	31000217 	ldw	r4,8(r6)
  80451c:	003fbd06 	br	804414 <_free_r+0x94>
  804520:	3806d0fa 	srli	r3,r7,3
  804524:	00800044 	movi	r2,1
  804528:	51400117 	ldw	r5,4(r10)
  80452c:	180890fa 	slli	r4,r3,3
  804530:	1807d0ba 	srai	r3,r3,2
  804534:	22c9883a 	add	r4,r4,r11
  804538:	21800217 	ldw	r6,8(r4)
  80453c:	10c4983a 	sll	r2,r2,r3
  804540:	41000315 	stw	r4,12(r8)
  804544:	41800215 	stw	r6,8(r8)
  804548:	288ab03a 	or	r5,r5,r2
  80454c:	22000215 	stw	r8,8(r4)
  804550:	8809883a 	mov	r4,r17
  804554:	51400115 	stw	r5,4(r10)
  804558:	32000315 	stw	r8,12(r6)
  80455c:	dfc00217 	ldw	ra,8(sp)
  804560:	dc400117 	ldw	r17,4(sp)
  804564:	dc000017 	ldw	r16,0(sp)
  804568:	dec00304 	addi	sp,sp,12
  80456c:	08089641 	jmpi	808964 <__malloc_unlock>
  804570:	2880004c 	andi	r2,r5,1
  804574:	3a4d883a 	add	r6,r7,r9
  804578:	1000071e 	bne	r2,zero,804598 <_free_r+0x218>
  80457c:	80bffe17 	ldw	r2,-8(r16)
  804580:	4091c83a 	sub	r8,r8,r2
  804584:	41000317 	ldw	r4,12(r8)
  804588:	40c00217 	ldw	r3,8(r8)
  80458c:	308d883a 	add	r6,r6,r2
  804590:	20c00215 	stw	r3,8(r4)
  804594:	19000315 	stw	r4,12(r3)
  804598:	00802074 	movhi	r2,129
  80459c:	10914104 	addi	r2,r2,17668
  8045a0:	11000017 	ldw	r4,0(r2)
  8045a4:	30c00054 	ori	r3,r6,1
  8045a8:	52000215 	stw	r8,8(r10)
  8045ac:	40c00115 	stw	r3,4(r8)
  8045b0:	313fa036 	bltu	r6,r4,804434 <_free_r+0xb4>
  8045b4:	00802074 	movhi	r2,129
  8045b8:	1098a204 	addi	r2,r2,25224
  8045bc:	11400017 	ldw	r5,0(r2)
  8045c0:	8809883a 	mov	r4,r17
  8045c4:	08042540 	call	804254 <_malloc_trim_r>
  8045c8:	003f9a06 	br	804434 <_free_r+0xb4>
  8045cc:	00800104 	movi	r2,4
  8045d0:	10c0072e 	bgeu	r2,r3,8045f0 <_free_r+0x270>
  8045d4:	00800504 	movi	r2,20
  8045d8:	10c01936 	bltu	r2,r3,804640 <_free_r+0x2c0>
  8045dc:	188016c4 	addi	r2,r3,91
  8045e0:	100690fa 	slli	r3,r2,3
  8045e4:	003fb306 	br	8044b4 <_free_r+0x134>
  8045e8:	01400044 	movi	r5,1
  8045ec:	003f7e06 	br	8043e8 <_free_r+0x68>
  8045f0:	3804d1ba 	srli	r2,r7,6
  8045f4:	10800e04 	addi	r2,r2,56
  8045f8:	100690fa 	slli	r3,r2,3
  8045fc:	003fad06 	br	8044b4 <_free_r+0x134>
  804600:	22000315 	stw	r8,12(r4)
  804604:	22000215 	stw	r8,8(r4)
  804608:	3a05883a 	add	r2,r7,r8
  80460c:	38c00054 	ori	r3,r7,1
  804610:	11c00015 	stw	r7,0(r2)
  804614:	41000215 	stw	r4,8(r8)
  804618:	40c00115 	stw	r3,4(r8)
  80461c:	41000315 	stw	r4,12(r8)
  804620:	003f8406 	br	804434 <_free_r+0xb4>
  804624:	1005d0ba 	srai	r2,r2,2
  804628:	00c00044 	movi	r3,1
  80462c:	51000117 	ldw	r4,4(r10)
  804630:	1886983a 	sll	r3,r3,r2
  804634:	20c8b03a 	or	r4,r4,r3
  804638:	51000115 	stw	r4,4(r10)
  80463c:	003fa706 	br	8044dc <_free_r+0x15c>
  804640:	00801504 	movi	r2,84
  804644:	10c00436 	bltu	r2,r3,804658 <_free_r+0x2d8>
  804648:	3804d33a 	srli	r2,r7,12
  80464c:	10801b84 	addi	r2,r2,110
  804650:	100690fa 	slli	r3,r2,3
  804654:	003f9706 	br	8044b4 <_free_r+0x134>
  804658:	00805504 	movi	r2,340
  80465c:	10c00436 	bltu	r2,r3,804670 <_free_r+0x2f0>
  804660:	3804d3fa 	srli	r2,r7,15
  804664:	10801dc4 	addi	r2,r2,119
  804668:	100690fa 	slli	r3,r2,3
  80466c:	003f9106 	br	8044b4 <_free_r+0x134>
  804670:	00815504 	movi	r2,1364
  804674:	10c0032e 	bgeu	r2,r3,804684 <_free_r+0x304>
  804678:	00801f84 	movi	r2,126
  80467c:	00c0fc04 	movi	r3,1008
  804680:	003f8c06 	br	8044b4 <_free_r+0x134>
  804684:	3804d4ba 	srli	r2,r7,18
  804688:	10801f04 	addi	r2,r2,124
  80468c:	100690fa 	slli	r3,r2,3
  804690:	003f8806 	br	8044b4 <_free_r+0x134>

00804694 <_fseek_r>:
  804694:	deffe804 	addi	sp,sp,-96
  804698:	dd801515 	stw	r22,84(sp)
  80469c:	dcc01215 	stw	r19,72(sp)
  8046a0:	dc801115 	stw	r18,68(sp)
  8046a4:	dc000f15 	stw	r16,60(sp)
  8046a8:	dfc01715 	stw	ra,92(sp)
  8046ac:	ddc01615 	stw	r23,88(sp)
  8046b0:	dd401415 	stw	r21,80(sp)
  8046b4:	dd001315 	stw	r20,76(sp)
  8046b8:	dc401015 	stw	r17,64(sp)
  8046bc:	2025883a 	mov	r18,r4
  8046c0:	2821883a 	mov	r16,r5
  8046c4:	302d883a 	mov	r22,r6
  8046c8:	3827883a 	mov	r19,r7
  8046cc:	20000226 	beq	r4,zero,8046d8 <_fseek_r+0x44>
  8046d0:	20800e17 	ldw	r2,56(r4)
  8046d4:	10007826 	beq	r2,zero,8048b8 <_fseek_r+0x224>
  8046d8:	8080030b 	ldhu	r2,12(r16)
  8046dc:	00c04204 	movi	r3,264
  8046e0:	1080420c 	andi	r2,r2,264
  8046e4:	10c07926 	beq	r2,r3,8048cc <_fseek_r+0x238>
  8046e8:	85400a17 	ldw	r21,40(r16)
  8046ec:	a800ea26 	beq	r21,zero,804a98 <_fseek_r+0x404>
  8046f0:	00800044 	movi	r2,1
  8046f4:	98805f26 	beq	r19,r2,804874 <_fseek_r+0x1e0>
  8046f8:	00800084 	movi	r2,2
  8046fc:	98801026 	beq	r19,r2,804740 <_fseek_r+0xac>
  804700:	98000f26 	beq	r19,zero,804740 <_fseek_r+0xac>
  804704:	00800584 	movi	r2,22
  804708:	013fffc4 	movi	r4,-1
  80470c:	90800015 	stw	r2,0(r18)
  804710:	2005883a 	mov	r2,r4
  804714:	dfc01717 	ldw	ra,92(sp)
  804718:	ddc01617 	ldw	r23,88(sp)
  80471c:	dd801517 	ldw	r22,84(sp)
  804720:	dd401417 	ldw	r21,80(sp)
  804724:	dd001317 	ldw	r20,76(sp)
  804728:	dcc01217 	ldw	r19,72(sp)
  80472c:	dc801117 	ldw	r18,68(sp)
  804730:	dc401017 	ldw	r17,64(sp)
  804734:	dc000f17 	ldw	r16,60(sp)
  804738:	dec01804 	addi	sp,sp,96
  80473c:	f800283a 	ret
  804740:	81800417 	ldw	r6,16(r16)
  804744:	0023883a 	mov	r17,zero
  804748:	002f883a 	mov	r23,zero
  80474c:	3000a626 	beq	r6,zero,8049e8 <_fseek_r+0x354>
  804750:	8100030b 	ldhu	r4,12(r16)
  804754:	2082068c 	andi	r2,r4,2074
  804758:	1000081e 	bne	r2,zero,80477c <_fseek_r+0xe8>
  80475c:	2081000c 	andi	r2,r4,1024
  804760:	10001b1e 	bne	r2,zero,8047d0 <_fseek_r+0x13c>
  804764:	00802034 	movhi	r2,128
  804768:	1096c404 	addi	r2,r2,23312
  80476c:	a8800926 	beq	r21,r2,804794 <_fseek_r+0x100>
  804770:	8080030b 	ldhu	r2,12(r16)
  804774:	10820014 	ori	r2,r2,2048
  804778:	8080030d 	sth	r2,12(r16)
  80477c:	9009883a 	mov	r4,r18
  804780:	800b883a 	mov	r5,r16
  804784:	08064880 	call	806488 <_fflush_r>
  804788:	1000a326 	beq	r2,zero,804a18 <_fseek_r+0x384>
  80478c:	013fffc4 	movi	r4,-1
  804790:	003fdf06 	br	804710 <_fseek_r+0x7c>
  804794:	8140038f 	ldh	r5,14(r16)
  804798:	283ff516 	blt	r5,zero,804770 <_fseek_r+0xdc>
  80479c:	9009883a 	mov	r4,r18
  8047a0:	d80d883a 	mov	r6,sp
  8047a4:	0804af40 	call	804af4 <_fstat_r>
  8047a8:	103ff11e 	bne	r2,zero,804770 <_fseek_r+0xdc>
  8047ac:	d8800117 	ldw	r2,4(sp)
  8047b0:	00e00014 	movui	r3,32768
  8047b4:	10bc000c 	andi	r2,r2,61440
  8047b8:	10ffed1e 	bne	r2,r3,804770 <_fseek_r+0xdc>
  8047bc:	80c0030b 	ldhu	r3,12(r16)
  8047c0:	00810004 	movi	r2,1024
  8047c4:	80801315 	stw	r2,76(r16)
  8047c8:	1886b03a 	or	r3,r3,r2
  8047cc:	80c0030d 	sth	r3,12(r16)
  8047d0:	9800701e 	bne	r19,zero,804994 <_fseek_r+0x300>
  8047d4:	b029883a 	mov	r20,r22
  8047d8:	b804c03a 	cmpne	r2,r23,zero
  8047dc:	10003f1e 	bne	r2,zero,8048dc <_fseek_r+0x248>
  8047e0:	8100030b 	ldhu	r4,12(r16)
  8047e4:	2084000c 	andi	r2,r4,4096
  8047e8:	1000a126 	beq	r2,zero,804a70 <_fseek_r+0x3dc>
  8047ec:	81801417 	ldw	r6,80(r16)
  8047f0:	80c00117 	ldw	r3,4(r16)
  8047f4:	81400c17 	ldw	r5,48(r16)
  8047f8:	30e3c83a 	sub	r17,r6,r3
  8047fc:	28008026 	beq	r5,zero,804a00 <_fseek_r+0x36c>
  804800:	81c00f17 	ldw	r7,60(r16)
  804804:	89e3c83a 	sub	r17,r17,r7
  804808:	80800e17 	ldw	r2,56(r16)
  80480c:	81800417 	ldw	r6,16(r16)
  804810:	88c7883a 	add	r3,r17,r3
  804814:	1185c83a 	sub	r2,r2,r6
  804818:	11cf883a 	add	r7,r2,r7
  80481c:	1887c83a 	sub	r3,r3,r2
  804820:	2088000c 	andi	r2,r4,8192
  804824:	10003e1e 	bne	r2,zero,804920 <_fseek_r+0x28c>
  804828:	a0c03d16 	blt	r20,r3,804920 <_fseek_r+0x28c>
  80482c:	38c5883a 	add	r2,r7,r3
  804830:	a0803b2e 	bgeu	r20,r2,804920 <_fseek_r+0x28c>
  804834:	a0c5c83a 	sub	r2,r20,r3
  804838:	3887c83a 	sub	r3,r7,r2
  80483c:	3085883a 	add	r2,r6,r2
  804840:	80800015 	stw	r2,0(r16)
  804844:	80c00115 	stw	r3,4(r16)
  804848:	28000526 	beq	r5,zero,804860 <_fseek_r+0x1cc>
  80484c:	80801004 	addi	r2,r16,64
  804850:	28800226 	beq	r5,r2,80485c <_fseek_r+0x1c8>
  804854:	9009883a 	mov	r4,r18
  804858:	08043800 	call	804380 <_free_r>
  80485c:	80000c15 	stw	zero,48(r16)
  804860:	8080030b 	ldhu	r2,12(r16)
  804864:	0009883a 	mov	r4,zero
  804868:	10bff7cc 	andi	r2,r2,65503
  80486c:	8080030d 	sth	r2,12(r16)
  804870:	003fa706 	br	804710 <_fseek_r+0x7c>
  804874:	9009883a 	mov	r4,r18
  804878:	800b883a 	mov	r5,r16
  80487c:	08064880 	call	806488 <_fflush_r>
  804880:	8100030b 	ldhu	r4,12(r16)
  804884:	2084000c 	andi	r2,r4,4096
  804888:	10008726 	beq	r2,zero,804aa8 <_fseek_r+0x414>
  80488c:	84401417 	ldw	r17,80(r16)
  804890:	2080010c 	andi	r2,r4,4
  804894:	1000171e 	bne	r2,zero,8048f4 <_fseek_r+0x260>
  804898:	2080020c 	andi	r2,r4,8
  80489c:	10003b26 	beq	r2,zero,80498c <_fseek_r+0x2f8>
  8048a0:	80800017 	ldw	r2,0(r16)
  8048a4:	10003926 	beq	r2,zero,80498c <_fseek_r+0x2f8>
  8048a8:	81800417 	ldw	r6,16(r16)
  8048ac:	1185c83a 	sub	r2,r2,r6
  8048b0:	88a3883a 	add	r17,r17,r2
  8048b4:	00001606 	br	804910 <_fseek_r+0x27c>
  8048b8:	08067200 	call	806720 <__sinit>
  8048bc:	8080030b 	ldhu	r2,12(r16)
  8048c0:	00c04204 	movi	r3,264
  8048c4:	1080420c 	andi	r2,r2,264
  8048c8:	10ff871e 	bne	r2,r3,8046e8 <_fseek_r+0x54>
  8048cc:	9009883a 	mov	r4,r18
  8048d0:	800b883a 	mov	r5,r16
  8048d4:	08064880 	call	806488 <_fflush_r>
  8048d8:	003f8306 	br	8046e8 <_fseek_r+0x54>
  8048dc:	81400c17 	ldw	r5,48(r16)
  8048e0:	28004526 	beq	r5,zero,8049f8 <_fseek_r+0x364>
  8048e4:	8100030b 	ldhu	r4,12(r16)
  8048e8:	80c00117 	ldw	r3,4(r16)
  8048ec:	81c00f17 	ldw	r7,60(r16)
  8048f0:	003fc506 	br	804808 <_fseek_r+0x174>
  8048f4:	80c00117 	ldw	r3,4(r16)
  8048f8:	80800c17 	ldw	r2,48(r16)
  8048fc:	88e3c83a 	sub	r17,r17,r3
  804900:	10002226 	beq	r2,zero,80498c <_fseek_r+0x2f8>
  804904:	81c00f17 	ldw	r7,60(r16)
  804908:	81800417 	ldw	r6,16(r16)
  80490c:	89e3c83a 	sub	r17,r17,r7
  804910:	b46d883a 	add	r22,r22,r17
  804914:	0027883a 	mov	r19,zero
  804918:	05c00044 	movi	r23,1
  80491c:	003f8b06 	br	80474c <_fseek_r+0xb8>
  804920:	80801317 	ldw	r2,76(r16)
  804924:	81400717 	ldw	r5,28(r16)
  804928:	9009883a 	mov	r4,r18
  80492c:	0085c83a 	sub	r2,zero,r2
  804930:	a0a2703a 	and	r17,r20,r2
  804934:	880d883a 	mov	r6,r17
  804938:	000f883a 	mov	r7,zero
  80493c:	a83ee83a 	callr	r21
  804940:	00ffffc4 	movi	r3,-1
  804944:	10ff8d26 	beq	r2,r3,80477c <_fseek_r+0xe8>
  804948:	80800417 	ldw	r2,16(r16)
  80494c:	81400c17 	ldw	r5,48(r16)
  804950:	80000115 	stw	zero,4(r16)
  804954:	80800015 	stw	r2,0(r16)
  804958:	28000526 	beq	r5,zero,804970 <_fseek_r+0x2dc>
  80495c:	80801004 	addi	r2,r16,64
  804960:	28800226 	beq	r5,r2,80496c <_fseek_r+0x2d8>
  804964:	9009883a 	mov	r4,r18
  804968:	08043800 	call	804380 <_free_r>
  80496c:	80000c15 	stw	zero,48(r16)
  804970:	8080030b 	ldhu	r2,12(r16)
  804974:	a463c83a 	sub	r17,r20,r17
  804978:	10bff7cc 	andi	r2,r2,65503
  80497c:	8080030d 	sth	r2,12(r16)
  804980:	88000c1e 	bne	r17,zero,8049b4 <_fseek_r+0x320>
  804984:	0009883a 	mov	r4,zero
  804988:	003f6106 	br	804710 <_fseek_r+0x7c>
  80498c:	81800417 	ldw	r6,16(r16)
  804990:	003fdf06 	br	804910 <_fseek_r+0x27c>
  804994:	8140038f 	ldh	r5,14(r16)
  804998:	9009883a 	mov	r4,r18
  80499c:	d80d883a 	mov	r6,sp
  8049a0:	0804af40 	call	804af4 <_fstat_r>
  8049a4:	103f751e 	bne	r2,zero,80477c <_fseek_r+0xe8>
  8049a8:	d8800417 	ldw	r2,16(sp)
  8049ac:	b0a9883a 	add	r20,r22,r2
  8049b0:	003f8906 	br	8047d8 <_fseek_r+0x144>
  8049b4:	9009883a 	mov	r4,r18
  8049b8:	800b883a 	mov	r5,r16
  8049bc:	08058b80 	call	8058b8 <__srefill_r>
  8049c0:	103f6e1e 	bne	r2,zero,80477c <_fseek_r+0xe8>
  8049c4:	80c00117 	ldw	r3,4(r16)
  8049c8:	1c7f6c36 	bltu	r3,r17,80477c <_fseek_r+0xe8>
  8049cc:	80800017 	ldw	r2,0(r16)
  8049d0:	1c47c83a 	sub	r3,r3,r17
  8049d4:	0009883a 	mov	r4,zero
  8049d8:	1445883a 	add	r2,r2,r17
  8049dc:	80c00115 	stw	r3,4(r16)
  8049e0:	80800015 	stw	r2,0(r16)
  8049e4:	003f4a06 	br	804710 <_fseek_r+0x7c>
  8049e8:	9009883a 	mov	r4,r18
  8049ec:	800b883a 	mov	r5,r16
  8049f0:	0804c440 	call	804c44 <__smakebuf_r>
  8049f4:	003f5606 	br	804750 <_fseek_r+0xbc>
  8049f8:	8100030b 	ldhu	r4,12(r16)
  8049fc:	80c00117 	ldw	r3,4(r16)
  804a00:	80800017 	ldw	r2,0(r16)
  804a04:	81800417 	ldw	r6,16(r16)
  804a08:	1185c83a 	sub	r2,r2,r6
  804a0c:	10cf883a 	add	r7,r2,r3
  804a10:	8887c83a 	sub	r3,r17,r2
  804a14:	003f8206 	br	804820 <_fseek_r+0x18c>
  804a18:	81400717 	ldw	r5,28(r16)
  804a1c:	b00d883a 	mov	r6,r22
  804a20:	980f883a 	mov	r7,r19
  804a24:	9009883a 	mov	r4,r18
  804a28:	a83ee83a 	callr	r21
  804a2c:	00ffffc4 	movi	r3,-1
  804a30:	10ff5626 	beq	r2,r3,80478c <_fseek_r+0xf8>
  804a34:	81400c17 	ldw	r5,48(r16)
  804a38:	28000526 	beq	r5,zero,804a50 <_fseek_r+0x3bc>
  804a3c:	80801004 	addi	r2,r16,64
  804a40:	28800226 	beq	r5,r2,804a4c <_fseek_r+0x3b8>
  804a44:	9009883a 	mov	r4,r18
  804a48:	08043800 	call	804380 <_free_r>
  804a4c:	80000c15 	stw	zero,48(r16)
  804a50:	8080030b 	ldhu	r2,12(r16)
  804a54:	80c00417 	ldw	r3,16(r16)
  804a58:	0009883a 	mov	r4,zero
  804a5c:	10bdf7cc 	andi	r2,r2,63455
  804a60:	8080030d 	sth	r2,12(r16)
  804a64:	80c00015 	stw	r3,0(r16)
  804a68:	80000115 	stw	zero,4(r16)
  804a6c:	003f2806 	br	804710 <_fseek_r+0x7c>
  804a70:	81400717 	ldw	r5,28(r16)
  804a74:	000d883a 	mov	r6,zero
  804a78:	9009883a 	mov	r4,r18
  804a7c:	01c00044 	movi	r7,1
  804a80:	a83ee83a 	callr	r21
  804a84:	100d883a 	mov	r6,r2
  804a88:	00bfffc4 	movi	r2,-1
  804a8c:	30bf3b26 	beq	r6,r2,80477c <_fseek_r+0xe8>
  804a90:	8100030b 	ldhu	r4,12(r16)
  804a94:	003f5606 	br	8047f0 <_fseek_r+0x15c>
  804a98:	00800744 	movi	r2,29
  804a9c:	013fffc4 	movi	r4,-1
  804aa0:	90800015 	stw	r2,0(r18)
  804aa4:	003f1a06 	br	804710 <_fseek_r+0x7c>
  804aa8:	81400717 	ldw	r5,28(r16)
  804aac:	980f883a 	mov	r7,r19
  804ab0:	9009883a 	mov	r4,r18
  804ab4:	000d883a 	mov	r6,zero
  804ab8:	a83ee83a 	callr	r21
  804abc:	1023883a 	mov	r17,r2
  804ac0:	00bfffc4 	movi	r2,-1
  804ac4:	88bf3126 	beq	r17,r2,80478c <_fseek_r+0xf8>
  804ac8:	8100030b 	ldhu	r4,12(r16)
  804acc:	003f7006 	br	804890 <_fseek_r+0x1fc>

00804ad0 <fseek>:
  804ad0:	00802074 	movhi	r2,129
  804ad4:	10913f04 	addi	r2,r2,17660
  804ad8:	2013883a 	mov	r9,r4
  804adc:	11000017 	ldw	r4,0(r2)
  804ae0:	2805883a 	mov	r2,r5
  804ae4:	300f883a 	mov	r7,r6
  804ae8:	480b883a 	mov	r5,r9
  804aec:	100d883a 	mov	r6,r2
  804af0:	08046941 	jmpi	804694 <_fseek_r>

00804af4 <_fstat_r>:
  804af4:	defffd04 	addi	sp,sp,-12
  804af8:	dc000015 	stw	r16,0(sp)
  804afc:	04002074 	movhi	r16,129
  804b00:	8418a104 	addi	r16,r16,25220
  804b04:	dc400115 	stw	r17,4(sp)
  804b08:	80000015 	stw	zero,0(r16)
  804b0c:	2023883a 	mov	r17,r4
  804b10:	2809883a 	mov	r4,r5
  804b14:	300b883a 	mov	r5,r6
  804b18:	dfc00215 	stw	ra,8(sp)
  804b1c:	080822c0 	call	80822c <fstat>
  804b20:	1007883a 	mov	r3,r2
  804b24:	00bfffc4 	movi	r2,-1
  804b28:	18800626 	beq	r3,r2,804b44 <_fstat_r+0x50>
  804b2c:	1805883a 	mov	r2,r3
  804b30:	dfc00217 	ldw	ra,8(sp)
  804b34:	dc400117 	ldw	r17,4(sp)
  804b38:	dc000017 	ldw	r16,0(sp)
  804b3c:	dec00304 	addi	sp,sp,12
  804b40:	f800283a 	ret
  804b44:	80800017 	ldw	r2,0(r16)
  804b48:	103ff826 	beq	r2,zero,804b2c <_fstat_r+0x38>
  804b4c:	88800015 	stw	r2,0(r17)
  804b50:	1805883a 	mov	r2,r3
  804b54:	dfc00217 	ldw	ra,8(sp)
  804b58:	dc400117 	ldw	r17,4(sp)
  804b5c:	dc000017 	ldw	r16,0(sp)
  804b60:	dec00304 	addi	sp,sp,12
  804b64:	f800283a 	ret

00804b68 <_fwrite_r>:
  804b68:	defff604 	addi	sp,sp,-40
  804b6c:	dc400615 	stw	r17,24(sp)
  804b70:	39a3383a 	mul	r17,r7,r6
  804b74:	00800044 	movi	r2,1
  804b78:	dcc00815 	stw	r19,32(sp)
  804b7c:	dc800715 	stw	r18,28(sp)
  804b80:	dc000515 	stw	r16,20(sp)
  804b84:	dfc00915 	stw	ra,36(sp)
  804b88:	3825883a 	mov	r18,r7
  804b8c:	3027883a 	mov	r19,r6
  804b90:	2021883a 	mov	r16,r4
  804b94:	d9400015 	stw	r5,0(sp)
  804b98:	d8800315 	stw	r2,12(sp)
  804b9c:	dc400115 	stw	r17,4(sp)
  804ba0:	dc400415 	stw	r17,16(sp)
  804ba4:	dec00215 	stw	sp,8(sp)
  804ba8:	20000226 	beq	r4,zero,804bb4 <_fwrite_r+0x4c>
  804bac:	20800e17 	ldw	r2,56(r4)
  804bb0:	10001226 	beq	r2,zero,804bfc <_fwrite_r+0x94>
  804bb4:	d9400a17 	ldw	r5,40(sp)
  804bb8:	8009883a 	mov	r4,r16
  804bbc:	d9800204 	addi	r6,sp,8
  804bc0:	0806b640 	call	806b64 <__sfvwrite_r>
  804bc4:	980b883a 	mov	r5,r19
  804bc8:	10000426 	beq	r2,zero,804bdc <_fwrite_r+0x74>
  804bcc:	d9000417 	ldw	r4,16(sp)
  804bd0:	8909c83a 	sub	r4,r17,r4
  804bd4:	0803b100 	call	803b10 <__udivsi3>
  804bd8:	1025883a 	mov	r18,r2
  804bdc:	9005883a 	mov	r2,r18
  804be0:	dfc00917 	ldw	ra,36(sp)
  804be4:	dcc00817 	ldw	r19,32(sp)
  804be8:	dc800717 	ldw	r18,28(sp)
  804bec:	dc400617 	ldw	r17,24(sp)
  804bf0:	dc000517 	ldw	r16,20(sp)
  804bf4:	dec00a04 	addi	sp,sp,40
  804bf8:	f800283a 	ret
  804bfc:	08067200 	call	806720 <__sinit>
  804c00:	003fec06 	br	804bb4 <_fwrite_r+0x4c>

00804c04 <fwrite>:
  804c04:	00802074 	movhi	r2,129
  804c08:	10913f04 	addi	r2,r2,17660
  804c0c:	2017883a 	mov	r11,r4
  804c10:	11000017 	ldw	r4,0(r2)
  804c14:	defffe04 	addi	sp,sp,-8
  804c18:	3013883a 	mov	r9,r6
  804c1c:	2805883a 	mov	r2,r5
  804c20:	d9c00015 	stw	r7,0(sp)
  804c24:	580b883a 	mov	r5,r11
  804c28:	100d883a 	mov	r6,r2
  804c2c:	480f883a 	mov	r7,r9
  804c30:	dfc00115 	stw	ra,4(sp)
  804c34:	0804b680 	call	804b68 <_fwrite_r>
  804c38:	dfc00117 	ldw	ra,4(sp)
  804c3c:	dec00204 	addi	sp,sp,8
  804c40:	f800283a 	ret

00804c44 <__smakebuf_r>:
  804c44:	2880030b 	ldhu	r2,12(r5)
  804c48:	deffed04 	addi	sp,sp,-76
  804c4c:	dc401015 	stw	r17,64(sp)
  804c50:	1080008c 	andi	r2,r2,2
  804c54:	dc000f15 	stw	r16,60(sp)
  804c58:	dfc01215 	stw	ra,72(sp)
  804c5c:	dc801115 	stw	r18,68(sp)
  804c60:	2821883a 	mov	r16,r5
  804c64:	2023883a 	mov	r17,r4
  804c68:	10000b26 	beq	r2,zero,804c98 <__smakebuf_r+0x54>
  804c6c:	28c010c4 	addi	r3,r5,67
  804c70:	00800044 	movi	r2,1
  804c74:	28800515 	stw	r2,20(r5)
  804c78:	28c00415 	stw	r3,16(r5)
  804c7c:	28c00015 	stw	r3,0(r5)
  804c80:	dfc01217 	ldw	ra,72(sp)
  804c84:	dc801117 	ldw	r18,68(sp)
  804c88:	dc401017 	ldw	r17,64(sp)
  804c8c:	dc000f17 	ldw	r16,60(sp)
  804c90:	dec01304 	addi	sp,sp,76
  804c94:	f800283a 	ret
  804c98:	2940038f 	ldh	r5,14(r5)
  804c9c:	28002116 	blt	r5,zero,804d24 <__smakebuf_r+0xe0>
  804ca0:	d80d883a 	mov	r6,sp
  804ca4:	0804af40 	call	804af4 <_fstat_r>
  804ca8:	10001e16 	blt	r2,zero,804d24 <__smakebuf_r+0xe0>
  804cac:	d8800117 	ldw	r2,4(sp)
  804cb0:	00e00014 	movui	r3,32768
  804cb4:	113c000c 	andi	r4,r2,61440
  804cb8:	20c03126 	beq	r4,r3,804d80 <__smakebuf_r+0x13c>
  804cbc:	8080030b 	ldhu	r2,12(r16)
  804cc0:	00c80004 	movi	r3,8192
  804cc4:	10820014 	ori	r2,r2,2048
  804cc8:	8080030d 	sth	r2,12(r16)
  804ccc:	20c01e26 	beq	r4,r3,804d48 <__smakebuf_r+0x104>
  804cd0:	04810004 	movi	r18,1024
  804cd4:	8809883a 	mov	r4,r17
  804cd8:	900b883a 	mov	r5,r18
  804cdc:	0804e000 	call	804e00 <_malloc_r>
  804ce0:	1009883a 	mov	r4,r2
  804ce4:	10003126 	beq	r2,zero,804dac <__smakebuf_r+0x168>
  804ce8:	80c0030b 	ldhu	r3,12(r16)
  804cec:	00802034 	movhi	r2,128
  804cf0:	109a0104 	addi	r2,r2,26628
  804cf4:	88800f15 	stw	r2,60(r17)
  804cf8:	18c02014 	ori	r3,r3,128
  804cfc:	84800515 	stw	r18,20(r16)
  804d00:	80c0030d 	sth	r3,12(r16)
  804d04:	81000415 	stw	r4,16(r16)
  804d08:	81000015 	stw	r4,0(r16)
  804d0c:	dfc01217 	ldw	ra,72(sp)
  804d10:	dc801117 	ldw	r18,68(sp)
  804d14:	dc401017 	ldw	r17,64(sp)
  804d18:	dc000f17 	ldw	r16,60(sp)
  804d1c:	dec01304 	addi	sp,sp,76
  804d20:	f800283a 	ret
  804d24:	80c0030b 	ldhu	r3,12(r16)
  804d28:	1880200c 	andi	r2,r3,128
  804d2c:	10000426 	beq	r2,zero,804d40 <__smakebuf_r+0xfc>
  804d30:	04801004 	movi	r18,64
  804d34:	18820014 	ori	r2,r3,2048
  804d38:	8080030d 	sth	r2,12(r16)
  804d3c:	003fe506 	br	804cd4 <__smakebuf_r+0x90>
  804d40:	04810004 	movi	r18,1024
  804d44:	003ffb06 	br	804d34 <__smakebuf_r+0xf0>
  804d48:	8140038f 	ldh	r5,14(r16)
  804d4c:	8809883a 	mov	r4,r17
  804d50:	08071f40 	call	8071f4 <_isatty_r>
  804d54:	103fde26 	beq	r2,zero,804cd0 <__smakebuf_r+0x8c>
  804d58:	8080030b 	ldhu	r2,12(r16)
  804d5c:	80c010c4 	addi	r3,r16,67
  804d60:	04810004 	movi	r18,1024
  804d64:	10800054 	ori	r2,r2,1
  804d68:	8080030d 	sth	r2,12(r16)
  804d6c:	00800044 	movi	r2,1
  804d70:	80c00415 	stw	r3,16(r16)
  804d74:	80800515 	stw	r2,20(r16)
  804d78:	80c00015 	stw	r3,0(r16)
  804d7c:	003fd506 	br	804cd4 <__smakebuf_r+0x90>
  804d80:	80c00a17 	ldw	r3,40(r16)
  804d84:	00802034 	movhi	r2,128
  804d88:	1096c404 	addi	r2,r2,23312
  804d8c:	18bfcb1e 	bne	r3,r2,804cbc <__smakebuf_r+0x78>
  804d90:	8080030b 	ldhu	r2,12(r16)
  804d94:	00c10004 	movi	r3,1024
  804d98:	1825883a 	mov	r18,r3
  804d9c:	10c4b03a 	or	r2,r2,r3
  804da0:	8080030d 	sth	r2,12(r16)
  804da4:	80c01315 	stw	r3,76(r16)
  804da8:	003fca06 	br	804cd4 <__smakebuf_r+0x90>
  804dac:	8100030b 	ldhu	r4,12(r16)
  804db0:	2080800c 	andi	r2,r4,512
  804db4:	103fb21e 	bne	r2,zero,804c80 <__smakebuf_r+0x3c>
  804db8:	80c010c4 	addi	r3,r16,67
  804dbc:	21000094 	ori	r4,r4,2
  804dc0:	00800044 	movi	r2,1
  804dc4:	80800515 	stw	r2,20(r16)
  804dc8:	8100030d 	sth	r4,12(r16)
  804dcc:	80c00415 	stw	r3,16(r16)
  804dd0:	80c00015 	stw	r3,0(r16)
  804dd4:	003faa06 	br	804c80 <__smakebuf_r+0x3c>

00804dd8 <free>:
  804dd8:	00802074 	movhi	r2,129
  804ddc:	10913f04 	addi	r2,r2,17660
  804de0:	200b883a 	mov	r5,r4
  804de4:	11000017 	ldw	r4,0(r2)
  804de8:	08043801 	jmpi	804380 <_free_r>

00804dec <malloc>:
  804dec:	00802074 	movhi	r2,129
  804df0:	10913f04 	addi	r2,r2,17660
  804df4:	200b883a 	mov	r5,r4
  804df8:	11000017 	ldw	r4,0(r2)
  804dfc:	0804e001 	jmpi	804e00 <_malloc_r>

00804e00 <_malloc_r>:
  804e00:	defff604 	addi	sp,sp,-40
  804e04:	28c002c4 	addi	r3,r5,11
  804e08:	00800584 	movi	r2,22
  804e0c:	dc800215 	stw	r18,8(sp)
  804e10:	dfc00915 	stw	ra,36(sp)
  804e14:	df000815 	stw	fp,32(sp)
  804e18:	ddc00715 	stw	r23,28(sp)
  804e1c:	dd800615 	stw	r22,24(sp)
  804e20:	dd400515 	stw	r21,20(sp)
  804e24:	dd000415 	stw	r20,16(sp)
  804e28:	dcc00315 	stw	r19,12(sp)
  804e2c:	dc400115 	stw	r17,4(sp)
  804e30:	dc000015 	stw	r16,0(sp)
  804e34:	2025883a 	mov	r18,r4
  804e38:	10c01236 	bltu	r2,r3,804e84 <_malloc_r+0x84>
  804e3c:	04400404 	movi	r17,16
  804e40:	8940142e 	bgeu	r17,r5,804e94 <_malloc_r+0x94>
  804e44:	00800304 	movi	r2,12
  804e48:	0007883a 	mov	r3,zero
  804e4c:	90800015 	stw	r2,0(r18)
  804e50:	1805883a 	mov	r2,r3
  804e54:	dfc00917 	ldw	ra,36(sp)
  804e58:	df000817 	ldw	fp,32(sp)
  804e5c:	ddc00717 	ldw	r23,28(sp)
  804e60:	dd800617 	ldw	r22,24(sp)
  804e64:	dd400517 	ldw	r21,20(sp)
  804e68:	dd000417 	ldw	r20,16(sp)
  804e6c:	dcc00317 	ldw	r19,12(sp)
  804e70:	dc800217 	ldw	r18,8(sp)
  804e74:	dc400117 	ldw	r17,4(sp)
  804e78:	dc000017 	ldw	r16,0(sp)
  804e7c:	dec00a04 	addi	sp,sp,40
  804e80:	f800283a 	ret
  804e84:	00bffe04 	movi	r2,-8
  804e88:	18a2703a 	and	r17,r3,r2
  804e8c:	883fed16 	blt	r17,zero,804e44 <_malloc_r+0x44>
  804e90:	897fec36 	bltu	r17,r5,804e44 <_malloc_r+0x44>
  804e94:	9009883a 	mov	r4,r18
  804e98:	08089440 	call	808944 <__malloc_lock>
  804e9c:	00807dc4 	movi	r2,503
  804ea0:	14402b2e 	bgeu	r2,r17,804f50 <_malloc_r+0x150>
  804ea4:	8806d27a 	srli	r3,r17,9
  804ea8:	18003f1e 	bne	r3,zero,804fa8 <_malloc_r+0x1a8>
  804eac:	880cd0fa 	srli	r6,r17,3
  804eb0:	300490fa 	slli	r2,r6,3
  804eb4:	02c02074 	movhi	r11,129
  804eb8:	5acb0a04 	addi	r11,r11,11304
  804ebc:	12cb883a 	add	r5,r2,r11
  804ec0:	2c000317 	ldw	r16,12(r5)
  804ec4:	580f883a 	mov	r7,r11
  804ec8:	2c00041e 	bne	r5,r16,804edc <_malloc_r+0xdc>
  804ecc:	00000a06 	br	804ef8 <_malloc_r+0xf8>
  804ed0:	1800860e 	bge	r3,zero,8050ec <_malloc_r+0x2ec>
  804ed4:	84000317 	ldw	r16,12(r16)
  804ed8:	2c000726 	beq	r5,r16,804ef8 <_malloc_r+0xf8>
  804edc:	80800117 	ldw	r2,4(r16)
  804ee0:	00ffff04 	movi	r3,-4
  804ee4:	10c8703a 	and	r4,r2,r3
  804ee8:	2447c83a 	sub	r3,r4,r17
  804eec:	008003c4 	movi	r2,15
  804ef0:	10fff70e 	bge	r2,r3,804ed0 <_malloc_r+0xd0>
  804ef4:	31bfffc4 	addi	r6,r6,-1
  804ef8:	32400044 	addi	r9,r6,1
  804efc:	02802074 	movhi	r10,129
  804f00:	528b0c04 	addi	r10,r10,11312
  804f04:	54000217 	ldw	r16,8(r10)
  804f08:	8280a026 	beq	r16,r10,80518c <_malloc_r+0x38c>
  804f0c:	80800117 	ldw	r2,4(r16)
  804f10:	00ffff04 	movi	r3,-4
  804f14:	10ca703a 	and	r5,r2,r3
  804f18:	2c4dc83a 	sub	r6,r5,r17
  804f1c:	008003c4 	movi	r2,15
  804f20:	11808316 	blt	r2,r6,805130 <_malloc_r+0x330>
  804f24:	52800315 	stw	r10,12(r10)
  804f28:	52800215 	stw	r10,8(r10)
  804f2c:	30002916 	blt	r6,zero,804fd4 <_malloc_r+0x1d4>
  804f30:	8147883a 	add	r3,r16,r5
  804f34:	18800117 	ldw	r2,4(r3)
  804f38:	9009883a 	mov	r4,r18
  804f3c:	10800054 	ori	r2,r2,1
  804f40:	18800115 	stw	r2,4(r3)
  804f44:	08089640 	call	808964 <__malloc_unlock>
  804f48:	80c00204 	addi	r3,r16,8
  804f4c:	003fc006 	br	804e50 <_malloc_r+0x50>
  804f50:	02c02074 	movhi	r11,129
  804f54:	5acb0a04 	addi	r11,r11,11304
  804f58:	8ac5883a 	add	r2,r17,r11
  804f5c:	14000317 	ldw	r16,12(r2)
  804f60:	580f883a 	mov	r7,r11
  804f64:	8806d0fa 	srli	r3,r17,3
  804f68:	14006c26 	beq	r2,r16,80511c <_malloc_r+0x31c>
  804f6c:	80c00117 	ldw	r3,4(r16)
  804f70:	00bfff04 	movi	r2,-4
  804f74:	81800317 	ldw	r6,12(r16)
  804f78:	1886703a 	and	r3,r3,r2
  804f7c:	80c7883a 	add	r3,r16,r3
  804f80:	18800117 	ldw	r2,4(r3)
  804f84:	81400217 	ldw	r5,8(r16)
  804f88:	9009883a 	mov	r4,r18
  804f8c:	10800054 	ori	r2,r2,1
  804f90:	18800115 	stw	r2,4(r3)
  804f94:	31400215 	stw	r5,8(r6)
  804f98:	29800315 	stw	r6,12(r5)
  804f9c:	08089640 	call	808964 <__malloc_unlock>
  804fa0:	80c00204 	addi	r3,r16,8
  804fa4:	003faa06 	br	804e50 <_malloc_r+0x50>
  804fa8:	00800104 	movi	r2,4
  804fac:	10c0052e 	bgeu	r2,r3,804fc4 <_malloc_r+0x1c4>
  804fb0:	00800504 	movi	r2,20
  804fb4:	10c07836 	bltu	r2,r3,805198 <_malloc_r+0x398>
  804fb8:	198016c4 	addi	r6,r3,91
  804fbc:	300490fa 	slli	r2,r6,3
  804fc0:	003fbc06 	br	804eb4 <_malloc_r+0xb4>
  804fc4:	8804d1ba 	srli	r2,r17,6
  804fc8:	11800e04 	addi	r6,r2,56
  804fcc:	300490fa 	slli	r2,r6,3
  804fd0:	003fb806 	br	804eb4 <_malloc_r+0xb4>
  804fd4:	00807fc4 	movi	r2,511
  804fd8:	1140bb36 	bltu	r2,r5,8052c8 <_malloc_r+0x4c8>
  804fdc:	2806d0fa 	srli	r3,r5,3
  804fe0:	573ffe04 	addi	fp,r10,-8
  804fe4:	00800044 	movi	r2,1
  804fe8:	180890fa 	slli	r4,r3,3
  804fec:	1807d0ba 	srai	r3,r3,2
  804ff0:	e1c00117 	ldw	r7,4(fp)
  804ff4:	5909883a 	add	r4,r11,r4
  804ff8:	21400217 	ldw	r5,8(r4)
  804ffc:	10c4983a 	sll	r2,r2,r3
  805000:	81000315 	stw	r4,12(r16)
  805004:	81400215 	stw	r5,8(r16)
  805008:	388eb03a 	or	r7,r7,r2
  80500c:	2c000315 	stw	r16,12(r5)
  805010:	24000215 	stw	r16,8(r4)
  805014:	e1c00115 	stw	r7,4(fp)
  805018:	4807883a 	mov	r3,r9
  80501c:	4800cd16 	blt	r9,zero,805354 <_malloc_r+0x554>
  805020:	1807d0ba 	srai	r3,r3,2
  805024:	00800044 	movi	r2,1
  805028:	10c8983a 	sll	r4,r2,r3
  80502c:	39004436 	bltu	r7,r4,805140 <_malloc_r+0x340>
  805030:	21c4703a 	and	r2,r4,r7
  805034:	10000a1e 	bne	r2,zero,805060 <_malloc_r+0x260>
  805038:	2109883a 	add	r4,r4,r4
  80503c:	00bfff04 	movi	r2,-4
  805040:	4884703a 	and	r2,r9,r2
  805044:	3906703a 	and	r3,r7,r4
  805048:	12400104 	addi	r9,r2,4
  80504c:	1800041e 	bne	r3,zero,805060 <_malloc_r+0x260>
  805050:	2109883a 	add	r4,r4,r4
  805054:	3904703a 	and	r2,r7,r4
  805058:	4a400104 	addi	r9,r9,4
  80505c:	103ffc26 	beq	r2,zero,805050 <_malloc_r+0x250>
  805060:	480490fa 	slli	r2,r9,3
  805064:	4819883a 	mov	r12,r9
  805068:	023fff04 	movi	r8,-4
  80506c:	589b883a 	add	r13,r11,r2
  805070:	6807883a 	mov	r3,r13
  805074:	014003c4 	movi	r5,15
  805078:	1c000317 	ldw	r16,12(r3)
  80507c:	1c00041e 	bne	r3,r16,805090 <_malloc_r+0x290>
  805080:	0000a706 	br	805320 <_malloc_r+0x520>
  805084:	3000ab0e 	bge	r6,zero,805334 <_malloc_r+0x534>
  805088:	84000317 	ldw	r16,12(r16)
  80508c:	1c00a426 	beq	r3,r16,805320 <_malloc_r+0x520>
  805090:	80800117 	ldw	r2,4(r16)
  805094:	1204703a 	and	r2,r2,r8
  805098:	144dc83a 	sub	r6,r2,r17
  80509c:	29bff90e 	bge	r5,r6,805084 <_malloc_r+0x284>
  8050a0:	81000317 	ldw	r4,12(r16)
  8050a4:	80c00217 	ldw	r3,8(r16)
  8050a8:	89400054 	ori	r5,r17,1
  8050ac:	8445883a 	add	r2,r16,r17
  8050b0:	20c00215 	stw	r3,8(r4)
  8050b4:	19000315 	stw	r4,12(r3)
  8050b8:	81400115 	stw	r5,4(r16)
  8050bc:	1187883a 	add	r3,r2,r6
  8050c0:	31000054 	ori	r4,r6,1
  8050c4:	50800315 	stw	r2,12(r10)
  8050c8:	50800215 	stw	r2,8(r10)
  8050cc:	19800015 	stw	r6,0(r3)
  8050d0:	11000115 	stw	r4,4(r2)
  8050d4:	12800215 	stw	r10,8(r2)
  8050d8:	12800315 	stw	r10,12(r2)
  8050dc:	9009883a 	mov	r4,r18
  8050e0:	08089640 	call	808964 <__malloc_unlock>
  8050e4:	80c00204 	addi	r3,r16,8
  8050e8:	003f5906 	br	804e50 <_malloc_r+0x50>
  8050ec:	8109883a 	add	r4,r16,r4
  8050f0:	20800117 	ldw	r2,4(r4)
  8050f4:	80c00217 	ldw	r3,8(r16)
  8050f8:	81400317 	ldw	r5,12(r16)
  8050fc:	10800054 	ori	r2,r2,1
  805100:	20800115 	stw	r2,4(r4)
  805104:	28c00215 	stw	r3,8(r5)
  805108:	19400315 	stw	r5,12(r3)
  80510c:	9009883a 	mov	r4,r18
  805110:	08089640 	call	808964 <__malloc_unlock>
  805114:	80c00204 	addi	r3,r16,8
  805118:	003f4d06 	br	804e50 <_malloc_r+0x50>
  80511c:	80800204 	addi	r2,r16,8
  805120:	14000317 	ldw	r16,12(r2)
  805124:	143f911e 	bne	r2,r16,804f6c <_malloc_r+0x16c>
  805128:	1a400084 	addi	r9,r3,2
  80512c:	003f7306 	br	804efc <_malloc_r+0xfc>
  805130:	88c00054 	ori	r3,r17,1
  805134:	8445883a 	add	r2,r16,r17
  805138:	80c00115 	stw	r3,4(r16)
  80513c:	003fdf06 	br	8050bc <_malloc_r+0x2bc>
  805140:	e4000217 	ldw	r16,8(fp)
  805144:	00bfff04 	movi	r2,-4
  805148:	80c00117 	ldw	r3,4(r16)
  80514c:	802d883a 	mov	r22,r16
  805150:	18aa703a 	and	r21,r3,r2
  805154:	ac401636 	bltu	r21,r17,8051b0 <_malloc_r+0x3b0>
  805158:	ac49c83a 	sub	r4,r21,r17
  80515c:	008003c4 	movi	r2,15
  805160:	1100130e 	bge	r2,r4,8051b0 <_malloc_r+0x3b0>
  805164:	88800054 	ori	r2,r17,1
  805168:	8447883a 	add	r3,r16,r17
  80516c:	80800115 	stw	r2,4(r16)
  805170:	20800054 	ori	r2,r4,1
  805174:	18800115 	stw	r2,4(r3)
  805178:	e0c00215 	stw	r3,8(fp)
  80517c:	9009883a 	mov	r4,r18
  805180:	08089640 	call	808964 <__malloc_unlock>
  805184:	80c00204 	addi	r3,r16,8
  805188:	003f3106 	br	804e50 <_malloc_r+0x50>
  80518c:	39c00117 	ldw	r7,4(r7)
  805190:	573ffe04 	addi	fp,r10,-8
  805194:	003fa006 	br	805018 <_malloc_r+0x218>
  805198:	00801504 	movi	r2,84
  80519c:	10c06736 	bltu	r2,r3,80533c <_malloc_r+0x53c>
  8051a0:	8804d33a 	srli	r2,r17,12
  8051a4:	11801b84 	addi	r6,r2,110
  8051a8:	300490fa 	slli	r2,r6,3
  8051ac:	003f4106 	br	804eb4 <_malloc_r+0xb4>
  8051b0:	d0a76317 	ldw	r2,-25204(gp)
  8051b4:	d0e00317 	ldw	r3,-32756(gp)
  8051b8:	053fffc4 	movi	r20,-1
  8051bc:	10800404 	addi	r2,r2,16
  8051c0:	88a7883a 	add	r19,r17,r2
  8051c4:	1d000326 	beq	r3,r20,8051d4 <_malloc_r+0x3d4>
  8051c8:	98c3ffc4 	addi	r3,r19,4095
  8051cc:	00bc0004 	movi	r2,-4096
  8051d0:	18a6703a 	and	r19,r3,r2
  8051d4:	9009883a 	mov	r4,r18
  8051d8:	980b883a 	mov	r5,r19
  8051dc:	0805a980 	call	805a98 <_sbrk_r>
  8051e0:	1009883a 	mov	r4,r2
  8051e4:	15000426 	beq	r2,r20,8051f8 <_malloc_r+0x3f8>
  8051e8:	854b883a 	add	r5,r16,r21
  8051ec:	1029883a 	mov	r20,r2
  8051f0:	11405a2e 	bgeu	r2,r5,80535c <_malloc_r+0x55c>
  8051f4:	87000c26 	beq	r16,fp,805228 <_malloc_r+0x428>
  8051f8:	e4000217 	ldw	r16,8(fp)
  8051fc:	80c00117 	ldw	r3,4(r16)
  805200:	00bfff04 	movi	r2,-4
  805204:	1884703a 	and	r2,r3,r2
  805208:	14400336 	bltu	r2,r17,805218 <_malloc_r+0x418>
  80520c:	1449c83a 	sub	r4,r2,r17
  805210:	008003c4 	movi	r2,15
  805214:	113fd316 	blt	r2,r4,805164 <_malloc_r+0x364>
  805218:	9009883a 	mov	r4,r18
  80521c:	08089640 	call	808964 <__malloc_unlock>
  805220:	0007883a 	mov	r3,zero
  805224:	003f0a06 	br	804e50 <_malloc_r+0x50>
  805228:	05c02074 	movhi	r23,129
  80522c:	bdd8af04 	addi	r23,r23,25276
  805230:	b8800017 	ldw	r2,0(r23)
  805234:	988d883a 	add	r6,r19,r2
  805238:	b9800015 	stw	r6,0(r23)
  80523c:	d0e00317 	ldw	r3,-32756(gp)
  805240:	00bfffc4 	movi	r2,-1
  805244:	18808e26 	beq	r3,r2,805480 <_malloc_r+0x680>
  805248:	2145c83a 	sub	r2,r4,r5
  80524c:	3085883a 	add	r2,r6,r2
  805250:	b8800015 	stw	r2,0(r23)
  805254:	20c001cc 	andi	r3,r4,7
  805258:	18005f1e 	bne	r3,zero,8053d8 <_malloc_r+0x5d8>
  80525c:	000b883a 	mov	r5,zero
  805260:	a4c5883a 	add	r2,r20,r19
  805264:	1083ffcc 	andi	r2,r2,4095
  805268:	00c40004 	movi	r3,4096
  80526c:	1887c83a 	sub	r3,r3,r2
  805270:	28e7883a 	add	r19,r5,r3
  805274:	9009883a 	mov	r4,r18
  805278:	980b883a 	mov	r5,r19
  80527c:	0805a980 	call	805a98 <_sbrk_r>
  805280:	1007883a 	mov	r3,r2
  805284:	00bfffc4 	movi	r2,-1
  805288:	18807a26 	beq	r3,r2,805474 <_malloc_r+0x674>
  80528c:	1d05c83a 	sub	r2,r3,r20
  805290:	9885883a 	add	r2,r19,r2
  805294:	10c00054 	ori	r3,r2,1
  805298:	b8800017 	ldw	r2,0(r23)
  80529c:	a021883a 	mov	r16,r20
  8052a0:	a0c00115 	stw	r3,4(r20)
  8052a4:	9885883a 	add	r2,r19,r2
  8052a8:	b8800015 	stw	r2,0(r23)
  8052ac:	e5000215 	stw	r20,8(fp)
  8052b0:	b7003626 	beq	r22,fp,80538c <_malloc_r+0x58c>
  8052b4:	018003c4 	movi	r6,15
  8052b8:	35404b36 	bltu	r6,r21,8053e8 <_malloc_r+0x5e8>
  8052bc:	00800044 	movi	r2,1
  8052c0:	a0800115 	stw	r2,4(r20)
  8052c4:	003fcd06 	br	8051fc <_malloc_r+0x3fc>
  8052c8:	2808d27a 	srli	r4,r5,9
  8052cc:	2000371e 	bne	r4,zero,8053ac <_malloc_r+0x5ac>
  8052d0:	2808d0fa 	srli	r4,r5,3
  8052d4:	200690fa 	slli	r3,r4,3
  8052d8:	1ad1883a 	add	r8,r3,r11
  8052dc:	41800217 	ldw	r6,8(r8)
  8052e0:	41805b26 	beq	r8,r6,805450 <_malloc_r+0x650>
  8052e4:	30800117 	ldw	r2,4(r6)
  8052e8:	00ffff04 	movi	r3,-4
  8052ec:	10c4703a 	and	r2,r2,r3
  8052f0:	2880022e 	bgeu	r5,r2,8052fc <_malloc_r+0x4fc>
  8052f4:	31800217 	ldw	r6,8(r6)
  8052f8:	41bffa1e 	bne	r8,r6,8052e4 <_malloc_r+0x4e4>
  8052fc:	32000317 	ldw	r8,12(r6)
  805300:	39c00117 	ldw	r7,4(r7)
  805304:	82000315 	stw	r8,12(r16)
  805308:	81800215 	stw	r6,8(r16)
  80530c:	07002074 	movhi	fp,129
  805310:	e70b0a04 	addi	fp,fp,11304
  805314:	34000315 	stw	r16,12(r6)
  805318:	44000215 	stw	r16,8(r8)
  80531c:	003f3e06 	br	805018 <_malloc_r+0x218>
  805320:	63000044 	addi	r12,r12,1
  805324:	608000cc 	andi	r2,r12,3
  805328:	10005d26 	beq	r2,zero,8054a0 <_malloc_r+0x6a0>
  80532c:	18c00204 	addi	r3,r3,8
  805330:	003f5106 	br	805078 <_malloc_r+0x278>
  805334:	8089883a 	add	r4,r16,r2
  805338:	003f6d06 	br	8050f0 <_malloc_r+0x2f0>
  80533c:	00805504 	movi	r2,340
  805340:	10c02036 	bltu	r2,r3,8053c4 <_malloc_r+0x5c4>
  805344:	8804d3fa 	srli	r2,r17,15
  805348:	11801dc4 	addi	r6,r2,119
  80534c:	300490fa 	slli	r2,r6,3
  805350:	003ed806 	br	804eb4 <_malloc_r+0xb4>
  805354:	48c000c4 	addi	r3,r9,3
  805358:	003f3106 	br	805020 <_malloc_r+0x220>
  80535c:	05c02074 	movhi	r23,129
  805360:	bdd8af04 	addi	r23,r23,25276
  805364:	b8800017 	ldw	r2,0(r23)
  805368:	988d883a 	add	r6,r19,r2
  80536c:	b9800015 	stw	r6,0(r23)
  805370:	293fb21e 	bne	r5,r4,80523c <_malloc_r+0x43c>
  805374:	2083ffcc 	andi	r2,r4,4095
