
Fractal_cpu1.elf:     file format elf32-littlenios2
Fractal_cpu1.elf
architecture: nios2, flags 0x00000112:
EXEC_P, HAS_SYMS, D_PAGED
start address 0x00b501b4

Program Header:
    LOAD off    0x00001000 vaddr 0x00b50000 paddr 0x00b50000 align 2**12
         filesz 0x00000020 memsz 0x00000020 flags r-x
    LOAD off    0x00001020 vaddr 0x00b50020 paddr 0x00b50020 align 2**12
         filesz 0x0001142c memsz 0x0001142c flags r-x
    LOAD off    0x0001244c vaddr 0x00b6144c paddr 0x00b6301c align 2**12
         filesz 0x00001bd0 memsz 0x00001bd0 flags rw-
    LOAD off    0x00014bec vaddr 0x00b64bec paddr 0x00b64bec align 2**12
         filesz 0x00000000 memsz 0x000002f8 flags rw-

Sections:
Idx Name          Size      VMA       LMA       File off  Algn
  0 .entry        00000020  00b50000  00b50000  00001000  2**5
                  CONTENTS, ALLOC, LOAD, READONLY, CODE
  1 .exceptions   00000194  00b50020  00b50020  00001020  2**2
                  CONTENTS, ALLOC, LOAD, READONLY, CODE
  2 .text         00010dc0  00b501b4  00b501b4  000011b4  2**2
                  CONTENTS, ALLOC, LOAD, READONLY, CODE
  3 .rodata       000004d8  00b60f74  00b60f74  00011f74  2**2
                  CONTENTS, ALLOC, LOAD, READONLY, DATA
  4 .rwdata       00001bd0  00b6144c  00b6301c  0001244c  2**2
                  CONTENTS, ALLOC, LOAD, DATA, SMALL_DATA
  5 .bss          000002f8  00b64bec  00b64bec  00014bec  2**2
                  ALLOC, SMALL_DATA
  6 .comment      00000023  00000000  00000000  0001401c  2**0
                  CONTENTS, READONLY
  7 .debug_aranges 00001058  00000000  00000000  00014040  2**3
                  CONTENTS, READONLY, DEBUGGING
  8 .debug_pubnames 00001b6d  00000000  00000000  00015098  2**0
                  CONTENTS, READONLY, DEBUGGING
  9 .debug_info   0002a1b3  00000000  00000000  00016c05  2**0
                  CONTENTS, READONLY, DEBUGGING
 10 .debug_abbrev 0000a00d  00000000  00000000  00040db8  2**0
                  CONTENTS, READONLY, DEBUGGING
 11 .debug_line   00019c1d  00000000  00000000  0004adc5  2**0
                  CONTENTS, READONLY, DEBUGGING
 12 .debug_frame  000020e8  00000000  00000000  000649e4  2**2
                  CONTENTS, READONLY, DEBUGGING
 13 .debug_str    00002c32  00000000  00000000  00066acc  2**0
                  CONTENTS, READONLY, DEBUGGING
 14 .debug_loc    0000e595  00000000  00000000  000696fe  2**0
                  CONTENTS, READONLY, DEBUGGING
 15 .debug_alt_sim_info 00000030  00000000  00000000  00077c94  2**2
                  CONTENTS, READONLY, DEBUGGING
 16 .debug_ranges 00000d38  00000000  00000000  00077cc8  2**3
                  CONTENTS, READONLY, DEBUGGING
 17 .thread_model 00000003  00000000  00000000  0007c67d  2**0
                  CONTENTS, READONLY
 18 .cpu          00000005  00000000  00000000  0007c680  2**0
                  CONTENTS, READONLY
 19 .simulation_enabled 00000001  00000000  00000000  0007c685  2**0
                  CONTENTS, READONLY
 20 .sysid_hash   00000004  00000000  00000000  0007c686  2**0
                  CONTENTS, READONLY
 21 .sysid_base   00000004  00000000  00000000  0007c68a  2**0
                  CONTENTS, READONLY
 22 .sysid_time   00000004  00000000  00000000  0007c68e  2**0
                  CONTENTS, READONLY
 23 .stderr_dev   0000000b  00000000  00000000  0007c692  2**0
                  CONTENTS, READONLY
 24 .stdin_dev    0000000b  00000000  00000000  0007c69d  2**0
                  CONTENTS, READONLY
 25 .stdout_dev   0000000b  00000000  00000000  0007c6a8  2**0
                  CONTENTS, READONLY
 26 .sopc_system_name 0000000b  00000000  00000000  0007c6b3  2**0
                  CONTENTS, READONLY
 27 .quartus_project_dir 00000020  00000000  00000000  0007c6be  2**0
                  CONTENTS, READONLY
 28 .jdi          0000ff9d  00000000  00000000  0007c6de  2**0
                  CONTENTS, READONLY
 29 .sopcinfo     000cf0fc  00000000  00000000  0008c67b  2**0
                  CONTENTS, READONLY
SYMBOL TABLE:
00b50000 l    d  .entry	00000000 .entry
00b50020 l    d  .exceptions	00000000 .exceptions
00b501b4 l    d  .text	00000000 .text
00b60f74 l    d  .rodata	00000000 .rodata
00b6144c l    d  .rwdata	00000000 .rwdata
00b64bec l    d  .bss	00000000 .bss
00000000 l    d  .comment	00000000 .comment
00000000 l    d  .debug_aranges	00000000 .debug_aranges
00000000 l    d  .debug_pubnames	00000000 .debug_pubnames
00000000 l    d  .debug_info	00000000 .debug_info
00000000 l    d  .debug_abbrev	00000000 .debug_abbrev
00000000 l    d  .debug_line	00000000 .debug_line
00000000 l    d  .debug_frame	00000000 .debug_frame
00000000 l    d  .debug_str	00000000 .debug_str
00000000 l    d  .debug_loc	00000000 .debug_loc
00000000 l    d  .debug_alt_sim_info	00000000 .debug_alt_sim_info
00000000 l    d  .debug_ranges	00000000 .debug_ranges
00b501fc l       .text	00000000 alt_after_alt_main
00000000 l    df *ABS*	00000000 alt_irq_handler.c
00000000 l    df *ABS*	00000000 Fractal.c
00000000 l    df *ABS*	00000000 Project.c
00000000 l    df *ABS*	00000000 wf_pow.c
00000000 l    df *ABS*	00000000 ef_pow.c
00b62fb0 l     O .rwdata	00000008 bp
00b62fb8 l     O .rwdata	00000008 dp_l
00b62fc0 l     O .rwdata	00000008 dp_h
00000000 l    df *ABS*	00000000 ef_sqrt.c
00000000 l    df *ABS*	00000000 s_lib_ver.c
00000000 l    df *ABS*	00000000 s_matherr.c
00000000 l    df *ABS*	00000000 s_rint.c
00b60fd0 l     O .rodata	00000010 TWO52
00000000 l    df *ABS*	00000000 sf_fabs.c
00000000 l    df *ABS*	00000000 sf_finite.c
00000000 l    df *ABS*	00000000 sf_isnan.c
00000000 l    df *ABS*	00000000 sf_nan.c
00000000 l    df *ABS*	00000000 sf_scalbn.c
00000000 l    df *ABS*	00000000 sf_copysign.c
00000000 l    df *ABS*	00000000 fp-bit.c
00b5211c l     F .text	000001e4 _fpadd_parts
00000000 l    df *ABS*	00000000 fp-bit.c
00000000 l    df *ABS*	00000000 fp-bit.c
00000000 l    df *ABS*	00000000 fp-bit.c
00000000 l    df *ABS*	00000000 fp-bit.c
00000000 l    df *ABS*	00000000 fp-bit.c
00000000 l    df *ABS*	00000000 fp-bit.c
00000000 l    df *ABS*	00000000 fp-bit.c
00000000 l    df *ABS*	00000000 fp-bit.c
00000000 l    df *ABS*	00000000 fp-bit.c
00000000 l    df *ABS*	00000000 dp-bit.c
00b529f4 l     F .text	00000410 _fpadd_parts
00000000 l    df *ABS*	00000000 dp-bit.c
00000000 l    df *ABS*	00000000 dp-bit.c
00000000 l    df *ABS*	00000000 dp-bit.c
00000000 l    df *ABS*	00000000 dp-bit.c
00000000 l    df *ABS*	00000000 dp-bit.c
00000000 l    df *ABS*	00000000 libgcc2.c
00000000 l    df *ABS*	00000000 libgcc2.c
00000000 l    df *ABS*	00000000 fp-bit.c
00000000 l    df *ABS*	00000000 fp-bit.c
00000000 l    df *ABS*	00000000 fp-bit.c
00000000 l    df *ABS*	00000000 fp-bit.c
00000000 l    df *ABS*	00000000 dp-bit.c
00000000 l    df *ABS*	00000000 dp-bit.c
00000000 l    df *ABS*	00000000 dp-bit.c
00000000 l    df *ABS*	00000000 libgcc2.c
00000000 l    df *ABS*	00000000 errno.c
00000000 l    df *ABS*	00000000 impure.c
00b6144c l     O .rwdata	00000400 impure_data
00000000 l    df *ABS*	00000000 printf.c
00000000 l    df *ABS*	00000000 puts.c
00000000 l    df *ABS*	00000000 sprintf.c
00000000 l    df *ABS*	00000000 strlen.c
00000000 l    df *ABS*	00000000 vfprintf.c
00b53e30 l     F .text	00000058 __sprint_r
00b61176 l     O .rodata	00000010 blanks.3452
00b61166 l     O .rodata	00000010 zeroes.3453
00000000 l    df *ABS*	00000000 wsetup.c
00000000 l    df *ABS*	00000000 dtoa.c
00b55e94 l     F .text	00000218 quorem
00000000 l    df *ABS*	00000000 fflush.c
00000000 l    df *ABS*	00000000 findfp.c
00b57890 l     F .text	00000058 std
00b5799c l     F .text	00000008 __fp_lock
00b579a4 l     F .text	00000008 __fp_unlock
00000000 l    df *ABS*	00000000 mallocr.c
00000000 l    df *ABS*	00000000 fvwrite.c
00000000 l    df *ABS*	00000000 fwalk.c
00000000 l    df *ABS*	00000000 locale.c
00b62fd8 l     O .rwdata	00000004 charset
00b611a4 l     O .rodata	00000030 lconv
00000000 l    df *ABS*	00000000 makebuf.c
00000000 l    df *ABS*	00000000 mallocr.c
00000000 l    df *ABS*	00000000 memchr.c
00000000 l    df *ABS*	00000000 memcpy.c
00000000 l    df *ABS*	00000000 memmove.c
00000000 l    df *ABS*	00000000 memset.c
00000000 l    df *ABS*	00000000 mprec.c
00b612ec l     O .rodata	0000000c p05.2458
00000000 l    df *ABS*	00000000 mallocr.c
00000000 l    df *ABS*	00000000 s_isinfd.c
00000000 l    df *ABS*	00000000 s_isnand.c
00000000 l    df *ABS*	00000000 sbrkr.c
00000000 l    df *ABS*	00000000 stdio.c
00000000 l    df *ABS*	00000000 strcmp.c
00000000 l    df *ABS*	00000000 writer.c
00000000 l    df *ABS*	00000000 mallocr.c
00000000 l    df *ABS*	00000000 closer.c
00000000 l    df *ABS*	00000000 fclose.c
00000000 l    df *ABS*	00000000 fstatr.c
00000000 l    df *ABS*	00000000 int_errno.c
00000000 l    df *ABS*	00000000 isattyr.c
00000000 l    df *ABS*	00000000 lseekr.c
00000000 l    df *ABS*	00000000 readr.c
00000000 l    df *ABS*	00000000 libgcc2.c
00000000 l    df *ABS*	00000000 libgcc2.c
00000000 l    df *ABS*	00000000 dp-bit.c
00000000 l    df *ABS*	00000000 dp-bit.c
00000000 l    df *ABS*	00000000 dp-bit.c
00000000 l    df *ABS*	00000000 dp-bit.c
00000000 l    df *ABS*	00000000 dp-bit.c
00000000 l    df *ABS*	00000000 dp-bit.c
00000000 l    df *ABS*	00000000 dp-bit.c
00000000 l    df *ABS*	00000000 dp-bit.c
00000000 l    df *ABS*	00000000 lib2-divmod.c
00b5c478 l     F .text	0000007c udivmodsi4
00000000 l    df *ABS*	00000000 alt_close.c
00b5c6c0 l     F .text	00000060 alt_get_errno
00000000 l    df *ABS*	00000000 alt_dev.c
00b5c720 l     F .text	0000002c alt_dev_null_write
00000000 l    df *ABS*	00000000 alt_errno.c
00000000 l    df *ABS*	00000000 alt_fstat.c
00b5c820 l     F .text	00000060 alt_get_errno
00000000 l    df *ABS*	00000000 alt_isatty.c
00b5c940 l     F .text	00000060 alt_get_errno
00000000 l    df *ABS*	00000000 alt_load.c
00b5ca20 l     F .text	0000006c alt_load_section
00000000 l    df *ABS*	00000000 alt_lseek.c
00b5cb7c l     F .text	00000060 alt_get_errno
00000000 l    df *ABS*	00000000 alt_main.c
00000000 l    df *ABS*	00000000 alt_malloc_lock.c
00000000 l    df *ABS*	00000000 alt_read.c
00b5cda8 l     F .text	00000060 alt_get_errno
00000000 l    df *ABS*	00000000 alt_release_fd.c
00000000 l    df *ABS*	00000000 alt_sbrk.c
00b62ffc l     O .rwdata	00000004 heap_end
00000000 l    df *ABS*	00000000 alt_write.c
00b5d044 l     F .text	00000060 alt_get_errno
00000000 l    df *ABS*	00000000 alt_sys_init.c
00b61e08 l     O .rwdata	00001060 jtag_uart_1
00b62e68 l     O .rwdata	0000003c mailbox_0
00b62ea4 l     O .rwdata	0000003c mailbox_1
00b62ee0 l     O .rwdata	0000003c mailbox_2
00b62f1c l     O .rwdata	0000003c mailbox_3
00b62f58 l     O .rwdata	00000054 video_pixel_buffer_dma_0
00b5d350 l     F .text	00000038 alt_dev_reg
00000000 l    df *ABS*	00000000 altera_avalon_jtag_uart_fd.c
00000000 l    df *ABS*	00000000 altera_avalon_jtag_uart_init.c
00b5d590 l     F .text	00000228 altera_avalon_jtag_uart_irq
00b5d7b8 l     F .text	000000b0 altera_avalon_jtag_uart_timeout
00000000 l    df *ABS*	00000000 altera_avalon_jtag_uart_ioctl.c
00000000 l    df *ABS*	00000000 altera_avalon_jtag_uart_read.c
00000000 l    df *ABS*	00000000 altera_avalon_jtag_uart_write.c
00000000 l    df *ABS*	00000000 altera_avalon_mailbox.c
00b5df8c l     F .text	0000006c alt_avalon_mutex_reg
00b5dff8 l     F .text	00000060 alt_get_errno
00b5e18c l     F .text	00000050 alt_mailbox_increment_ptr
00000000 l    df *ABS*	00000000 altera_avalon_mutex.c
00b5e35c l     F .text	0000007c alt_mutex_trylock
00b5e430 l     F .text	00000060 alt_get_errno
00000000 l    df *ABS*	00000000 altera_up_avalon_video_pixel_buffer_dma.c
00000000 l    df *ABS*	00000000 alt_alarm_start.c
00000000 l    df *ABS*	00000000 alt_dcache_flush_all.c
00000000 l    df *ABS*	00000000 alt_dev_llist_insert.c
00b5fe18 l     F .text	00000060 alt_get_errno
00000000 l    df *ABS*	00000000 alt_do_ctors.c
00000000 l    df *ABS*	00000000 alt_do_dtors.c
00000000 l    df *ABS*	00000000 alt_find_dev.c
00000000 l    df *ABS*	00000000 alt_icache_flush_all.c
00000000 l    df *ABS*	00000000 alt_iic.c
00000000 l    df *ABS*	00000000 alt_iic_isr_register.c
00000000 l    df *ABS*	00000000 alt_io_redirect.c
00b602d0 l     F .text	000000c4 alt_open_fd
00000000 l    df *ABS*	00000000 alt_irq_vars.c
00000000 l    df *ABS*	00000000 alt_open.c
00b6040c l     F .text	000000dc alt_file_locked
00b60670 l     F .text	00000060 alt_get_errno
00000000 l    df *ABS*	00000000 alt_tick.c
00000000 l    df *ABS*	00000000 altera_nios2_irq.c
00000000 l    df *ABS*	00000000 alt_find_file.c
00000000 l    df *ABS*	00000000 alt_get_fd.c
00000000 l    df *ABS*	00000000 alt_icache_flush.c
00000000 l    df *ABS*	00000000 atexit.c
00000000 l    df *ABS*	00000000 exit.c
00000000 l    df *ABS*	00000000 memcmp.c
00000000 l    df *ABS*	00000000 __atexit.c
00000000 l    df *ABS*	00000000 __call_atexit.c
00b60cf0 l     F .text	00000004 register_fini
00000000 l    df *ABS*	00000000 alt_exit.c
00b60ea4 l     F .text	00000040 alt_sim_halt
00b50200 g     F .text	00000084 genColor
00b64bec g     O .bss	00000008 targetArrayXYMaster
00b5964c g     F .text	00000094 _mprec_log10
00007000 g       *ABS*	00000000 __alt_mem_onchip_memory2_3
00b59738 g     F .text	00000088 __any_on
00b5ae44 g     F .text	00000070 _isatty_r
00b612c4 g     O .rodata	00000028 __mprec_tinytens
00b5cbdc g     F .text	0000006c alt_main
00b5e1dc g     F .text	000000a8 altera_avalon_mailbox_pend
00b5f2cc g     F .text	000003d0 alt_up_pixel_buffer_dma_draw_vline
00b53c34 g     F .text	000000a0 _puts_r
00b64c54 g     O .bss	00000100 alt_irq
00b5aeb4 g     F .text	00000078 _lseek_r
00b6301c g       *ABS*	00000000 __flash_rwdata_start
00b5bef4 g     F .text	00000088 __eqdf2
00b64ee4 g       *ABS*	00000000 __alt_heap_start
00b5e284 g     F .text	000000d8 altera_avalon_mailbox_get
00b53bbc g     F .text	00000044 printf
00b5a910 g     F .text	00000068 __sseek
00b578f8 g     F .text	000000a4 __sinit
00b585d0 g     F .text	00000084 _setlocale_r
00b579f8 g     F .text	00000068 __sfmoreglue
00b5cc68 g     F .text	00000020 __malloc_unlock
00b525b4 g     F .text	00000174 __divsf3
00b590c8 g     F .text	000000e0 memmove
00b579e8 g     F .text	00000010 _cleanup
00b50c7c g     F .text	00000458 powf
00b5e4f0 g     F .text	00000040 altera_avalon_mutex_trylock
00b597c0 g     F .text	000000bc _Balloc
00b5e6a0 g     F .text	000001a0 alt_up_pixel_buffer_dma_draw
00b5bf7c g     F .text	00000088 __gtdf2
00b53bac g     F .text	00000010 __errno
00b5e660 g     F .text	00000040 alt_up_pixel_buffer_dma_open_dev
00b50000 g     F .entry	0000001c __reset
00b5e58c g     F .text	0000007c altera_avalon_mutex_is_mine
00b50020 g       *ABS*	00000000 __flash_exceptions_start
00b5add0 g     F .text	00000074 _fstat_r
00b64c10 g     O .bss	00000004 errno
00b531d8 g     F .text	00000038 __make_dp
00b5366c g     F .text	0000002c __make_fp
00b64c18 g     O .bss	00000004 alt_argv
00b6afac g       *ABS*	00000000 _gp
00b52300 g     F .text	00000070 __subsf3
00b5e840 g     F .text	00000058 alt_up_pixel_buffer_dma_change_back_buffer_address
00006000 g       *ABS*	00000000 __alt_mem_onchip_memory2_2
00b61c88 g     O .rwdata	00000180 alt_fd_list
00b5ff40 g     F .text	00000094 alt_find_dev
00b59028 g     F .text	000000a0 memcpy
00b579dc g     F .text	0000000c _cleanup_r
00b5c114 g     F .text	000000f8 __floatsidf
00b60394 g     F .text	00000078 alt_io_redirect
00b5c08c g     F .text	00000088 __ltdf2
00b60f74 g       *ABS*	00000000 __DTOR_END__
00b53cd4 g     F .text	00000014 puts
00b60874 g     F .text	00000020 altera_nios2_irq_init
00b5959c g     F .text	000000b0 __ratio
00b5e0d0 g     F .text	000000bc altera_avalon_mailbox_post
00b5e8f0 g     F .text	00000034 alt_up_pixel_buffer_dma_check_swap_buffers_status
00b5d9d0 g     F .text	00000224 altera_avalon_jtag_uart_read
00000000  w      *UND*	00000000 malloc
00b53c00 g     F .text	00000034 _printf_r
00003000 g       *ABS*	00000000 __alt_mem_onchip_memory2_0
00b5c5b4 g     F .text	00000008 __udivsi3
00b5c880 g     F .text	000000c0 isatty
00b611d4 g     O .rodata	000000c8 __mprec_tens
00b5e0b0 g     F .text	00000020 altera_avalon_mailbox_close
00b5ef7c g     F .text	00000350 alt_up_pixel_buffer_dma_draw_hline
00b585ac g     F .text	00000008 __locale_charset
00b52890 g     F .text	00000078 __lesf2
00b60a6c g     F .text	00000090 alt_icache_flush
00b64c04 g     O .bss	00000004 __malloc_top_pad
00b62fd4 g     O .rwdata	00000004 __mb_cur_max
00b585b4 g     F .text	0000000c _localeconv_r
00b59eb8 g     F .text	0000003c __i2b
00b57f90 g     F .text	0000049c __sfvwrite_r
00b51f7c g     F .text	0000001c finitef
00b5a898 g     F .text	00000070 _sbrk_r
00b5f760 g     F .text	000000d0 helper_plot_pixel
00b51f6c g     F .text	00000010 fabsf
00b5af2c g     F .text	00000078 _read_r
00b6184c g     O .rwdata	0000000c __lc_ctype
00b62ff4 g     O .rwdata	00000004 alt_max_fd
00b539ac g     F .text	00000138 __unpack_d
00b5acac g     F .text	00000110 _fclose_r
00b5785c g     F .text	00000034 fflush
00b509dc g     F .text	00000224 drawFullSet
00b64c08 g     O .bss	00000004 __malloc_max_sbrked_mem
00b529a0 g     F .text	00000054 __extendsfdf2
00b51f98 g     F .text	00000018 isnanf
00b52e84 g     F .text	00000074 __adddf3
00b5947c g     F .text	00000120 __b2d
00b5e924 g     F .text	00000164 alt_up_pixel_buffer_dma_clear_screen
00b5b580 g     F .text	000005b0 __umoddi3
00b5ca8c g     F .text	000000f0 lseek
00b5e608 g     F .text	00000058 altera_avalon_mutex_first_lock
00b62fc8 g     O .rwdata	00000004 __fdlib_version
00b62fd0 g     O .rwdata	00000004 _global_impure_ptr
00b5a234 g     F .text	000005f4 _realloc_r
00b64ee4 g       *ABS*	00000000 __bss_end
00b601d8 g     F .text	000000f8 alt_iic_isr_register
00b5ea88 g     F .text	000004f4 alt_up_pixel_buffer_dma_draw_box
00b60768 g     F .text	0000010c alt_tick
00b5afa4 g     F .text	000005dc __udivdi3
00b6129c g     O .rodata	00000028 __mprec_bigtens
00b5a114 g     F .text	00000120 __s2b
00b5c2e4 g     F .text	00000194 __floatunsidf
00b5939c g     F .text	00000060 __mcmp
00b579c4 g     F .text	00000018 __fp_lock_all
00b60190 g     F .text	00000048 alt_ic_irq_enabled
00b606d0 g     F .text	00000098 alt_alarm_stop
00b64c20 g     O .bss	00000004 alt_irq_active
00b5038c g     F .text	00000168 mandelbrotNoZoom
00b500ec g     F .exceptions	000000c8 alt_irq_handler
00b61c60 g     O .rwdata	00000028 alt_dev_null
00b504f4 g     F .text	000001ac barrier
00b5e3d8 g     F .text	00000058 altera_avalon_mutex_open
00b51d5c g     F .text	00000210 rint
00b534fc g     F .text	000000c8 __unpack_f
00b5fd20 g     F .text	00000044 alt_dcache_flush_all
00b59268 g     F .text	00000070 __hi0bits
00b5f69c g     F .text	000000c4 alt_up_pixel_buffer_dma_draw_rectangle
00b5c20c g     F .text	000000d8 __fixdfsi
00b6301c g       *ABS*	00000000 __ram_rwdata_end
00b62fec g     O .rwdata	00000008 alt_dev_list
00b5cf24 g     F .text	00000120 write
00b5f830 g     F .text	0000039c alt_up_pixel_buffer_dma_draw_line
00b527a0 g     F .text	00000078 __gtsf2
00b63008 g     O .rwdata	00000008 alt_mutex_list
00b6144c g       *ABS*	00000000 __ram_rodata_end
00b5c74c g     F .text	000000d4 fstat
00b59ff4 g     F .text	00000120 __pow5mult
00b64bf8 g     O .bss	00000004 __nlocale_changed
00b5c5bc g     F .text	00000008 __umodsi3
00b64ee4 g       *ABS*	00000000 end
00b5339c g     F .text	00000160 __pack_f
00b64bf4 g     O .bss	00000004 myPixelBuffer
00b5d4d0 g     F .text	000000c0 altera_avalon_jtag_uart_init
00b60f70 g       *ABS*	00000000 __CTOR_LIST__
00d00000 g       *ABS*	00000000 __alt_stack_pointer
00b5331c g     F .text	00000080 __clzsi2
00b5dbf4 g     F .text	00000240 altera_avalon_jtag_uart_write
00b5de34 g     F .text	00000158 alt_avalon_mailbox_init
00b578e8 g     F .text	00000004 __sfp_lock_acquire
00b58f44 g     F .text	000000e4 memchr
00b53e88 g     F .text	00001eac ___vfprintf_internal_r
00b53d5c g     F .text	00000060 _sprintf_r
00b57c7c g     F .text	00000314 _free_r
00b60cf4 g     F .text	000001b0 __call_exitprocs
00b64bfc g     O .bss	00000004 __mlocale_changed
00b62fe0 g     O .rwdata	00000004 __malloc_sbrk_base
00b501b4 g     F .text	0000004c _start
00b64c24 g     O .bss	00000004 _alt_tick_rate
00b59b84 g     F .text	0000014c __lshift
00b64c28 g     O .bss	00000004 _alt_nticks
00b5cc88 g     F .text	00000120 read
00b5d0d8 g     F .text	00000278 alt_sys_init
00b52908 g     F .text	00000098 __floatsisf
00b60bbc g     F .text	00000134 __register_exitproc
00b5e530 g     F .text	0000005c altera_avalon_mutex_unlock
00b59cd0 g     F .text	000001e8 __multiply
00b5d868 g     F .text	00000074 altera_avalon_jtag_uart_close
00b6144c g       *ABS*	00000000 __ram_rwdata_start
00b60f74 g       *ABS*	00000000 __ram_rodata_start
00b64c2c g     O .bss	00000028 __malloc_current_mallinfo
00004000 g       *ABS*	00000000 __alt_mem_onchip_memory2_1
00b52728 g     F .text	00000078 __eqsf2
00b5987c g     F .text	0000017c __d2b
00b5d388 g     F .text	00000058 altera_avalon_jtag_uart_read_fd
00b609b4 g     F .text	000000b8 alt_get_fd
00b53ae4 g     F .text	000000c8 __fpcmp_parts_d
00b5ac3c g     F .text	00000070 _close_r
00b506d0 g     F .text	0000030c drawFrame
00b60b48 g     F .text	00000074 memcmp
00b5d438 g     F .text	00000048 altera_avalon_jtag_uart_close_fd
00b64ee4 g       *ABS*	00000000 __alt_stack_base
00b5d480 g     F .text	00000050 altera_avalon_jtag_uart_ioctl_fd
00b55d58 g     F .text	0000013c __swsetup_r
00b52ef8 g     F .text	00000258 __divdf3
00b57a60 g     F .text	000000f0 __sfp
00b596e0 g     F .text	00000058 __copybits
00b61858 g     O .rwdata	00000408 __malloc_av_
00b578f4 g     F .text	00000004 __sinit_lock_release
00b5bb30 g     F .text	000003c4 __muldf3
00b510d4 g     F .text	00000b14 __ieee754_powf
00b5a9f4 g     F .text	00000060 __sread
00b60fe0 g     O .rodata	00000010 __thenan_sf
00b60894 g     F .text	00000120 alt_find_file
00b5fd64 g     F .text	000000b4 alt_dev_llist_insert
00b5cc48 g     F .text	00000020 __malloc_lock
00b5ce68 g     F .text	000000bc sbrk
00b51fb8 g     F .text	0000014c scalbnf
00b57660 g     F .text	000001fc _fflush_r
00b5ab88 g     F .text	000000b4 _calloc_r
00b64bec g       *ABS*	00000000 __bss_start
00b591a8 g     F .text	00000098 memset
00b51be8 g     F .text	0000016c __ieee754_sqrtf
00b50c00 g     F .text	0000007c main
00b64c1c g     O .bss	00000004 alt_envp
00b64c0c g     O .bss	00000004 __malloc_max_total_mem
00b5e898 g     F .text	00000058 alt_up_pixel_buffer_dma_swap_buffers
00b5d3e0 g     F .text	00000058 altera_avalon_jtag_uart_write_fd
00b52818 g     F .text	00000078 __ltsf2
00b5a908 g     F .text	00000008 __sclose
00b51d54 g     F .text	00000008 matherr
00d00000 g       *ABS*	00000000 __alt_heap_limit
00b5adbc g     F .text	00000014 fclose
00b53210 g     F .text	00000074 __truncdfsf2
00b64d54 g     O .bss	00000190 _atexit0
00b5e4b0 g     F .text	00000040 altera_avalon_mutex_lock
00b560ac g     F .text	000015b4 _dtoa_r
00b58804 g     F .text	00000740 _malloc_r
00b62ff8 g     O .rwdata	00000004 alt_errno
00b584f4 g     F .text	000000b8 _fwalk
00b5c4f4 g     F .text	00000060 __divsi3
00b60ff0 g     O .rodata	00000014 __thenan_df
00b57b50 g     F .text	0000012c _malloc_trim_r
00b60f74 g       *ABS*	00000000 __CTOR_END__
00b523d4 g     F .text	000001e0 __mulsf3
00b5aa54 g     F .text	000000bc strcmp
00b60f74 g       *ABS*	00000000 __flash_rodata_start
00b60f74 g       *ABS*	00000000 __DTOR_LIST__
00b53150 g     F .text	00000088 __nedf2
00b5d0a4 g     F .text	00000034 alt_irq_init
00b5ce08 g     F .text	00000060 alt_release_fd
00b52104 g     F .text	00000018 copysignf
00b53ce8 g     F .text	00000074 sprintf
00b61004 g     O .rodata	00000100 __clz_tab
00b64c00 g     O .bss	00000004 _PathLocale
00b60afc g     F .text	00000014 atexit
00b5ab10 g     F .text	00000078 _write_r
00b58654 g     F .text	0000001c setlocale
00b51fb0 g     F .text	00000008 nanf
00b62fcc g     O .rwdata	00000004 _impure_ptr
00b64c14 g     O .bss	00000004 alt_argc
00b5fedc g     F .text	00000064 _do_dtors
00800000 g       *ABS*	00000000 __alt_mem_sdram_0
00b50020 g       .exceptions	00000000 alt_irq_entry
00b593fc g     F .text	00000080 __ulp
00b5a828 g     F .text	00000040 __isinfd
00b579ac g     F .text	00000018 __fp_unlock_all
00b63000 g     O .rwdata	00000008 alt_mailbox_list
00b506a0 g     F .text	00000030 setup
00b62fe4 g     O .rwdata	00000008 alt_fs_list
00b50020 g       *ABS*	00000000 __ram_exceptions_start
00b585c0 g     F .text	00000010 localeconv
00b60004 g     F .text	00000050 alt_ic_isr_register
00b6301c g       *ABS*	00000000 _edata
00b64ee4 g       *ABS*	00000000 _end
00b501b4 g       *ABS*	00000000 __ram_exceptions_end
00b5d8dc g     F .text	000000f4 altera_avalon_jtag_uart_ioctl
00b600f0 g     F .text	000000a0 alt_ic_irq_disable
00b5a978 g     F .text	0000007c __swrite
00b62fdc g     O .rwdata	00000004 __malloc_trim_threshold
00b60b10 g     F .text	00000038 exit
00b5842c g     F .text	000000c8 _fwalk_reent
00b599f8 g     F .text	0000018c __mdiff
00b50284 g     F .text	000000fc mandelbrot
00b5c554 g     F .text	00000060 __modsi3
00d00000 g       *ABS*	00000000 __alt_data_end
00b50020 g     F .exceptions	00000000 alt_exception
00b578ec g     F .text	00000004 __sfp_lock_release
00b5e058 g     F .text	00000058 altera_avalon_mailbox_open
00b535c4 g     F .text	000000a8 __fpcmp_parts_f
00b60ee4 g     F .text	00000020 _exit
00b5a868 g     F .text	00000030 __isnand
00b5fbcc g     F .text	00000154 alt_alarm_start
00b53284 g     F .text	00000098 __muldi3
00b58670 g     F .text	00000194 __smakebuf_r
00b53dbc g     F .text	00000074 strlen
00b604e8 g     F .text	00000188 open
00b5c004 g     F .text	00000088 __gedf2
00b50380 g     F .text	0000000c clearScreen
00b5ffd4 g     F .text	00000030 alt_icache_flush_all
00b63010 g     O .rwdata	00000004 alt_priority_mask
00b60054 g     F .text	0000009c alt_ic_irq_enable
00b55d34 g     F .text	00000024 __vfprintf_internal
00b5e490 g     F .text	00000020 altera_avalon_mutex_close
00b52e04 g     F .text	00000080 __subdf3
00b592d8 g     F .text	000000c4 __lo0bits
00b62fac g     O .rwdata	00000004 targetArrayXY
00b63014 g     O .rwdata	00000008 alt_alarm_list
00b5fe78 g     F .text	00000064 _do_ctors
00b5c5c4 g     F .text	000000fc close
00b52370 g     F .text	00000064 __addsf3
00b5c9a0 g     F .text	00000080 alt_load
00b53698 g     F .text	00000314 __pack_d
00000000  w      *UND*	00000000 free
00b578f0 g     F .text	00000004 __sinit_lock_acquire
00b59ef4 g     F .text	00000100 __multadd
00b59240 g     F .text	00000028 _Bfree



Disassembly of section .entry:

00b50000 <__reset>:
#if NIOS2_ICACHE_SIZE > 0 && defined(ALT_ALLOW_CODE_AT_RESET) && !defined(ALT_SIM_OPTIMIZE)
    /* Assume the instruction cache size is always a power of two. */
#if NIOS2_ICACHE_SIZE > 0x8000
    movhi r2, %hi(NIOS2_ICACHE_SIZE)
#else
    movui r2, NIOS2_ICACHE_SIZE
  b50000:	00840014 	movui	r2,4096
#endif

0:
    initi r2
  b50004:	1001483a 	initi	r2
    addi r2, r2, -NIOS2_ICACHE_LINE_SIZE
  b50008:	10bff804 	addi	r2,r2,-32
    bgt r2, zero, 0b
  b5000c:	00bffd16 	blt	zero,r2,b50004 <__reset+0x4>
 * Jump to the _start entry point in the .text section if reset code
 * is allowed or if optimizing for RTL simulation.
 */
#if defined(ALT_ALLOW_CODE_AT_RESET) || defined(ALT_SIM_OPTIMIZE)
    /* Jump to the _start entry point in the .text section. */
    movhi r1, %hi(_start)
  b50010:	00402d74 	movhi	at,181
    ori r1, r1, %lo(_start)
  b50014:	08406d14 	ori	at,at,436
    jmp r1
  b50018:	0800683a 	jmp	at
  b5001c:	00000000 	call	0 <__alt_mem_onchip_memory2_0-0x3000>

Disassembly of section .exceptions:

00b50020 <alt_exception>:
         * Process an exception.  For all exceptions we must preserve all
         * caller saved registers on the stack (See the Nios2 ABI
         * documentation for details).
         */

        addi  sp, sp, -76
  b50020:	deffed04 	addi	sp,sp,-76

#endif

#endif

        stw   ra,  0(sp)
  b50024:	dfc00015 	stw	ra,0(sp)
        /*
         * Leave a gap in the stack frame at 4(sp) for the muldiv handler to
         * store zero into.
         */

        stw   r1,   8(sp)
  b50028:	d8400215 	stw	at,8(sp)
        stw   r2,  12(sp)
  b5002c:	d8800315 	stw	r2,12(sp)
        stw   r3,  16(sp)
  b50030:	d8c00415 	stw	r3,16(sp)
        stw   r4,  20(sp)
  b50034:	d9000515 	stw	r4,20(sp)
        stw   r5,  24(sp)
  b50038:	d9400615 	stw	r5,24(sp)
        stw   r6,  28(sp)
  b5003c:	d9800715 	stw	r6,28(sp)
        stw   r7,  32(sp)
  b50040:	d9c00815 	stw	r7,32(sp)

        rdctl r5, estatus
  b50044:	000b307a 	rdctl	r5,estatus

        stw   r8,  36(sp)
  b50048:	da000915 	stw	r8,36(sp)
        stw   r9,  40(sp)
  b5004c:	da400a15 	stw	r9,40(sp)
        stw   r10, 44(sp)
  b50050:	da800b15 	stw	r10,44(sp)
        stw   r11, 48(sp)
  b50054:	dac00c15 	stw	r11,48(sp)
        stw   r12, 52(sp)
  b50058:	db000d15 	stw	r12,52(sp)
        stw   r13, 56(sp)
  b5005c:	db400e15 	stw	r13,56(sp)
        stw   r14, 60(sp)
  b50060:	db800f15 	stw	r14,60(sp)
        stw   r15, 64(sp)
  b50064:	dbc01015 	stw	r15,64(sp)
        /*
         * ea-4 contains the address of the instruction being executed
         * when the exception occured. For interrupt exceptions, we will
         * will be re-issue the isntruction. Store it in 72(sp)
         */
        stw   r5,  68(sp)  /* estatus */
  b50068:	d9401115 	stw	r5,68(sp)
        addi  r15, ea, -4  /* instruction that caused exception */
  b5006c:	ebffff04 	addi	r15,ea,-4
        stw   r15,  72(sp)
  b50070:	dbc01215 	stw	r15,72(sp)
#else
        /*
         * Test to see if the exception was a software exception or caused 
         * by an external interrupt, and vector accordingly.
         */
        rdctl r4, ipending
  b50074:	0009313a 	rdctl	r4,ipending
        andi  r2, r5, 1
  b50078:	2880004c 	andi	r2,r5,1
        beq   r2, zero, .Lnot_irq
  b5007c:	10000326 	beq	r2,zero,b5008c <alt_exception+0x6c>
        beq   r4, zero, .Lnot_irq
  b50080:	20000226 	beq	r4,zero,b5008c <alt_exception+0x6c>
        /*
         * Now that all necessary registers have been preserved, call 
         * alt_irq_handler() to process the interrupts.
         */

        call alt_irq_handler
  b50084:	0b500ec0 	call	b500ec <alt_irq_handler>

        .section .exceptions.irqreturn, "xa"

        br    .Lexception_exit
  b50088:	00000306 	br	b50098 <alt_exception+0x78>
         * upon completion, so we write ea (address of instruction *after*
         * the one where the exception occured) into 72(sp). The actual
         * instruction that caused the exception is written in r2, which these
         * handlers will utilize.
         */
        stw   ea,  72(sp)  /* Don't re-issue */
  b5008c:	df401215 	stw	ea,72(sp)
        ldw   r2, -4(ea)   /* Instruction that caused exception */
  b50090:	e8bfff17 	ldw	r2,-4(ea)
#ifdef NIOS2_HAS_DEBUG_STUB
       /*
        *  Either tell the user now (if there is a debugger attached) or go into
        *  the debug monitor which will loop until a debugger is attached.
        */
        break
  b50094:	003da03a 	break	0
        /* 
         * Restore the saved registers, so that all general purpose registers 
         * have been restored to their state at the time the interrupt occured.
         */

        ldw   r5,  68(sp)
  b50098:	d9401117 	ldw	r5,68(sp)
        ldw   ea,  72(sp)  /* This becomes the PC once eret is executed */
  b5009c:	df401217 	ldw	ea,72(sp)
        ldw   ra,   0(sp)
  b500a0:	dfc00017 	ldw	ra,0(sp)

        wrctl estatus, r5
  b500a4:	2801707a 	wrctl	estatus,r5

        ldw   r1,   8(sp)
  b500a8:	d8400217 	ldw	at,8(sp)
        ldw   r2,  12(sp)
  b500ac:	d8800317 	ldw	r2,12(sp)
        ldw   r3,  16(sp)
  b500b0:	d8c00417 	ldw	r3,16(sp)
        ldw   r4,  20(sp)
  b500b4:	d9000517 	ldw	r4,20(sp)
        ldw   r5,  24(sp)
  b500b8:	d9400617 	ldw	r5,24(sp)
        ldw   r6,  28(sp)
  b500bc:	d9800717 	ldw	r6,28(sp)
        ldw   r7,  32(sp)
  b500c0:	d9c00817 	ldw	r7,32(sp)
#ifdef ALT_STACK_CHECK
        ldw   et, %gprel(alt_exception_old_stack_limit)(gp)
#endif
#endif

        ldw   r8,  36(sp)
  b500c4:	da000917 	ldw	r8,36(sp)
        ldw   r9,  40(sp)
  b500c8:	da400a17 	ldw	r9,40(sp)
        ldw   r10, 44(sp)
  b500cc:	da800b17 	ldw	r10,44(sp)
        ldw   r11, 48(sp)
  b500d0:	dac00c17 	ldw	r11,48(sp)
        ldw   r12, 52(sp)
  b500d4:	db000d17 	ldw	r12,52(sp)
        ldw   r13, 56(sp)
  b500d8:	db400e17 	ldw	r13,56(sp)
        ldw   r14, 60(sp)
  b500dc:	db800f17 	ldw	r14,60(sp)
        ldw   r15, 64(sp)
  b500e0:	dbc01017 	ldw	r15,64(sp)
#endif

        ldw   sp,  76(sp)

#else
        addi  sp, sp, 76
  b500e4:	dec01304 	addi	sp,sp,76

        /*
         * Return to the interrupted instruction.
         */

        eret
  b500e8:	ef80083a 	eret

00b500ec <alt_irq_handler>:
 * instruction is present if the macro ALT_CI_INTERRUPT_VECTOR defined.
 */

void alt_irq_handler (void) __attribute__ ((section (".exceptions")));
void alt_irq_handler (void)
{
  b500ec:	defff904 	addi	sp,sp,-28
  b500f0:	dfc00615 	stw	ra,24(sp)
  b500f4:	df000515 	stw	fp,20(sp)
  b500f8:	df000504 	addi	fp,sp,20
#ifndef NIOS2_EIC_PRESENT
static ALT_INLINE alt_u32 ALT_ALWAYS_INLINE alt_irq_pending (void)
{
  alt_u32 active;

  NIOS2_READ_IPENDING (active);
  b500fc:	0005313a 	rdctl	r2,ipending
  b50100:	e0bffc15 	stw	r2,-16(fp)

  return active;
  b50104:	e0bffc17 	ldw	r2,-16(fp)
   * Consider the case where the high priority interupt is asserted during
   * the interrupt entry sequence for a lower priority interrupt to see why
   * this is the case.
   */

  active = alt_irq_pending ();
  b50108:	e0bfff15 	stw	r2,-4(fp)

  do
  {
    i = 0;
  b5010c:	e03ffd15 	stw	zero,-12(fp)
    mask = 1;
  b50110:	00800044 	movi	r2,1
  b50114:	e0bffe15 	stw	r2,-8(fp)
     * called to clear the interrupt condition.
     */

    do
    {
      if (active & mask)
  b50118:	e0ffff17 	ldw	r3,-4(fp)
  b5011c:	e0bffe17 	ldw	r2,-8(fp)
  b50120:	1884703a 	and	r2,r3,r2
  b50124:	1005003a 	cmpeq	r2,r2,zero
  b50128:	1000161e 	bne	r2,zero,b50184 <alt_irq_handler+0x98>
      { 
#ifdef ALT_ENHANCED_INTERRUPT_API_PRESENT
        alt_irq[i].handler(alt_irq[i].context); 
  b5012c:	e0bffd17 	ldw	r2,-12(fp)
  b50130:	00c02db4 	movhi	r3,182
  b50134:	18d31504 	addi	r3,r3,19540
  b50138:	100490fa 	slli	r2,r2,3
  b5013c:	10c5883a 	add	r2,r2,r3
  b50140:	11400017 	ldw	r5,0(r2)
  b50144:	e0bffd17 	ldw	r2,-12(fp)
  b50148:	00c02db4 	movhi	r3,182
  b5014c:	18d31504 	addi	r3,r3,19540
  b50150:	100490fa 	slli	r2,r2,3
  b50154:	10c5883a 	add	r2,r2,r3
  b50158:	10800104 	addi	r2,r2,4
  b5015c:	11000017 	ldw	r4,0(r2)
  b50160:	283ee83a 	callr	r5
#ifndef NIOS2_EIC_PRESENT
static ALT_INLINE alt_u32 ALT_ALWAYS_INLINE alt_irq_pending (void)
{
  alt_u32 active;

  NIOS2_READ_IPENDING (active);
  b50164:	0005313a 	rdctl	r2,ipending
  b50168:	e0bffb15 	stw	r2,-20(fp)

  return active;
  b5016c:	e0bffb17 	ldw	r2,-20(fp)
      mask <<= 1;
      i++;

    } while (1);

    active = alt_irq_pending ();
  b50170:	e0bfff15 	stw	r2,-4(fp)
    
  } while (active);
  b50174:	e0bfff17 	ldw	r2,-4(fp)
  b50178:	1004c03a 	cmpne	r2,r2,zero
  b5017c:	103fe31e 	bne	r2,zero,b5010c <alt_irq_handler+0x20>
  b50180:	00000706 	br	b501a0 <alt_irq_handler+0xb4>
#else
        alt_irq[i].handler(alt_irq[i].context, i); 
#endif
        break;
      }
      mask <<= 1;
  b50184:	e0bffe17 	ldw	r2,-8(fp)
  b50188:	1085883a 	add	r2,r2,r2
  b5018c:	e0bffe15 	stw	r2,-8(fp)
      i++;
  b50190:	e0bffd17 	ldw	r2,-12(fp)
  b50194:	10800044 	addi	r2,r2,1
  b50198:	e0bffd15 	stw	r2,-12(fp)

    } while (1);
  b5019c:	003fde06 	br	b50118 <alt_irq_handler+0x2c>
  /*
   * Notify the operating system that interrupt processing is complete.
   */ 

  ALT_OS_INT_EXIT();
}
  b501a0:	e037883a 	mov	sp,fp
  b501a4:	dfc00117 	ldw	ra,4(sp)
  b501a8:	df000017 	ldw	fp,0(sp)
  b501ac:	dec00204 	addi	sp,sp,8
  b501b0:	f800283a 	ret

Disassembly of section .text:

00b501b4 <_start>:

    /* Assume the data cache size is always a power of two. */
#if NIOS2_DCACHE_SIZE > 0x8000
    movhi r2, %hi(NIOS2_DCACHE_SIZE)
#else
    movui r2, NIOS2_DCACHE_SIZE
  b501b4:	00810014 	movui	r2,1024
#endif

0:
    initd 0(r2)
  b501b8:	10000033 	initd	0(r2)
    addi r2, r2, -NIOS2_DCACHE_LINE_SIZE
  b501bc:	10bff804 	addi	r2,r2,-32
    bgt r2, zero, 0b
  b501c0:	00bffd16 	blt	zero,r2,b501b8 <_start+0x4>
#if (NIOS2_NUM_OF_SHADOW_REG_SETS == 0)    
    /*
     * Now that the caches are initialized, set up the stack pointer.
     * The value provided by the linker is assumed to be correctly aligned.
     */
    movhi sp, %hi(__alt_stack_pointer)
  b501c4:	06c03434 	movhi	sp,208
    ori sp, sp, %lo(__alt_stack_pointer)
  b501c8:	dec00014 	ori	sp,sp,0

    /* Set up the global pointer. */
    movhi gp, %hi(_gp)
  b501cc:	06802db4 	movhi	gp,182
    ori gp, gp, %lo(_gp)
  b501d0:	d6abeb14 	ori	gp,gp,44972
 */
#ifndef ALT_SIM_OPTIMIZE
    /* Log that the BSS is about to be cleared. */
    ALT_LOG_PUTS(alt_log_msg_bss)

    movhi r2, %hi(__bss_start)
  b501d4:	00802db4 	movhi	r2,182
    ori r2, r2, %lo(__bss_start)
  b501d8:	1092fb14 	ori	r2,r2,19436

    movhi r3, %hi(__bss_end)
  b501dc:	00c02db4 	movhi	r3,182
    ori r3, r3, %lo(__bss_end)
  b501e0:	18d3b914 	ori	r3,r3,20196

    beq r2, r3, 1f
  b501e4:	10c00326 	beq	r2,r3,b501f4 <_start+0x40>

0:
    stw zero, (r2)
  b501e8:	10000015 	stw	zero,0(r2)
    addi r2, r2, 4
  b501ec:	10800104 	addi	r2,r2,4
    bltu r2, r3, 0b
  b501f0:	10fffd36 	bltu	r2,r3,b501e8 <_start+0x34>
     * section aren't defined until alt_load() has been called).
     */
    mov   et, zero
#endif

    call alt_load
  b501f4:	0b5c9a00 	call	b5c9a0 <alt_load>

    /* Log that alt_main is about to be called. */
    ALT_LOG_PUTS(alt_log_msg_alt_main)

    /* Call the C entry point. It should never return. */
    call alt_main
  b501f8:	0b5cbdc0 	call	b5cbdc <alt_main>

00b501fc <alt_after_alt_main>:

    /* Wait in infinite loop in case alt_main does return. */
alt_after_alt_main:
    br alt_after_alt_main
  b501fc:	003fff06 	br	b501fc <alt_after_alt_main>

00b50200 <genColor>:

}

int genColor(int iter) {
	int color = 0;
	if (iter == maxIter) {
  b50200:	00801904 	movi	r2,100
			green = 63;
		if (blue > 31)
			blue = 31;

		//making the final color
		color = ((red << 11) & 0xF800) | ((green << 5) & 0x07E0) | (blue & 0x00FF);
  b50204:	200690fa 	slli	r3,r4,3
  b50208:	200b883a 	mov	r5,r4
  b5020c:	01c007c4 	movi	r7,31
  b50210:	02000fc4 	movi	r8,63

}

int genColor(int iter) {
	int color = 0;
	if (iter == maxIter) {
  b50214:	000d883a 	mov	r6,zero
  b50218:	20800c26 	beq	r4,r2,b5024c <genColor+0x4c>
		color = black;
	}
	else {
		int red = iter;
		int green = iter * 8;
		int blue = iter * 2;
  b5021c:	2105883a 	add	r2,r4,r4
			green = 63;
		if (blue > 31)
			blue = 31;

		//making the final color
		color = ((red << 11) & 0xF800) | ((green << 5) & 0x07E0) | (blue & 0x00FF);
  b50220:	1009883a 	mov	r4,r2
  b50224:	40c01216 	blt	r8,r3,b50270 <genColor+0x70>
  b50228:	1804917a 	slli	r2,r3,5
  b5022c:	1181f80c 	andi	r6,r2,2016
  b50230:	39400a16 	blt	r7,r5,b5025c <genColor+0x5c>
  b50234:	280492fa 	slli	r2,r5,11
  b50238:	10fe000c 	andi	r3,r2,63488
  b5023c:	39000516 	blt	r7,r4,b50254 <genColor+0x54>
  b50240:	20803fcc 	andi	r2,r4,255
  b50244:	1884b03a 	or	r2,r3,r2
  b50248:	308cb03a 	or	r6,r6,r2
	}
	return color;
}
  b5024c:	3005883a 	mov	r2,r6
  b50250:	f800283a 	ret
			green = 63;
		if (blue > 31)
			blue = 31;

		//making the final color
		color = ((red << 11) & 0xF800) | ((green << 5) & 0x07E0) | (blue & 0x00FF);
  b50254:	3809883a 	mov	r4,r7
  b50258:	003ff906 	br	b50240 <genColor+0x40>
  b5025c:	380b883a 	mov	r5,r7
  b50260:	280492fa 	slli	r2,r5,11
  b50264:	10fe000c 	andi	r3,r2,63488
  b50268:	393ff50e 	bge	r7,r4,b50240 <genColor+0x40>
  b5026c:	003ff906 	br	b50254 <genColor+0x54>
  b50270:	4007883a 	mov	r3,r8
  b50274:	1804917a 	slli	r2,r3,5
  b50278:	1181f80c 	andi	r6,r2,2016
  b5027c:	397fed0e 	bge	r7,r5,b50234 <genColor+0x34>
  b50280:	003ff606 	br	b5025c <genColor+0x5c>

00b50284 <mandelbrot>:
	}
	return color;
}

int mandelbrot(float x0, float y0, float *xOut, float *yOut) {
  b50284:	defff404 	addi	sp,sp,-48
		 PERF_RESET(PERFORMANCE_COUNTER_0_BASE);
		 PERF_START_MEASURING(PERFORMANCE_COUNTER_0_BASE);
		 PERF_BEGIN(PERFORMANCE_COUNTER_0_BASE, 1);
		 }//*/

		xtemp = x * x - y * y + x0;
  b50288:	0005883a 	mov	r2,zero
		y = 2 * x * y + y0;
  b5028c:	0007883a 	mov	r3,zero
		color = ((red << 11) & 0xF800) | ((green << 5) & 0x07E0) | (blue & 0x00FF);
	}
	return color;
}

int mandelbrot(float x0, float y0, float *xOut, float *yOut) {
  b50290:	dcc00515 	stw	r19,20(sp)
  b50294:	dc400315 	stw	r17,12(sp)
		 PERF_RESET(PERFORMANCE_COUNTER_0_BASE);
		 PERF_START_MEASURING(PERFORMANCE_COUNTER_0_BASE);
		 PERF_BEGIN(PERFORMANCE_COUNTER_0_BASE, 1);
		 }//*/

		xtemp = x * x - y * y + x0;
  b50298:	20a7ff72 	custom	253,r19,r4,r2
		y = 2 * x * y + y0;
  b5029c:	28e3ff72 	custom	253,r17,r5,r3
		color = ((red << 11) & 0xF800) | ((green << 5) & 0x07E0) | (blue & 0x00FF);
	}
	return color;
}

int mandelbrot(float x0, float y0, float *xOut, float *yOut) {
  b502a0:	dd000615 	stw	r20,24(sp)
  b502a4:	dc800415 	stw	r18,16(sp)

	float x = 0.0;
	float y = 0.0;
	float xtemp = 0.0;

	while (((x * x + y * y) <= 4.0) && (iter < maxIter)) {
  b502a8:	9ce9ff32 	custom	252,r20,r19,r19
  b502ac:	8c65ff32 	custom	252,r18,r17,r17
		color = ((red << 11) & 0xF800) | ((green << 5) & 0x07E0) | (blue & 0x00FF);
	}
	return color;
}

int mandelbrot(float x0, float y0, float *xOut, float *yOut) {
  b502b0:	ddc00915 	stw	r23,36(sp)
  b502b4:	dd800815 	stw	r22,32(sp)
  b502b8:	202f883a 	mov	r23,r4
  b502bc:	282d883a 	mov	r22,r5

	float x = 0.0;
	float y = 0.0;
	float xtemp = 0.0;

	while (((x * x + y * y) <= 4.0) && (iter < maxIter)) {
  b502c0:	a489ff72 	custom	253,r4,r20,r18
  b502c4:	01502034 	movhi	r5,16512
		color = ((red << 11) & 0xF800) | ((green << 5) & 0x07E0) | (blue & 0x00FF);
	}
	return color;
}

int mandelbrot(float x0, float y0, float *xOut, float *yOut) {
  b502c8:	dfc00b15 	stw	ra,44(sp)
  b502cc:	df000a15 	stw	fp,40(sp)
  b502d0:	dd400715 	stw	r21,28(sp)
  b502d4:	dc000215 	stw	r16,8(sp)
  b502d8:	d9800015 	stw	r6,0(sp)
  b502dc:	d9c00115 	stw	r7,4(sp)

	float x = 0.0;
	float y = 0.0;
	float xtemp = 0.0;

	while (((x * x + y * y) <= 4.0) && (iter < maxIter)) {
  b502e0:	0b528900 	call	b52890 <__lesf2>
  b502e4:	00802316 	blt	zero,r2,b50374 <mandelbrot+0xf0>
  b502e8:	05400044 	movi	r21,1
  b502ec:	07001904 	movi	fp,100
  b502f0:	00000106 	br	b502f8 <mandelbrot+0x74>
  b502f4:	af000d26 	beq	r21,fp,b5032c <mandelbrot+0xa8>
		 PERF_START_MEASURING(PERFORMANCE_COUNTER_0_BASE);
		 PERF_BEGIN(PERFORMANCE_COUNTER_0_BASE, 1);
		 }//*/

		xtemp = x * x - y * y + x0;
		y = 2 * x * y + y0;
  b502f8:	9cc5ff72 	custom	253,r2,r19,r19
		 PERF_RESET(PERFORMANCE_COUNTER_0_BASE);
		 PERF_START_MEASURING(PERFORMANCE_COUNTER_0_BASE);
		 PERF_BEGIN(PERFORMANCE_COUNTER_0_BASE, 1);
		 }//*/

		xtemp = x * x - y * y + x0;
  b502fc:	a487ffb2 	custom	254,r3,r20,r18
		y = 2 * x * y + y0;
  b50300:	8885ff32 	custom	252,r2,r17,r2
		 PERF_RESET(PERFORMANCE_COUNTER_0_BASE);
		 PERF_START_MEASURING(PERFORMANCE_COUNTER_0_BASE);
		 PERF_BEGIN(PERFORMANCE_COUNTER_0_BASE, 1);
		 }//*/

		xtemp = x * x - y * y + x0;
  b50304:	1de1ff72 	custom	253,r16,r3,r23
		y = 2 * x * y + y0;
  b50308:	15a3ff72 	custom	253,r17,r2,r22

	float x = 0.0;
	float y = 0.0;
	float xtemp = 0.0;

	while (((x * x + y * y) <= 4.0) && (iter < maxIter)) {
  b5030c:	8429ff32 	custom	252,r20,r16,r16
  b50310:	8c65ff32 	custom	252,r18,r17,r17
  b50314:	a489ff72 	custom	253,r4,r20,r18
  b50318:	01502034 	movhi	r5,16512
  b5031c:	8027883a 	mov	r19,r16
		 printf("iter number: %i\n", iter);
		 printf("Cycles on frame: %llu \n\n", (cycles));
		 }//*/

		x = xtemp;
		iter++;
  b50320:	ad400044 	addi	r21,r21,1

	float x = 0.0;
	float y = 0.0;
	float xtemp = 0.0;

	while (((x * x + y * y) <= 4.0) && (iter < maxIter)) {
  b50324:	0b528900 	call	b52890 <__lesf2>
  b50328:	00bff20e 	bge	zero,r2,b502f4 <mandelbrot+0x70>
  b5032c:	8005883a 	mov	r2,r16

		x = xtemp;
		iter++;

	}
	*xOut = x;
  b50330:	d8c00017 	ldw	r3,0(sp)
  b50334:	18800015 	stw	r2,0(r3)
	*yOut = y;
  b50338:	d8800117 	ldw	r2,4(sp)
  b5033c:	14400015 	stw	r17,0(r2)

	return iter;
}
  b50340:	a805883a 	mov	r2,r21
  b50344:	dfc00b17 	ldw	ra,44(sp)
  b50348:	df000a17 	ldw	fp,40(sp)
  b5034c:	ddc00917 	ldw	r23,36(sp)
  b50350:	dd800817 	ldw	r22,32(sp)
  b50354:	dd400717 	ldw	r21,28(sp)
  b50358:	dd000617 	ldw	r20,24(sp)
  b5035c:	dcc00517 	ldw	r19,20(sp)
  b50360:	dc800417 	ldw	r18,16(sp)
  b50364:	dc400317 	ldw	r17,12(sp)
  b50368:	dc000217 	ldw	r16,8(sp)
  b5036c:	dec00c04 	addi	sp,sp,48
  b50370:	f800283a 	ret

	float x = 0.0;
	float y = 0.0;
	float xtemp = 0.0;

	while (((x * x + y * y) <= 4.0) && (iter < maxIter)) {
  b50374:	9805883a 	mov	r2,r19
  b50378:	05400044 	movi	r21,1
  b5037c:	003fec06 	br	b50330 <mandelbrot+0xac>

00b50380 <clearScreen>:
	}
}

void clearScreen(void) {
	//clears the part of the screen controlled by the pixel buffer
	alt_up_pixel_buffer_dma_clear_screen(myPixelBuffer, 0);
  b50380:	d1271217 	ldw	r4,-25528(gp)
  b50384:	000b883a 	mov	r5,zero
  b50388:	0b5e9241 	jmpi	b5e924 <alt_up_pixel_buffer_dma_clear_screen>

00b5038c <mandelbrotNoZoom>:
	*yOut = y;

	return iter;
}

int mandelbrotNoZoom(int cRow, int cCol, int *recalculateTargetFlag) {
  b5038c:	defff504 	addi	sp,sp,-44
  b50390:	dc400215 	stw	r17,8(sp)
  b50394:	2023883a 	mov	r17,r4
	float minX = -2.5;
	float maxX = 1;
	float minY = -1;
	float maxY = 1;

	float x0 = (((float) cCol / (float) colSize) * (maxX - minX)) + minX;
  b50398:	2809883a 	mov	r4,r5
	*yOut = y;

	return iter;
}

int mandelbrotNoZoom(int cRow, int cCol, int *recalculateTargetFlag) {
  b5039c:	dfc00a15 	stw	ra,40(sp)
  b503a0:	d9800015 	stw	r6,0(sp)
  b503a4:	ddc00815 	stw	r23,32(sp)
  b503a8:	dd800715 	stw	r22,28(sp)
  b503ac:	dd000515 	stw	r20,20(sp)
  b503b0:	dcc00415 	stw	r19,16(sp)
  b503b4:	dc800315 	stw	r18,12(sp)
  b503b8:	dc000115 	stw	r16,4(sp)
  b503bc:	df000915 	stw	fp,36(sp)
  b503c0:	dd400615 	stw	r21,24(sp)
	float minX = -2.5;
	float maxX = 1;
	float minY = -1;
	float maxY = 1;

	float x0 = (((float) cCol / (float) colSize) * (maxX - minX)) + minX;
  b503c4:	0b529080 	call	b52908 <__floatsisf>
  b503c8:	00cea034 	movhi	r3,14976
  b503cc:	10c5ff32 	custom	252,r2,r2,r3
  b503d0:	01101834 	movhi	r4,16480
  b503d4:	00d00834 	movhi	r3,16416
  b503d8:	1105ff32 	custom	252,r2,r2,r4
	float y0 = ((((float) 767 - (float) cRow) / (float) rowSize) * (maxY - minY)) + minY;
  b503dc:	8809883a 	mov	r4,r17
	float minX = -2.5;
	float maxX = 1;
	float minY = -1;
	float maxY = 1;

	float x0 = (((float) cCol / (float) colSize) * (maxX - minX)) + minX;
  b503e0:	10efffb2 	custom	254,r23,r2,r3
	float y0 = ((((float) 767 - (float) cRow) / (float) rowSize) * (maxY - minY)) + minY;
  b503e4:	0b529080 	call	b52908 <__floatsisf>
  b503e8:	01111034 	movhi	r4,17472
  b503ec:	21300004 	addi	r4,r4,-16384
  b503f0:	2089ffb2 	custom	254,r4,r4,r2
  b503f4:	01511034 	movhi	r5,17472
  b503f8:	0b525b40 	call	b525b4 <__divsf3>
  b503fc:	1085ff72 	custom	253,r2,r2,r2
  b50400:	00cfe034 	movhi	r3,16256
  b50404:	10edffb2 	custom	254,r22,r2,r3
	float x = 0.0;
	float y = 0.0;
	float xtemp = 0.0;

	while (((x * x + y * y) <= 4.0) && (iter < maxIter)) {
		xtemp = x * x - y * y + x0;
  b50408:	0005883a 	mov	r2,zero
		y = 2 * x * y + y0;
  b5040c:	0007883a 	mov	r3,zero
	float x = 0.0;
	float y = 0.0;
	float xtemp = 0.0;

	while (((x * x + y * y) <= 4.0) && (iter < maxIter)) {
		xtemp = x * x - y * y + x0;
  b50410:	b8a7ff72 	custom	253,r19,r23,r2
		y = 2 * x * y + y0;
  b50414:	b0e5ff72 	custom	253,r18,r22,r3
	float y0 = ((((float) 767 - (float) cRow) / (float) rowSize) * (maxY - minY)) + minY;
	float x = 0.0;
	float y = 0.0;
	float xtemp = 0.0;

	while (((x * x + y * y) <= 4.0) && (iter < maxIter)) {
  b50418:	9ce9ff32 	custom	252,r20,r19,r19
  b5041c:	94a1ff32 	custom	252,r16,r18,r18
  b50420:	a409ff72 	custom	253,r4,r20,r16
  b50424:	01502034 	movhi	r5,16512
  b50428:	0b528900 	call	b52890 <__lesf2>
  b5042c:	00802e16 	blt	zero,r2,b504e8 <mandelbrotNoZoom+0x15c>
  b50430:	05400044 	movi	r21,1
  b50434:	07001904 	movi	fp,100
  b50438:	00000106 	br	b50440 <mandelbrotNoZoom+0xb4>
  b5043c:	af000d26 	beq	r21,fp,b50474 <mandelbrotNoZoom+0xe8>
		xtemp = x * x - y * y + x0;
		y = 2 * x * y + y0;
  b50440:	9cc5ff72 	custom	253,r2,r19,r19
	float x = 0.0;
	float y = 0.0;
	float xtemp = 0.0;

	while (((x * x + y * y) <= 4.0) && (iter < maxIter)) {
		xtemp = x * x - y * y + x0;
  b50444:	a407ffb2 	custom	254,r3,r20,r16
		y = 2 * x * y + y0;
  b50448:	9085ff32 	custom	252,r2,r18,r2
	float x = 0.0;
	float y = 0.0;
	float xtemp = 0.0;

	while (((x * x + y * y) <= 4.0) && (iter < maxIter)) {
		xtemp = x * x - y * y + x0;
  b5044c:	b8e3ff72 	custom	253,r17,r23,r3
		y = 2 * x * y + y0;
  b50450:	b0a5ff72 	custom	253,r18,r22,r2
	float y0 = ((((float) 767 - (float) cRow) / (float) rowSize) * (maxY - minY)) + minY;
	float x = 0.0;
	float y = 0.0;
	float xtemp = 0.0;

	while (((x * x + y * y) <= 4.0) && (iter < maxIter)) {
  b50454:	8c69ff32 	custom	252,r20,r17,r17
  b50458:	94a1ff32 	custom	252,r16,r18,r18
  b5045c:	a409ff72 	custom	253,r4,r20,r16
  b50460:	01502034 	movhi	r5,16512
  b50464:	8827883a 	mov	r19,r17
		xtemp = x * x - y * y + x0;
		y = 2 * x * y + y0;
		x = xtemp;
		iter++;
  b50468:	ad400044 	addi	r21,r21,1
	float y0 = ((((float) 767 - (float) cRow) / (float) rowSize) * (maxY - minY)) + minY;
	float x = 0.0;
	float y = 0.0;
	float xtemp = 0.0;

	while (((x * x + y * y) <= 4.0) && (iter < maxIter)) {
  b5046c:	0b528900 	call	b52890 <__lesf2>
  b50470:	00bff20e 	bge	zero,r2,b5043c <mandelbrotNoZoom+0xb0>
  b50474:	8809883a 	mov	r4,r17
		xtemp = x * x - y * y + x0;
		y = 2 * x * y + y0;
		x = xtemp;
		iter++;
	}
	int cpu = __builtin_rdctl(5);
  b50478:	0007317a 	rdctl	r3,cpuid
	if (cpu == 3) {
  b5047c:	008000c4 	movi	r2,3
  b50480:	18800d26 	beq	r3,r2,b504b8 <mandelbrotNoZoom+0x12c>
				*recalculateTargetFlag = *recalculateTargetFlag - 1;
			}
		}
	}
	return iter;
}//*/
  b50484:	a805883a 	mov	r2,r21
  b50488:	dfc00a17 	ldw	ra,40(sp)
  b5048c:	df000917 	ldw	fp,36(sp)
  b50490:	ddc00817 	ldw	r23,32(sp)
  b50494:	dd800717 	ldw	r22,28(sp)
  b50498:	dd400617 	ldw	r21,24(sp)
  b5049c:	dd000517 	ldw	r20,20(sp)
  b504a0:	dcc00417 	ldw	r19,16(sp)
  b504a4:	dc800317 	ldw	r18,12(sp)
  b504a8:	dc400217 	ldw	r17,8(sp)
  b504ac:	dc000117 	ldw	r16,4(sp)
  b504b0:	dec00b04 	addi	sp,sp,44
  b504b4:	f800283a 	ret
		x = xtemp;
		iter++;
	}
	int cpu = __builtin_rdctl(5);
	if (cpu == 3) {
		if (*recalculateTargetFlag) {
  b504b8:	d8800017 	ldw	r2,0(sp)
  b504bc:	10c00017 	ldw	r3,0(r2)
  b504c0:	183ff026 	beq	r3,zero,b50484 <mandelbrotNoZoom+0xf8>
			if (iter >= (maxIter - 2)) {
  b504c4:	00801844 	movi	r2,97
  b504c8:	157fee0e 	bge	r2,r21,b50484 <mandelbrotNoZoom+0xf8>
				targetArrayXYMaster[0] = x;
				targetArrayXYMaster[1] = y;
  b504cc:	d0a71004 	addi	r2,gp,-25536
  b504d0:	14800115 	stw	r18,4(r2)
				*recalculateTargetFlag = *recalculateTargetFlag - 1;
  b504d4:	d8800017 	ldw	r2,0(sp)
  b504d8:	18ffffc4 	addi	r3,r3,-1
	}
	int cpu = __builtin_rdctl(5);
	if (cpu == 3) {
		if (*recalculateTargetFlag) {
			if (iter >= (maxIter - 2)) {
				targetArrayXYMaster[0] = x;
  b504dc:	d1271015 	stw	r4,-25536(gp)
				targetArrayXYMaster[1] = y;
				*recalculateTargetFlag = *recalculateTargetFlag - 1;
  b504e0:	10c00015 	stw	r3,0(r2)
  b504e4:	003fe706 	br	b50484 <mandelbrotNoZoom+0xf8>
	float y0 = ((((float) 767 - (float) cRow) / (float) rowSize) * (maxY - minY)) + minY;
	float x = 0.0;
	float y = 0.0;
	float xtemp = 0.0;

	while (((x * x + y * y) <= 4.0) && (iter < maxIter)) {
  b504e8:	9809883a 	mov	r4,r19
  b504ec:	05400044 	movi	r21,1
  b504f0:	003fe106 	br	b50478 <mandelbrotNoZoom+0xec>

00b504f4 <barrier>:
		}
	}

}

void barrier(alt_u8 barrierNum) {
  b504f4:	deffe104 	addi	sp,sp,-124
  b504f8:	dfc01e15 	stw	ra,120(sp)
  b504fc:	dd401d15 	stw	r21,116(sp)
  b50500:	dd001c15 	stw	r20,112(sp)
  b50504:	dcc01b15 	stw	r19,108(sp)
  b50508:	dc801a15 	stw	r18,104(sp)
  b5050c:	dc401915 	stw	r17,100(sp)
  b50510:	dc001815 	stw	r16,96(sp)
	alt_u32 msg;
	alt_mailbox_dev *mb[NUM_CPUS];
	char mb_name[80];
	int cpu = __builtin_rdctl(5);
  b50514:	0027317a 	rdctl	r19,cpuid
	int i = 0;

	for (i = 0; i < NUM_CPUS; i++) {
		sprintf(mb_name, "/dev/mailbox_%d", i);
  b50518:	dc400404 	addi	r17,sp,16
  b5051c:	01402db4 	movhi	r5,182
  b50520:	2943dd04 	addi	r5,r5,3956
  b50524:	000d883a 	mov	r6,zero
  b50528:	8809883a 	mov	r4,r17
  b5052c:	0b53ce80 	call	b53ce8 <sprintf>
		mb[i] = altera_avalon_mailbox_open(mb_name);
  b50530:	8809883a 	mov	r4,r17
  b50534:	0b5e0580 	call	b5e058 <altera_avalon_mailbox_open>
	char mb_name[80];
	int cpu = __builtin_rdctl(5);
	int i = 0;

	for (i = 0; i < NUM_CPUS; i++) {
		sprintf(mb_name, "/dev/mailbox_%d", i);
  b50538:	05400044 	movi	r21,1
  b5053c:	01402db4 	movhi	r5,182
  b50540:	2943dd04 	addi	r5,r5,3956
  b50544:	a80d883a 	mov	r6,r21
  b50548:	8809883a 	mov	r4,r17
		mb[i] = altera_avalon_mailbox_open(mb_name);
  b5054c:	d8800015 	stw	r2,0(sp)
	char mb_name[80];
	int cpu = __builtin_rdctl(5);
	int i = 0;

	for (i = 0; i < NUM_CPUS; i++) {
		sprintf(mb_name, "/dev/mailbox_%d", i);
  b50550:	0b53ce80 	call	b53ce8 <sprintf>
		mb[i] = altera_avalon_mailbox_open(mb_name);
  b50554:	8809883a 	mov	r4,r17
  b50558:	0b5e0580 	call	b5e058 <altera_avalon_mailbox_open>
	char mb_name[80];
	int cpu = __builtin_rdctl(5);
	int i = 0;

	for (i = 0; i < NUM_CPUS; i++) {
		sprintf(mb_name, "/dev/mailbox_%d", i);
  b5055c:	05000084 	movi	r20,2
  b50560:	01402db4 	movhi	r5,182
  b50564:	2943dd04 	addi	r5,r5,3956
  b50568:	a00d883a 	mov	r6,r20
  b5056c:	8809883a 	mov	r4,r17
		mb[i] = altera_avalon_mailbox_open(mb_name);
  b50570:	d8800115 	stw	r2,4(sp)
	char mb_name[80];
	int cpu = __builtin_rdctl(5);
	int i = 0;

	for (i = 0; i < NUM_CPUS; i++) {
		sprintf(mb_name, "/dev/mailbox_%d", i);
  b50574:	0b53ce80 	call	b53ce8 <sprintf>
		mb[i] = altera_avalon_mailbox_open(mb_name);
  b50578:	8809883a 	mov	r4,r17
  b5057c:	0b5e0580 	call	b5e058 <altera_avalon_mailbox_open>
	char mb_name[80];
	int cpu = __builtin_rdctl(5);
	int i = 0;

	for (i = 0; i < NUM_CPUS; i++) {
		sprintf(mb_name, "/dev/mailbox_%d", i);
  b50580:	048000c4 	movi	r18,3
  b50584:	01402db4 	movhi	r5,182
  b50588:	2943dd04 	addi	r5,r5,3956
  b5058c:	900d883a 	mov	r6,r18
  b50590:	8809883a 	mov	r4,r17
		mb[i] = altera_avalon_mailbox_open(mb_name);
  b50594:	d8800215 	stw	r2,8(sp)
	char mb_name[80];
	int cpu = __builtin_rdctl(5);
	int i = 0;

	for (i = 0; i < NUM_CPUS; i++) {
		sprintf(mb_name, "/dev/mailbox_%d", i);
  b50598:	0b53ce80 	call	b53ce8 <sprintf>
		mb[i] = altera_avalon_mailbox_open(mb_name);
  b5059c:	8809883a 	mov	r4,r17
  b505a0:	0b5e0580 	call	b5e058 <altera_avalon_mailbox_open>
  b505a4:	1021883a 	mov	r16,r2
  b505a8:	d8800315 	stw	r2,12(sp)
  b505ac:	9c803026 	beq	r19,r18,b50670 <barrier+0x17c>
	}
	//sending the messages to the other CPU's
	for (i = 0; i < NUM_CPUS; i++) {
		if (i != cpu) {
  b505b0:	98000426 	beq	r19,zero,b505c4 <barrier+0xd0>

			if (cpu == 3) {
				altera_avalon_mailbox_post(mb[i], (int) targetArrayXYMaster);
			}
			else {
				altera_avalon_mailbox_post(mb[i], 0);
  b505b4:	d9000017 	ldw	r4,0(sp)
  b505b8:	000b883a 	mov	r5,zero
  b505bc:	0b5e0d00 	call	b5e0d0 <altera_avalon_mailbox_post>
		sprintf(mb_name, "/dev/mailbox_%d", i);
		mb[i] = altera_avalon_mailbox_open(mb_name);
	}
	//sending the messages to the other CPU's
	for (i = 0; i < NUM_CPUS; i++) {
		if (i != cpu) {
  b505c0:	9d400426 	beq	r19,r21,b505d4 <barrier+0xe0>

			if (cpu == 3) {
				altera_avalon_mailbox_post(mb[i], (int) targetArrayXYMaster);
			}
			else {
				altera_avalon_mailbox_post(mb[i], 0);
  b505c4:	d9000117 	ldw	r4,4(sp)
  b505c8:	000b883a 	mov	r5,zero
  b505cc:	0b5e0d00 	call	b5e0d0 <altera_avalon_mailbox_post>
		sprintf(mb_name, "/dev/mailbox_%d", i);
		mb[i] = altera_avalon_mailbox_open(mb_name);
	}
	//sending the messages to the other CPU's
	for (i = 0; i < NUM_CPUS; i++) {
		if (i != cpu) {
  b505d0:	9d000326 	beq	r19,r20,b505e0 <barrier+0xec>

			if (cpu == 3) {
				altera_avalon_mailbox_post(mb[i], (int) targetArrayXYMaster);
			}
			else {
				altera_avalon_mailbox_post(mb[i], 0);
  b505d4:	d9000217 	ldw	r4,8(sp)
  b505d8:	000b883a 	mov	r5,zero
  b505dc:	0b5e0d00 	call	b5e0d0 <altera_avalon_mailbox_post>
  b505e0:	8009883a 	mov	r4,r16
  b505e4:	000b883a 	mov	r5,zero
  b505e8:	0b5e0d00 	call	b5e0d0 <altera_avalon_mailbox_post>
	}

	//gets the messages from the other CPU's
	for (i = 0; i < NUM_CPUS - 1; i++) {

		msg = altera_avalon_mailbox_pend(mb[cpu]);
  b505ec:	9cc5883a 	add	r2,r19,r19
  b505f0:	1085883a 	add	r2,r2,r2
  b505f4:	16c5883a 	add	r2,r2,sp
  b505f8:	14400017 	ldw	r17,0(r2)
  b505fc:	8809883a 	mov	r4,r17
  b50600:	0b5e1dc0 	call	b5e1dc <altera_avalon_mailbox_pend>

		if (msg != 0) {
  b50604:	10000126 	beq	r2,zero,b5060c <barrier+0x118>
			targetArrayXY = (float *) msg;
  b50608:	d0a00015 	stw	r2,-32768(gp)
	}

	//gets the messages from the other CPU's
	for (i = 0; i < NUM_CPUS - 1; i++) {

		msg = altera_avalon_mailbox_pend(mb[cpu]);
  b5060c:	8809883a 	mov	r4,r17
  b50610:	0b5e1dc0 	call	b5e1dc <altera_avalon_mailbox_pend>

		if (msg != 0) {
  b50614:	10000126 	beq	r2,zero,b5061c <barrier+0x128>
			targetArrayXY = (float *) msg;
  b50618:	d0a00015 	stw	r2,-32768(gp)
	}

	//gets the messages from the other CPU's
	for (i = 0; i < NUM_CPUS - 1; i++) {

		msg = altera_avalon_mailbox_pend(mb[cpu]);
  b5061c:	8809883a 	mov	r4,r17
  b50620:	0b5e1dc0 	call	b5e1dc <altera_avalon_mailbox_pend>

		if (msg != 0) {
  b50624:	10000126 	beq	r2,zero,b5062c <barrier+0x138>
			targetArrayXY = (float *) msg;
  b50628:	d0a00015 	stw	r2,-32768(gp)
		}
	}
	for (i = 0; i < NUM_CPUS; i++) {
		altera_avalon_mailbox_close(mb[i]);
  b5062c:	d9000017 	ldw	r4,0(sp)
  b50630:	0b5e0b00 	call	b5e0b0 <altera_avalon_mailbox_close>
  b50634:	d9000117 	ldw	r4,4(sp)
  b50638:	0b5e0b00 	call	b5e0b0 <altera_avalon_mailbox_close>
  b5063c:	d9000217 	ldw	r4,8(sp)
  b50640:	0b5e0b00 	call	b5e0b0 <altera_avalon_mailbox_close>
  b50644:	8009883a 	mov	r4,r16
  b50648:	0b5e0b00 	call	b5e0b0 <altera_avalon_mailbox_close>
	}
}
  b5064c:	dfc01e17 	ldw	ra,120(sp)
  b50650:	dd401d17 	ldw	r21,116(sp)
  b50654:	dd001c17 	ldw	r20,112(sp)
  b50658:	dcc01b17 	ldw	r19,108(sp)
  b5065c:	dc801a17 	ldw	r18,104(sp)
  b50660:	dc401917 	ldw	r17,100(sp)
  b50664:	dc001817 	ldw	r16,96(sp)
  b50668:	dec01f04 	addi	sp,sp,124
  b5066c:	f800283a 	ret
	int cpu = __builtin_rdctl(5);
	int i = 0;

	for (i = 0; i < NUM_CPUS; i++) {
		sprintf(mb_name, "/dev/mailbox_%d", i);
		mb[i] = altera_avalon_mailbox_open(mb_name);
  b50670:	0025883a 	mov	r18,zero
  b50674:	d823883a 	mov	r17,sp
	//sending the messages to the other CPU's
	for (i = 0; i < NUM_CPUS; i++) {
		if (i != cpu) {

			if (cpu == 3) {
				altera_avalon_mailbox_post(mb[i], (int) targetArrayXYMaster);
  b50678:	89000017 	ldw	r4,0(r17)
  b5067c:	d1671004 	addi	r5,gp,-25536
	for (i = 0; i < NUM_CPUS; i++) {
		sprintf(mb_name, "/dev/mailbox_%d", i);
		mb[i] = altera_avalon_mailbox_open(mb_name);
	}
	//sending the messages to the other CPU's
	for (i = 0; i < NUM_CPUS; i++) {
  b50680:	94800044 	addi	r18,r18,1
		if (i != cpu) {

			if (cpu == 3) {
				altera_avalon_mailbox_post(mb[i], (int) targetArrayXYMaster);
  b50684:	0b5e0d00 	call	b5e0d0 <altera_avalon_mailbox_post>
	for (i = 0; i < NUM_CPUS; i++) {
		sprintf(mb_name, "/dev/mailbox_%d", i);
		mb[i] = altera_avalon_mailbox_open(mb_name);
	}
	//sending the messages to the other CPU's
	for (i = 0; i < NUM_CPUS; i++) {
  b50688:	00800104 	movi	r2,4
  b5068c:	8c400104 	addi	r17,r17,4
  b50690:	90bfd626 	beq	r18,r2,b505ec <barrier+0xf8>
		if (i != cpu) {
  b50694:	008000c4 	movi	r2,3
  b50698:	90bff71e 	bne	r18,r2,b50678 <barrier+0x184>
  b5069c:	003fd306 	br	b505ec <barrier+0xf8>

00b506a0 <setup>:
float targetArrayXYMaster[2] = { 0.0, 0.0 };
volatile float *targetArrayXY = targetArrayXYMaster;

extern alt_up_pixel_buffer_dma_dev *myPixelBuffer;

void setup(void) {
  b506a0:	deffff04 	addi	sp,sp,-4
	myPixelBuffer = alt_up_pixel_buffer_dma_open_dev("/dev/video_pixel_buffer_dma_0");
  b506a4:	01002db4 	movhi	r4,182
  b506a8:	2103e104 	addi	r4,r4,3972
float targetArrayXYMaster[2] = { 0.0, 0.0 };
volatile float *targetArrayXY = targetArrayXYMaster;

extern alt_up_pixel_buffer_dma_dev *myPixelBuffer;

void setup(void) {
  b506ac:	dfc00015 	stw	ra,0(sp)
	myPixelBuffer = alt_up_pixel_buffer_dma_open_dev("/dev/video_pixel_buffer_dma_0");
  b506b0:	0b5e6600 	call	b5e660 <alt_up_pixel_buffer_dma_open_dev>
  b506b4:	d0a71215 	stw	r2,-25528(gp)
	PERF_RESET(PERFORMANCE_COUNTER_0_BASE);
  b506b8:	00c00044 	movi	r3,1
  b506bc:	0005883a 	mov	r2,zero
  b506c0:	10c00035 	stwio	r3,0(r2)
	while (alt_up_pixel_buffer_dma_check_swap_buffers_status(myPixelBuffer)) {
		alt_up_pixel_buffer_dma_change_back_buffer_address(myPixelBuffer, (unsigned int) pixel_buffer_memory);
	}
#endif

}
  b506c4:	dfc00017 	ldw	ra,0(sp)
  b506c8:	dec00104 	addi	sp,sp,4
  b506cc:	f800283a 	ret

00b506d0 <drawFrame>:
			alt_up_pixel_buffer_dma_draw(myPixelBuffer, color, i, j);
		}
	}
}//*/

void drawFrame(int zoom) {
  b506d0:	deffec04 	addi	sp,sp,-80
  b506d4:	dfc01315 	stw	ra,76(sp)
  b506d8:	df001215 	stw	fp,72(sp)
  b506dc:	ddc01115 	stw	r23,68(sp)
  b506e0:	dd801015 	stw	r22,64(sp)
  b506e4:	dd400f15 	stw	r21,60(sp)
  b506e8:	dd000e15 	stw	r20,56(sp)
  b506ec:	dcc00d15 	stw	r19,52(sp)
  b506f0:	dc800c15 	stw	r18,48(sp)
  b506f4:	dc400b15 	stw	r17,44(sp)
  b506f8:	dc000a15 	stw	r16,40(sp)
	int i;
	int j;
	int result = 0;
	int color = 0;
	int cpu = __builtin_rdctl(5);
  b506fc:	0005317a 	rdctl	r2,cpuid
  b50700:	d8800715 	stw	r2,28(sp)
	int recalculateTargetFlag = 20;
	float x = 0.0;
	float y = 0.0;

	float minX = targetArrayXY[0] - (1 / powf(1.5, zoom));
  b50704:	d0a00017 	ldw	r2,-32768(gp)
  b50708:	040ff034 	movhi	r16,16320
  b5070c:	15400017 	ldw	r21,0(r2)
  b50710:	0b529080 	call	b52908 <__floatsisf>
  b50714:	100b883a 	mov	r5,r2
  b50718:	8009883a 	mov	r4,r16
  b5071c:	1023883a 	mov	r17,r2
  b50720:	0b50c7c0 	call	b50c7c <powf>
  b50724:	102d883a 	mov	r22,r2
	float maxX = targetArrayXY[0] + (1 / powf(1.5, zoom));
  b50728:	d0a00017 	ldw	r2,-32768(gp)
  b5072c:	8009883a 	mov	r4,r16
  b50730:	880b883a 	mov	r5,r17
  b50734:	15000017 	ldw	r20,0(r2)
  b50738:	0b50c7c0 	call	b50c7c <powf>
  b5073c:	102f883a 	mov	r23,r2
	float minY = targetArrayXY[1] - (0.75 / powf(1.5, zoom));
  b50740:	d0a00017 	ldw	r2,-32768(gp)
  b50744:	8009883a 	mov	r4,r16
  b50748:	880b883a 	mov	r5,r17
  b5074c:	14c00117 	ldw	r19,4(r2)
  b50750:	0b50c7c0 	call	b50c7c <powf>
  b50754:	1025883a 	mov	r18,r2
	float maxY = targetArrayXY[1] + (0.75 / powf(1.5, zoom));
  b50758:	d0a00017 	ldw	r2,-32768(gp)
  b5075c:	8009883a 	mov	r4,r16
  b50760:	880b883a 	mov	r5,r17
  b50764:	14000117 	ldw	r16,4(r2)
  b50768:	0b50c7c0 	call	b50c7c <powf>

	for (i = cpu; i < colSize; i = i + NUM_CPUS) {
  b5076c:	d8c00717 	ldw	r3,28(sp)
	float y = 0.0;

	float minX = targetArrayXY[0] - (1 / powf(1.5, zoom));
	float maxX = targetArrayXY[0] + (1 / powf(1.5, zoom));
	float minY = targetArrayXY[1] - (0.75 / powf(1.5, zoom));
	float maxY = targetArrayXY[1] + (0.75 / powf(1.5, zoom));
  b50770:	1023883a 	mov	r17,r2

	for (i = cpu; i < colSize; i = i + NUM_CPUS) {
  b50774:	0080ffc4 	movi	r2,1023
  b50778:	10c07a16 	blt	r2,r3,b50964 <drawFrame+0x294>
	int cpu = __builtin_rdctl(5);
	int recalculateTargetFlag = 20;
	float x = 0.0;
	float y = 0.0;

	float minX = targetArrayXY[0] - (1 / powf(1.5, zoom));
  b5077c:	b00b883a 	mov	r5,r22
  b50780:	012fe034 	movhi	r4,49024
  b50784:	0b525b40 	call	b525b4 <__divsf3>
  b50788:	a8abff72 	custom	253,r21,r21,r2
	float maxX = targetArrayXY[0] + (1 / powf(1.5, zoom));
	float minY = targetArrayXY[1] - (0.75 / powf(1.5, zoom));
  b5078c:	900b883a 	mov	r5,r18
  b50790:	012fd034 	movhi	r4,48960
	int cpu = __builtin_rdctl(5);
	int recalculateTargetFlag = 20;
	float x = 0.0;
	float y = 0.0;

	float minX = targetArrayXY[0] - (1 / powf(1.5, zoom));
  b50794:	dd400515 	stw	r21,20(sp)
	float maxX = targetArrayXY[0] + (1 / powf(1.5, zoom));
	float minY = targetArrayXY[1] - (0.75 / powf(1.5, zoom));
  b50798:	0b525b40 	call	b525b4 <__divsf3>
  b5079c:	98a7ff72 	custom	253,r19,r19,r2
  b507a0:	880b883a 	mov	r5,r17
  b507a4:	010fd034 	movhi	r4,16192
  b507a8:	dcc00415 	stw	r19,16(sp)
  b507ac:	0b525b40 	call	b525b4 <__divsf3>
  b507b0:	d8c00417 	ldw	r3,16(sp)
  b507b4:	8085ff72 	custom	253,r2,r16,r2
  b507b8:	b80b883a 	mov	r5,r23
  b507bc:	10c5ffb2 	custom	254,r2,r2,r3
  b507c0:	010fe034 	movhi	r4,16256
  b507c4:	d8800315 	stw	r2,12(sp)
  b507c8:	0b525b40 	call	b525b4 <__divsf3>
  b507cc:	d8c00517 	ldw	r3,20(sp)
  b507d0:	a085ff72 	custom	253,r2,r20,r2
  b507d4:	10c5ffb2 	custom	254,r2,r2,r3
  b507d8:	d8800215 	stw	r2,8(sp)
  b507dc:	d8800717 	ldw	r2,28(sp)
  b507e0:	00c00504 	movi	r3,20
  b507e4:	d8c00615 	stw	r3,24(sp)
  b507e8:	d8800915 	stw	r2,36(sp)
	float maxY = targetArrayXY[1] + (0.75 / powf(1.5, zoom));

	for (i = cpu; i < colSize; i = i + NUM_CPUS) {
		float y0 = ((((float) 767 - (float) i) / (float) 768) * (maxY - minY)) + minY;
  b507ec:	d9000917 	ldw	r4,36(sp)
  b507f0:	0b529080 	call	b52908 <__floatsisf>
  b507f4:	01111034 	movhi	r4,17472
  b507f8:	21300004 	addi	r4,r4,-16384
  b507fc:	2089ffb2 	custom	254,r4,r4,r2
  b50800:	01511034 	movhi	r5,17472
  b50804:	0b525b40 	call	b525b4 <__divsf3>
  b50808:	d8c00317 	ldw	r3,12(sp)
  b5080c:	d8000815 	stw	zero,32(sp)
  b50810:	10c5ff32 	custom	252,r2,r2,r3
  b50814:	d8c00417 	ldw	r3,16(sp)
  b50818:	18b9ff72 	custom	253,fp,r3,r2
  b5081c:	0005883a 	mov	r2,zero
  b50820:	e085ff72 	custom	253,r2,fp,r2
  b50824:	d8800115 	stw	r2,4(sp)
  b50828:	1085ff32 	custom	252,r2,r2,r2
  b5082c:	d8800015 	stw	r2,0(sp)
		for (j = 0; j < rowSize; j++) {
			float x0 = (((float) j / (float) 1024) * (maxX - minX)) + minX;
  b50830:	d9000817 	ldw	r4,32(sp)
  b50834:	0b529080 	call	b52908 <__floatsisf>
  b50838:	00cea034 	movhi	r3,14976
  b5083c:	10c5ff32 	custom	252,r2,r2,r3
  b50840:	d8c00217 	ldw	r3,8(sp)

	float x = 0.0;
	float y = 0.0;
	float xtemp = 0.0;

	while (((x * x + y * y) <= 4.0) && (iter < maxIter)) {
  b50844:	01502034 	movhi	r5,16512
	float maxY = targetArrayXY[1] + (0.75 / powf(1.5, zoom));

	for (i = cpu; i < colSize; i = i + NUM_CPUS) {
		float y0 = ((((float) 767 - (float) i) / (float) 768) * (maxY - minY)) + minY;
		for (j = 0; j < rowSize; j++) {
			float x0 = (((float) j / (float) 1024) * (maxX - minX)) + minX;
  b50848:	1885ff32 	custom	252,r2,r3,r2
  b5084c:	d8c00517 	ldw	r3,20(sp)
  b50850:	18adff72 	custom	253,r22,r3,r2
		 PERF_RESET(PERFORMANCE_COUNTER_0_BASE);
		 PERF_START_MEASURING(PERFORMANCE_COUNTER_0_BASE);
		 PERF_BEGIN(PERFORMANCE_COUNTER_0_BASE, 1);
		 }//*/

		xtemp = x * x - y * y + x0;
  b50854:	0005883a 	mov	r2,zero
  b50858:	b0a5ff72 	custom	253,r18,r22,r2

	float x = 0.0;
	float y = 0.0;
	float xtemp = 0.0;

	while (((x * x + y * y) <= 4.0) && (iter < maxIter)) {
  b5085c:	d8800017 	ldw	r2,0(sp)
  b50860:	94a9ff32 	custom	252,r20,r18,r18
  b50864:	1509ff72 	custom	253,r4,r2,r20
  b50868:	0b528900 	call	b52890 <__lesf2>
  b5086c:	00805616 	blt	zero,r2,b509c8 <drawFrame+0x2f8>
  b50870:	d8c00017 	ldw	r3,0(sp)
  b50874:	d8800117 	ldw	r2,4(sp)
  b50878:	05400044 	movi	r21,1
  b5087c:	1821883a 	mov	r16,r3
  b50880:	1027883a 	mov	r19,r2
  b50884:	05c01904 	movi	r23,100
  b50888:	00000106 	br	b50890 <drawFrame+0x1c0>
  b5088c:	adc00d26 	beq	r21,r23,b508c4 <drawFrame+0x1f4>
		 PERF_START_MEASURING(PERFORMANCE_COUNTER_0_BASE);
		 PERF_BEGIN(PERFORMANCE_COUNTER_0_BASE, 1);
		 }//*/

		xtemp = x * x - y * y + x0;
		y = 2 * x * y + y0;
  b50890:	9485ff72 	custom	253,r2,r18,r18
		 PERF_RESET(PERFORMANCE_COUNTER_0_BASE);
		 PERF_START_MEASURING(PERFORMANCE_COUNTER_0_BASE);
		 PERF_BEGIN(PERFORMANCE_COUNTER_0_BASE, 1);
		 }//*/

		xtemp = x * x - y * y + x0;
  b50894:	a407ffb2 	custom	254,r3,r20,r16
		y = 2 * x * y + y0;
  b50898:	9885ff32 	custom	252,r2,r19,r2
		 PERF_RESET(PERFORMANCE_COUNTER_0_BASE);
		 PERF_START_MEASURING(PERFORMANCE_COUNTER_0_BASE);
		 PERF_BEGIN(PERFORMANCE_COUNTER_0_BASE, 1);
		 }//*/

		xtemp = x * x - y * y + x0;
  b5089c:	b0e3ff72 	custom	253,r17,r22,r3
		y = 2 * x * y + y0;
  b508a0:	e0a7ff72 	custom	253,r19,fp,r2

	float x = 0.0;
	float y = 0.0;
	float xtemp = 0.0;

	while (((x * x + y * y) <= 4.0) && (iter < maxIter)) {
  b508a4:	8c69ff32 	custom	252,r20,r17,r17
  b508a8:	9ce1ff32 	custom	252,r16,r19,r19
  b508ac:	a409ff72 	custom	253,r4,r20,r16
  b508b0:	01502034 	movhi	r5,16512
  b508b4:	8825883a 	mov	r18,r17
		 printf("iter number: %i\n", iter);
		 printf("Cycles on frame: %llu \n\n", (cycles));
		 }//*/

		x = xtemp;
		iter++;
  b508b8:	ad400044 	addi	r21,r21,1

	float x = 0.0;
	float y = 0.0;
	float xtemp = 0.0;

	while (((x * x + y * y) <= 4.0) && (iter < maxIter)) {
  b508bc:	0b528900 	call	b52890 <__lesf2>
  b508c0:	00bff20e 	bge	zero,r2,b5088c <drawFrame+0x1bc>
			float x0 = (((float) j / (float) 1024) * (maxX - minX)) + minX;

			result = mandelbrot(x0, y0, &x, &y);

			//recalculates the x and y
			if (cpu == 3) {
  b508c4:	d8c00717 	ldw	r3,28(sp)
  b508c8:	008000c4 	movi	r2,3
  b508cc:	18803326 	beq	r3,r2,b5099c <drawFrame+0x2cc>

}

int genColor(int iter) {
	int color = 0;
	if (iter == maxIter) {
  b508d0:	00801904 	movi	r2,100
  b508d4:	a8802f26 	beq	r21,r2,b50994 <drawFrame+0x2c4>
		color = black;
	}
	else {
		int red = iter;
		int green = iter * 8;
		int blue = iter * 2;
  b508d8:	a80490fa 	slli	r2,r21,3
  b508dc:	00c00fc4 	movi	r3,63
  b508e0:	ad4d883a 	add	r6,r21,r21
  b508e4:	1880010e 	bge	r3,r2,b508ec <drawFrame+0x21c>
  b508e8:	1805883a 	mov	r2,r3
  b508ec:	1004917a 	slli	r2,r2,5
  b508f0:	010007c4 	movi	r4,31
  b508f4:	a807883a 	mov	r3,r21
  b508f8:	1141f80c 	andi	r5,r2,2016
  b508fc:	2540010e 	bge	r4,r21,b50904 <drawFrame+0x234>
  b50900:	2007883a 	mov	r3,r4
  b50904:	180492fa 	slli	r2,r3,11
  b50908:	3007883a 	mov	r3,r6
  b5090c:	11be000c 	andi	r6,r2,63488
  b50910:	20c0010e 	bge	r4,r3,b50918 <drawFrame+0x248>
  b50914:	2007883a 	mov	r3,r4
  b50918:	18803fcc 	andi	r2,r3,255
  b5091c:	3084b03a 	or	r2,r6,r2
  b50920:	288ab03a 	or	r5,r5,r2
					}
				}
			}

			color = genColor(result);
			alt_up_pixel_buffer_dma_draw(myPixelBuffer, color, i, j);
  b50924:	d1271217 	ldw	r4,-25528(gp)
  b50928:	d9c00817 	ldw	r7,32(sp)
  b5092c:	d9800917 	ldw	r6,36(sp)
  b50930:	0b5e6a00 	call	b5e6a0 <alt_up_pixel_buffer_dma_draw>
	float minY = targetArrayXY[1] - (0.75 / powf(1.5, zoom));
	float maxY = targetArrayXY[1] + (0.75 / powf(1.5, zoom));

	for (i = cpu; i < colSize; i = i + NUM_CPUS) {
		float y0 = ((((float) 767 - (float) i) / (float) 768) * (maxY - minY)) + minY;
		for (j = 0; j < rowSize; j++) {
  b50934:	d8800817 	ldw	r2,32(sp)
  b50938:	10800044 	addi	r2,r2,1
  b5093c:	d8800815 	stw	r2,32(sp)
  b50940:	d8c00817 	ldw	r3,32(sp)
  b50944:	0080c004 	movi	r2,768
  b50948:	18bfb91e 	bne	r3,r2,b50830 <drawFrame+0x160>
	float minX = targetArrayXY[0] - (1 / powf(1.5, zoom));
	float maxX = targetArrayXY[0] + (1 / powf(1.5, zoom));
	float minY = targetArrayXY[1] - (0.75 / powf(1.5, zoom));
	float maxY = targetArrayXY[1] + (0.75 / powf(1.5, zoom));

	for (i = cpu; i < colSize; i = i + NUM_CPUS) {
  b5094c:	d8800917 	ldw	r2,36(sp)
  b50950:	10800104 	addi	r2,r2,4
  b50954:	d8800915 	stw	r2,36(sp)
  b50958:	d8c00917 	ldw	r3,36(sp)
  b5095c:	0080ffc4 	movi	r2,1023
  b50960:	10ffa20e 	bge	r2,r3,b507ec <drawFrame+0x11c>
			color = genColor(result);
			alt_up_pixel_buffer_dma_draw(myPixelBuffer, color, i, j);
		}
	}

}
  b50964:	dfc01317 	ldw	ra,76(sp)
  b50968:	df001217 	ldw	fp,72(sp)
  b5096c:	ddc01117 	ldw	r23,68(sp)
  b50970:	dd801017 	ldw	r22,64(sp)
  b50974:	dd400f17 	ldw	r21,60(sp)
  b50978:	dd000e17 	ldw	r20,56(sp)
  b5097c:	dcc00d17 	ldw	r19,52(sp)
  b50980:	dc800c17 	ldw	r18,48(sp)
  b50984:	dc400b17 	ldw	r17,44(sp)
  b50988:	dc000a17 	ldw	r16,40(sp)
  b5098c:	dec01404 	addi	sp,sp,80
  b50990:	f800283a 	ret

}

int genColor(int iter) {
	int color = 0;
	if (iter == maxIter) {
  b50994:	000b883a 	mov	r5,zero
  b50998:	003fe206 	br	b50924 <drawFrame+0x254>

			result = mandelbrot(x0, y0, &x, &y);

			//recalculates the x and y
			if (cpu == 3) {
				if (recalculateTargetFlag) {
  b5099c:	d8800617 	ldw	r2,24(sp)
  b509a0:	103fcb26 	beq	r2,zero,b508d0 <drawFrame+0x200>
					if (result > (maxIter - 2)) {
  b509a4:	00801884 	movi	r2,98
  b509a8:	157fc90e 	bge	r2,r21,b508d0 <drawFrame+0x200>
						targetArrayXYMaster[0] = x;
						targetArrayXYMaster[1] = y;
						recalculateTargetFlag = recalculateTargetFlag - 1;
  b509ac:	d8c00617 	ldw	r3,24(sp)
			//recalculates the x and y
			if (cpu == 3) {
				if (recalculateTargetFlag) {
					if (result > (maxIter - 2)) {
						targetArrayXYMaster[0] = x;
						targetArrayXYMaster[1] = y;
  b509b0:	d0a71004 	addi	r2,gp,-25536
  b509b4:	14c00115 	stw	r19,4(r2)
						recalculateTargetFlag = recalculateTargetFlag - 1;
  b509b8:	18ffffc4 	addi	r3,r3,-1

			//recalculates the x and y
			if (cpu == 3) {
				if (recalculateTargetFlag) {
					if (result > (maxIter - 2)) {
						targetArrayXYMaster[0] = x;
  b509bc:	d4671015 	stw	r17,-25536(gp)
						targetArrayXYMaster[1] = y;
						recalculateTargetFlag = recalculateTargetFlag - 1;
  b509c0:	d8c00615 	stw	r3,24(sp)
  b509c4:	003fc206 	br	b508d0 <drawFrame+0x200>

	float x = 0.0;
	float y = 0.0;
	float xtemp = 0.0;

	while (((x * x + y * y) <= 4.0) && (iter < maxIter)) {
  b509c8:	d8c00117 	ldw	r3,4(sp)
  b509cc:	9023883a 	mov	r17,r18
  b509d0:	05400044 	movi	r21,1
  b509d4:	1827883a 	mov	r19,r3
  b509d8:	003fba06 	br	b508c4 <drawFrame+0x1f4>

00b509dc <drawFullSet>:
	}
	return iter;
}//*/


void drawFullSet(void) {
  b509dc:	defff204 	addi	sp,sp,-56
  b509e0:	dfc00d15 	stw	ra,52(sp)
  b509e4:	df000c15 	stw	fp,48(sp)
  b509e8:	ddc00b15 	stw	r23,44(sp)
  b509ec:	dd800a15 	stw	r22,40(sp)
  b509f0:	dd400915 	stw	r21,36(sp)
  b509f4:	dd000815 	stw	r20,32(sp)
  b509f8:	dcc00715 	stw	r19,28(sp)
  b509fc:	dc800615 	stw	r18,24(sp)
  b50a00:	dc400515 	stw	r17,20(sp)
  b50a04:	dc000415 	stw	r16,16(sp)
	int i;
	int j;
	int result = 0;
	int color = 0;
	int cpu = __builtin_rdctl(5);
  b50a08:	0009317a 	rdctl	r4,cpuid

	int recalculateTargetFlag = 10;

	for (i = cpu; i < colSize; i = i + NUM_CPUS) {
  b50a0c:	0080ffc4 	movi	r2,1023
  b50a10:	11006f16 	blt	r2,r4,b50bd0 <drawFullSet+0x1f4>
			result = mandelbrotNoZoom(j, i, &recalculateTargetFlag);
			color = genColor(result);
			alt_up_pixel_buffer_dma_draw(myPixelBuffer, color, i, j);
		}
	}
}//*/
  b50a14:	00800284 	movi	r2,10
  b50a18:	d9000315 	stw	r4,12(sp)
  b50a1c:	d8800215 	stw	r2,8(sp)
  b50a20:	0b529080 	call	b52908 <__floatsisf>
  b50a24:	00cea034 	movhi	r3,14976
  b50a28:	10c5ff32 	custom	252,r2,r2,r3
  b50a2c:	01101834 	movhi	r4,16480
  b50a30:	1105ff32 	custom	252,r2,r2,r4
  b50a34:	00d00834 	movhi	r3,16416
  b50a38:	10f9ffb2 	custom	254,fp,r2,r3
  b50a3c:	0005883a 	mov	r2,zero
  b50a40:	e085ff72 	custom	253,r2,fp,r2
  b50a44:	1087ff32 	custom	252,r3,r2,r2
  b50a48:	d8800015 	stw	r2,0(sp)
  b50a4c:	d8c00115 	stw	r3,4(sp)
  b50a50:	002f883a 	mov	r23,zero
	float maxX = 1;
	float minY = -1;
	float maxY = 1;

	float x0 = (((float) cCol / (float) colSize) * (maxX - minX)) + minX;
	float y0 = ((((float) 767 - (float) cRow) / (float) rowSize) * (maxY - minY)) + minY;
  b50a54:	b809883a 	mov	r4,r23
  b50a58:	0b529080 	call	b52908 <__floatsisf>
  b50a5c:	01111034 	movhi	r4,17472
  b50a60:	21300004 	addi	r4,r4,-16384
  b50a64:	2089ffb2 	custom	254,r4,r4,r2
  b50a68:	01511034 	movhi	r5,17472
  b50a6c:	0b525b40 	call	b525b4 <__divsf3>
  b50a70:	1085ff72 	custom	253,r2,r2,r2
  b50a74:	00cfe034 	movhi	r3,16256
  b50a78:	10ebffb2 	custom	254,r21,r2,r3
	float y = 0.0;
	float xtemp = 0.0;

	while (((x * x + y * y) <= 4.0) && (iter < maxIter)) {
		xtemp = x * x - y * y + x0;
		y = 2 * x * y + y0;
  b50a7c:	0005883a 	mov	r2,zero
  b50a80:	a8a3ff72 	custom	253,r17,r21,r2
	float y0 = ((((float) 767 - (float) cRow) / (float) rowSize) * (maxY - minY)) + minY;
	float x = 0.0;
	float y = 0.0;
	float xtemp = 0.0;

	while (((x * x + y * y) <= 4.0) && (iter < maxIter)) {
  b50a84:	d8800117 	ldw	r2,4(sp)
  b50a88:	8c67ff32 	custom	252,r19,r17,r17
  b50a8c:	01502034 	movhi	r5,16512
  b50a90:	14c9ff72 	custom	253,r4,r2,r19
  b50a94:	0b528900 	call	b52890 <__lesf2>
  b50a98:	00804916 	blt	zero,r2,b50bc0 <drawFullSet+0x1e4>
  b50a9c:	d8c00117 	ldw	r3,4(sp)
  b50aa0:	d8800017 	ldw	r2,0(sp)
  b50aa4:	05000044 	movi	r20,1
  b50aa8:	1821883a 	mov	r16,r3
  b50aac:	05801904 	movi	r22,100
  b50ab0:	1007883a 	mov	r3,r2
  b50ab4:	00000106 	br	b50abc <drawFullSet+0xe0>
  b50ab8:	a5800d26 	beq	r20,r22,b50af0 <drawFullSet+0x114>
		xtemp = x * x - y * y + x0;
		y = 2 * x * y + y0;
  b50abc:	18c5ff72 	custom	253,r2,r3,r3
  b50ac0:	8885ff32 	custom	252,r2,r17,r2
	float x = 0.0;
	float y = 0.0;
	float xtemp = 0.0;

	while (((x * x + y * y) <= 4.0) && (iter < maxIter)) {
		xtemp = x * x - y * y + x0;
  b50ac4:	84c7ffb2 	custom	254,r3,r16,r19
  b50ac8:	1f25ff72 	custom	253,r18,r3,fp
		y = 2 * x * y + y0;
  b50acc:	a8a3ff72 	custom	253,r17,r21,r2
	float y0 = ((((float) 767 - (float) cRow) / (float) rowSize) * (maxY - minY)) + minY;
	float x = 0.0;
	float y = 0.0;
	float xtemp = 0.0;

	while (((x * x + y * y) <= 4.0) && (iter < maxIter)) {
  b50ad0:	94a1ff32 	custom	252,r16,r18,r18
  b50ad4:	8c67ff32 	custom	252,r19,r17,r17
  b50ad8:	84c9ff72 	custom	253,r4,r16,r19
  b50adc:	01502034 	movhi	r5,16512
  b50ae0:	0b528900 	call	b52890 <__lesf2>
		xtemp = x * x - y * y + x0;
		y = 2 * x * y + y0;
		x = xtemp;
		iter++;
  b50ae4:	a5000044 	addi	r20,r20,1
	float y0 = ((((float) 767 - (float) cRow) / (float) rowSize) * (maxY - minY)) + minY;
	float x = 0.0;
	float y = 0.0;
	float xtemp = 0.0;

	while (((x * x + y * y) <= 4.0) && (iter < maxIter)) {
  b50ae8:	9007883a 	mov	r3,r18
  b50aec:	00bff20e 	bge	zero,r2,b50ab8 <drawFullSet+0xdc>
		xtemp = x * x - y * y + x0;
		y = 2 * x * y + y0;
		x = xtemp;
		iter++;
	}
	int cpu = __builtin_rdctl(5);
  b50af0:	0007317a 	rdctl	r3,cpuid
	if (cpu == 3) {
  b50af4:	008000c4 	movi	r2,3
  b50af8:	18802626 	beq	r3,r2,b50b94 <drawFullSet+0x1b8>

}

int genColor(int iter) {
	int color = 0;
	if (iter == maxIter) {
  b50afc:	00801904 	movi	r2,100
  b50b00:	a0802226 	beq	r20,r2,b50b8c <drawFullSet+0x1b0>
		color = black;
	}
	else {
		int red = iter;
		int green = iter * 8;
		int blue = iter * 2;
  b50b04:	a00490fa 	slli	r2,r20,3
  b50b08:	00c00fc4 	movi	r3,63
  b50b0c:	a50d883a 	add	r6,r20,r20
  b50b10:	1880010e 	bge	r3,r2,b50b18 <drawFullSet+0x13c>
  b50b14:	1805883a 	mov	r2,r3
  b50b18:	1004917a 	slli	r2,r2,5
  b50b1c:	010007c4 	movi	r4,31
  b50b20:	a007883a 	mov	r3,r20
  b50b24:	1141f80c 	andi	r5,r2,2016
  b50b28:	2500010e 	bge	r4,r20,b50b30 <drawFullSet+0x154>
  b50b2c:	2007883a 	mov	r3,r4
  b50b30:	180492fa 	slli	r2,r3,11
  b50b34:	3007883a 	mov	r3,r6
  b50b38:	11be000c 	andi	r6,r2,63488
  b50b3c:	20c0010e 	bge	r4,r3,b50b44 <drawFullSet+0x168>
  b50b40:	2007883a 	mov	r3,r4
  b50b44:	18803fcc 	andi	r2,r3,255
  b50b48:	3084b03a 	or	r2,r6,r2
  b50b4c:	288ab03a 	or	r5,r5,r2

	for (i = cpu; i < colSize; i = i + NUM_CPUS) {
		for (j = 0; j < rowSize; j++) {
			result = mandelbrotNoZoom(j, i, &recalculateTargetFlag);
			color = genColor(result);
			alt_up_pixel_buffer_dma_draw(myPixelBuffer, color, i, j);
  b50b50:	d1271217 	ldw	r4,-25528(gp)
  b50b54:	d9800317 	ldw	r6,12(sp)
  b50b58:	b80f883a 	mov	r7,r23
	int cpu = __builtin_rdctl(5);

	int recalculateTargetFlag = 10;

	for (i = cpu; i < colSize; i = i + NUM_CPUS) {
		for (j = 0; j < rowSize; j++) {
  b50b5c:	bdc00044 	addi	r23,r23,1
			result = mandelbrotNoZoom(j, i, &recalculateTargetFlag);
			color = genColor(result);
			alt_up_pixel_buffer_dma_draw(myPixelBuffer, color, i, j);
  b50b60:	0b5e6a00 	call	b5e6a0 <alt_up_pixel_buffer_dma_draw>
	int cpu = __builtin_rdctl(5);

	int recalculateTargetFlag = 10;

	for (i = cpu; i < colSize; i = i + NUM_CPUS) {
		for (j = 0; j < rowSize; j++) {
  b50b64:	0080c004 	movi	r2,768
  b50b68:	b8bfba1e 	bne	r23,r2,b50a54 <drawFullSet+0x78>
	int color = 0;
	int cpu = __builtin_rdctl(5);

	int recalculateTargetFlag = 10;

	for (i = cpu; i < colSize; i = i + NUM_CPUS) {
  b50b6c:	d8800317 	ldw	r2,12(sp)
  b50b70:	10800104 	addi	r2,r2,4
  b50b74:	d8800315 	stw	r2,12(sp)
  b50b78:	d8c00317 	ldw	r3,12(sp)
  b50b7c:	0080ffc4 	movi	r2,1023
  b50b80:	10c01316 	blt	r2,r3,b50bd0 <drawFullSet+0x1f4>
  b50b84:	d9000317 	ldw	r4,12(sp)
  b50b88:	003fa506 	br	b50a20 <drawFullSet+0x44>

}

int genColor(int iter) {
	int color = 0;
	if (iter == maxIter) {
  b50b8c:	000b883a 	mov	r5,zero
  b50b90:	003fef06 	br	b50b50 <drawFullSet+0x174>
		x = xtemp;
		iter++;
	}
	int cpu = __builtin_rdctl(5);
	if (cpu == 3) {
		if (*recalculateTargetFlag) {
  b50b94:	d8800217 	ldw	r2,8(sp)
  b50b98:	103fd826 	beq	r2,zero,b50afc <drawFullSet+0x120>
			if (iter >= (maxIter - 2)) {
  b50b9c:	00801844 	movi	r2,97
  b50ba0:	153fd60e 	bge	r2,r20,b50afc <drawFullSet+0x120>
				targetArrayXYMaster[0] = x;
				targetArrayXYMaster[1] = y;
				*recalculateTargetFlag = *recalculateTargetFlag - 1;
  b50ba4:	d8c00217 	ldw	r3,8(sp)
	int cpu = __builtin_rdctl(5);
	if (cpu == 3) {
		if (*recalculateTargetFlag) {
			if (iter >= (maxIter - 2)) {
				targetArrayXYMaster[0] = x;
				targetArrayXYMaster[1] = y;
  b50ba8:	d0a71004 	addi	r2,gp,-25536
  b50bac:	14400115 	stw	r17,4(r2)
				*recalculateTargetFlag = *recalculateTargetFlag - 1;
  b50bb0:	18ffffc4 	addi	r3,r3,-1
	}
	int cpu = __builtin_rdctl(5);
	if (cpu == 3) {
		if (*recalculateTargetFlag) {
			if (iter >= (maxIter - 2)) {
				targetArrayXYMaster[0] = x;
  b50bb4:	d4a71015 	stw	r18,-25536(gp)
				targetArrayXYMaster[1] = y;
				*recalculateTargetFlag = *recalculateTargetFlag - 1;
  b50bb8:	d8c00215 	stw	r3,8(sp)
  b50bbc:	003fcf06 	br	b50afc <drawFullSet+0x120>
	float y0 = ((((float) 767 - (float) cRow) / (float) rowSize) * (maxY - minY)) + minY;
	float x = 0.0;
	float y = 0.0;
	float xtemp = 0.0;

	while (((x * x + y * y) <= 4.0) && (iter < maxIter)) {
  b50bc0:	d8c00017 	ldw	r3,0(sp)
  b50bc4:	05000044 	movi	r20,1
  b50bc8:	1825883a 	mov	r18,r3
  b50bcc:	003fc806 	br	b50af0 <drawFullSet+0x114>
			result = mandelbrotNoZoom(j, i, &recalculateTargetFlag);
			color = genColor(result);
			alt_up_pixel_buffer_dma_draw(myPixelBuffer, color, i, j);
		}
	}
}//*/
  b50bd0:	dfc00d17 	ldw	ra,52(sp)
  b50bd4:	df000c17 	ldw	fp,48(sp)
  b50bd8:	ddc00b17 	ldw	r23,44(sp)
  b50bdc:	dd800a17 	ldw	r22,40(sp)
  b50be0:	dd400917 	ldw	r21,36(sp)
  b50be4:	dd000817 	ldw	r20,32(sp)
  b50be8:	dcc00717 	ldw	r19,28(sp)
  b50bec:	dc800617 	ldw	r18,24(sp)
  b50bf0:	dc400517 	ldw	r17,20(sp)
  b50bf4:	dc000417 	ldw	r16,16(sp)
  b50bf8:	dec00e04 	addi	sp,sp,56
  b50bfc:	f800283a 	ret

00b50c00 <main>:

#define FIXED_POINT



int main() {
  b50c00:	defffd04 	addi	sp,sp,-12
  b50c04:	dfc00215 	stw	ra,8(sp)
  b50c08:	dc400115 	stw	r17,4(sp)
  b50c0c:	dc000015 	stw	r16,0(sp)
	setup();
  b50c10:	0b506a00 	call	b506a0 <setup>
//	clearScreen();
	printf("Program running (UART)...\n");
  b50c14:	01002db4 	movhi	r4,182
  b50c18:	2103e904 	addi	r4,r4,4004
  b50c1c:	0b53cd40 	call	b53cd4 <puts>
	int cpu = __builtin_rdctl(5);
  b50c20:	000b317a 	rdctl	r5,cpuid
	printf("cpu %d\n", cpu);
  b50c24:	01002db4 	movhi	r4,182
  b50c28:	2103f004 	addi	r4,r4,4032
  b50c2c:	0b53bbc0 	call	b53bbc <printf>
  b50c30:	0021883a 	mov	r16,zero
  b50c34:	04401904 	movi	r17,100
			/*
			 PERF_RESET(PERFORMANCE_COUNTER_0_BASE);
			 PERF_START_MEASURING(PERFORMANCE_COUNTER_0_BASE);
			 PERF_BEGIN(PERFORMANCE_COUNTER_0_BASE, 1);
			 //*/
			clearScreen();
  b50c38:	0b503800 	call	b50380 <clearScreen>
			if (zoom == 0) {
				drawFullSet();
			}

			else {
				drawFrame(zoom);
  b50c3c:	8009883a 	mov	r4,r16
			 PERF_START_MEASURING(PERFORMANCE_COUNTER_0_BASE);
			 PERF_BEGIN(PERFORMANCE_COUNTER_0_BASE, 1);
			 //*/
			clearScreen();

			if (zoom == 0) {
  b50c40:	8000071e 	bne	r16,zero,b50c60 <main+0x60>
				drawFullSet();
  b50c44:	0b509dc0 	call	b509dc <drawFullSet>

			else {
				drawFrame(zoom);
			}

			barrier(0);
  b50c48:	0009883a 	mov	r4,zero
  b50c4c:	0b504f40 	call	b504f4 <barrier>
  b50c50:	04000044 	movi	r16,1
			/*
			 PERF_RESET(PERFORMANCE_COUNTER_0_BASE);
			 PERF_START_MEASURING(PERFORMANCE_COUNTER_0_BASE);
			 PERF_BEGIN(PERFORMANCE_COUNTER_0_BASE, 1);
			 //*/
			clearScreen();
  b50c54:	0b503800 	call	b50380 <clearScreen>
			if (zoom == 0) {
				drawFullSet();
			}

			else {
				drawFrame(zoom);
  b50c58:	8009883a 	mov	r4,r16
			 PERF_START_MEASURING(PERFORMANCE_COUNTER_0_BASE);
			 PERF_BEGIN(PERFORMANCE_COUNTER_0_BASE, 1);
			 //*/
			clearScreen();

			if (zoom == 0) {
  b50c5c:	803ff926 	beq	r16,zero,b50c44 <main+0x44>
				drawFullSet();
			}

			else {
				drawFrame(zoom);
  b50c60:	0b506d00 	call	b506d0 <drawFrame>
	//	unsigned long long cycles = 0;
	//	drawFullSet();
	//the main program loop
	while (1) {
		int zoom;
		for (zoom = 0; zoom <= 100; zoom++) {
  b50c64:	84000044 	addi	r16,r16,1

			else {
				drawFrame(zoom);
			}

			barrier(0);
  b50c68:	0009883a 	mov	r4,zero
  b50c6c:	0b504f40 	call	b504f4 <barrier>
	//	unsigned long long cycles = 0;
	//	drawFullSet();
	//the main program loop
	while (1) {
		int zoom;
		for (zoom = 0; zoom <= 100; zoom++) {
  b50c70:	8c3ff10e 	bge	r17,r16,b50c38 <main+0x38>
  b50c74:	0021883a 	mov	r16,zero
  b50c78:	003fef06 	br	b50c38 <main+0x38>

00b50c7c <powf>:
  b50c7c:	defff104 	addi	sp,sp,-60
  b50c80:	dd000d15 	stw	r20,52(sp)
  b50c84:	dcc00c15 	stw	r19,48(sp)
  b50c88:	dc800b15 	stw	r18,44(sp)
  b50c8c:	dc400a15 	stw	r17,40(sp)
  b50c90:	dc000915 	stw	r16,36(sp)
  b50c94:	dfc00e15 	stw	ra,56(sp)
  b50c98:	05002db4 	movhi	r20,182
  b50c9c:	a50bf204 	addi	r20,r20,12232
  b50ca0:	2027883a 	mov	r19,r4
  b50ca4:	2825883a 	mov	r18,r5
  b50ca8:	0b510d40 	call	b510d4 <__ieee754_powf>
  b50cac:	1021883a 	mov	r16,r2
  b50cb0:	a0800017 	ldw	r2,0(r20)
  b50cb4:	047fffc4 	movi	r17,-1
  b50cb8:	14400326 	beq	r2,r17,b50cc8 <powf+0x4c>
  b50cbc:	9009883a 	mov	r4,r18
  b50cc0:	0b51f980 	call	b51f98 <isnanf>
  b50cc4:	10000926 	beq	r2,zero,b50cec <powf+0x70>
  b50cc8:	8005883a 	mov	r2,r16
  b50ccc:	dfc00e17 	ldw	ra,56(sp)
  b50cd0:	dd000d17 	ldw	r20,52(sp)
  b50cd4:	dcc00c17 	ldw	r19,48(sp)
  b50cd8:	dc800b17 	ldw	r18,44(sp)
  b50cdc:	dc400a17 	ldw	r17,40(sp)
  b50ce0:	dc000917 	ldw	r16,36(sp)
  b50ce4:	dec00f04 	addi	sp,sp,60
  b50ce8:	f800283a 	ret
  b50cec:	9809883a 	mov	r4,r19
  b50cf0:	0b51f980 	call	b51f98 <isnanf>
  b50cf4:	1000151e 	bne	r2,zero,b50d4c <powf+0xd0>
  b50cf8:	9809883a 	mov	r4,r19
  b50cfc:	000b883a 	mov	r5,zero
  b50d00:	0b527280 	call	b52728 <__eqsf2>
  b50d04:	10005a1e 	bne	r2,zero,b50e70 <powf+0x1f4>
  b50d08:	9009883a 	mov	r4,r18
  b50d0c:	000b883a 	mov	r5,zero
  b50d10:	0b527280 	call	b52728 <__eqsf2>
  b50d14:	1000331e 	bne	r2,zero,b50de4 <powf+0x168>
  b50d18:	a0800017 	ldw	r2,0(r20)
  b50d1c:	d8000615 	stw	zero,24(sp)
  b50d20:	d8000715 	stw	zero,28(sp)
  b50d24:	10001426 	beq	r2,zero,b50d78 <powf+0xfc>
  b50d28:	008ffc34 	movhi	r2,16368
  b50d2c:	d8800715 	stw	r2,28(sp)
  b50d30:	d8800617 	ldw	r2,24(sp)
  b50d34:	d8c00717 	ldw	r3,28(sp)
  b50d38:	1009883a 	mov	r4,r2
  b50d3c:	180b883a 	mov	r5,r3
  b50d40:	0b532100 	call	b53210 <__truncdfsf2>
  b50d44:	1021883a 	mov	r16,r2
  b50d48:	003fdf06 	br	b50cc8 <powf+0x4c>
  b50d4c:	9009883a 	mov	r4,r18
  b50d50:	000b883a 	mov	r5,zero
  b50d54:	0b527280 	call	b52728 <__eqsf2>
  b50d58:	103fdb1e 	bne	r2,zero,b50cc8 <powf+0x4c>
  b50d5c:	a0c00017 	ldw	r3,0(r20)
  b50d60:	010ffc34 	movhi	r4,16368
  b50d64:	d8000615 	stw	zero,24(sp)
  b50d68:	d9000715 	stw	r4,28(sp)
  b50d6c:	1c401a26 	beq	r3,r17,b50dd8 <powf+0x15c>
  b50d70:	00800084 	movi	r2,2
  b50d74:	18801826 	beq	r3,r2,b50dd8 <powf+0x15c>
  b50d78:	9009883a 	mov	r4,r18
  b50d7c:	0b529a00 	call	b529a0 <__extendsfdf2>
  b50d80:	9809883a 	mov	r4,r19
  b50d84:	d8c00515 	stw	r3,20(sp)
  b50d88:	d8800415 	stw	r2,16(sp)
  b50d8c:	0b529a00 	call	b529a0 <__extendsfdf2>
  b50d90:	100b883a 	mov	r5,r2
  b50d94:	d8c00315 	stw	r3,12(sp)
  b50d98:	00802db4 	movhi	r2,182
  b50d9c:	1083f204 	addi	r2,r2,4040
  b50da0:	00c00044 	movi	r3,1
  b50da4:	d809883a 	mov	r4,sp
  b50da8:	d8800115 	stw	r2,4(sp)
  b50dac:	d8c00015 	stw	r3,0(sp)
  b50db0:	d9400215 	stw	r5,8(sp)
  b50db4:	d8000815 	stw	zero,32(sp)
  b50db8:	0b51d540 	call	b51d54 <matherr>
  b50dbc:	10002826 	beq	r2,zero,b50e60 <powf+0x1e4>
  b50dc0:	d8800817 	ldw	r2,32(sp)
  b50dc4:	103fda26 	beq	r2,zero,b50d30 <powf+0xb4>
  b50dc8:	0b53bac0 	call	b53bac <__errno>
  b50dcc:	d8c00817 	ldw	r3,32(sp)
  b50dd0:	10c00015 	stw	r3,0(r2)
  b50dd4:	003fd606 	br	b50d30 <powf+0xb4>
  b50dd8:	d9000715 	stw	r4,28(sp)
  b50ddc:	d8000615 	stw	zero,24(sp)
  b50de0:	003fd306 	br	b50d30 <powf+0xb4>
  b50de4:	9009883a 	mov	r4,r18
  b50de8:	0b51f7c0 	call	b51f7c <finitef>
  b50dec:	103fb626 	beq	r2,zero,b50cc8 <powf+0x4c>
  b50df0:	9009883a 	mov	r4,r18
  b50df4:	000b883a 	mov	r5,zero
  b50df8:	0b528180 	call	b52818 <__ltsf2>
  b50dfc:	103fb20e 	bge	r2,zero,b50cc8 <powf+0x4c>
  b50e00:	9809883a 	mov	r4,r19
  b50e04:	00800044 	movi	r2,1
  b50e08:	00c02db4 	movhi	r3,182
  b50e0c:	18c3f204 	addi	r3,r3,4040
  b50e10:	d8800015 	stw	r2,0(sp)
  b50e14:	d8c00115 	stw	r3,4(sp)
  b50e18:	d8000815 	stw	zero,32(sp)
  b50e1c:	0b529a00 	call	b529a0 <__extendsfdf2>
  b50e20:	9009883a 	mov	r4,r18
  b50e24:	d8c00315 	stw	r3,12(sp)
  b50e28:	d8800215 	stw	r2,8(sp)
  b50e2c:	0b529a00 	call	b529a0 <__extendsfdf2>
  b50e30:	a1800017 	ldw	r6,0(r20)
  b50e34:	d8c00515 	stw	r3,20(sp)
  b50e38:	d8800415 	stw	r2,16(sp)
  b50e3c:	30005626 	beq	r6,zero,b50f98 <powf+0x31c>
  b50e40:	00bffc34 	movhi	r2,65520
  b50e44:	d8800715 	stw	r2,28(sp)
  b50e48:	00800084 	movi	r2,2
  b50e4c:	d8000615 	stw	zero,24(sp)
  b50e50:	30800326 	beq	r6,r2,b50e60 <powf+0x1e4>
  b50e54:	d809883a 	mov	r4,sp
  b50e58:	0b51d540 	call	b51d54 <matherr>
  b50e5c:	103fd81e 	bne	r2,zero,b50dc0 <powf+0x144>
  b50e60:	0b53bac0 	call	b53bac <__errno>
  b50e64:	00c00844 	movi	r3,33
  b50e68:	10c00015 	stw	r3,0(r2)
  b50e6c:	003fd406 	br	b50dc0 <powf+0x144>
  b50e70:	8009883a 	mov	r4,r16
  b50e74:	0b51f7c0 	call	b51f7c <finitef>
  b50e78:	10002426 	beq	r2,zero,b50f0c <powf+0x290>
  b50e7c:	8009883a 	mov	r4,r16
  b50e80:	000b883a 	mov	r5,zero
  b50e84:	0b527280 	call	b52728 <__eqsf2>
  b50e88:	103f8f1e 	bne	r2,zero,b50cc8 <powf+0x4c>
  b50e8c:	9809883a 	mov	r4,r19
  b50e90:	0b51f7c0 	call	b51f7c <finitef>
  b50e94:	103f8c26 	beq	r2,zero,b50cc8 <powf+0x4c>
  b50e98:	9009883a 	mov	r4,r18
  b50e9c:	0b51f7c0 	call	b51f7c <finitef>
  b50ea0:	103f8926 	beq	r2,zero,b50cc8 <powf+0x4c>
  b50ea4:	9809883a 	mov	r4,r19
  b50ea8:	00800104 	movi	r2,4
  b50eac:	00c02db4 	movhi	r3,182
  b50eb0:	18c3f204 	addi	r3,r3,4040
  b50eb4:	d8800015 	stw	r2,0(sp)
  b50eb8:	d8c00115 	stw	r3,4(sp)
  b50ebc:	d8000815 	stw	zero,32(sp)
  b50ec0:	0b529a00 	call	b529a0 <__extendsfdf2>
  b50ec4:	9009883a 	mov	r4,r18
  b50ec8:	d8c00315 	stw	r3,12(sp)
  b50ecc:	d8800215 	stw	r2,8(sp)
  b50ed0:	0b529a00 	call	b529a0 <__extendsfdf2>
  b50ed4:	a1800017 	ldw	r6,0(r20)
  b50ed8:	d8800415 	stw	r2,16(sp)
  b50edc:	00800084 	movi	r2,2
  b50ee0:	d8c00515 	stw	r3,20(sp)
  b50ee4:	d8000615 	stw	zero,24(sp)
  b50ee8:	d8000715 	stw	zero,28(sp)
  b50eec:	30800326 	beq	r6,r2,b50efc <powf+0x280>
  b50ef0:	d809883a 	mov	r4,sp
  b50ef4:	0b51d540 	call	b51d54 <matherr>
  b50ef8:	103fb11e 	bne	r2,zero,b50dc0 <powf+0x144>
  b50efc:	0b53bac0 	call	b53bac <__errno>
  b50f00:	00c00884 	movi	r3,34
  b50f04:	10c00015 	stw	r3,0(r2)
  b50f08:	003fad06 	br	b50dc0 <powf+0x144>
  b50f0c:	9809883a 	mov	r4,r19
  b50f10:	0b51f7c0 	call	b51f7c <finitef>
  b50f14:	103fd926 	beq	r2,zero,b50e7c <powf+0x200>
  b50f18:	9009883a 	mov	r4,r18
  b50f1c:	0b51f7c0 	call	b51f7c <finitef>
  b50f20:	103fd626 	beq	r2,zero,b50e7c <powf+0x200>
  b50f24:	8009883a 	mov	r4,r16
  b50f28:	0b51f980 	call	b51f98 <isnanf>
  b50f2c:	10001d26 	beq	r2,zero,b50fa4 <powf+0x328>
  b50f30:	9809883a 	mov	r4,r19
  b50f34:	00800044 	movi	r2,1
  b50f38:	00c02db4 	movhi	r3,182
  b50f3c:	18c3f204 	addi	r3,r3,4040
  b50f40:	d8800015 	stw	r2,0(sp)
  b50f44:	d8c00115 	stw	r3,4(sp)
  b50f48:	d8000815 	stw	zero,32(sp)
  b50f4c:	0b529a00 	call	b529a0 <__extendsfdf2>
  b50f50:	9009883a 	mov	r4,r18
  b50f54:	d8c00315 	stw	r3,12(sp)
  b50f58:	d8800215 	stw	r2,8(sp)
  b50f5c:	0b529a00 	call	b529a0 <__extendsfdf2>
  b50f60:	a4000017 	ldw	r16,0(r20)
  b50f64:	d8c00515 	stw	r3,20(sp)
  b50f68:	d8800415 	stw	r2,16(sp)
  b50f6c:	80000a26 	beq	r16,zero,b50f98 <powf+0x31c>
  b50f70:	0009883a 	mov	r4,zero
  b50f74:	000d883a 	mov	r6,zero
  b50f78:	000b883a 	mov	r5,zero
  b50f7c:	000f883a 	mov	r7,zero
  b50f80:	0b52ef80 	call	b52ef8 <__divdf3>
  b50f84:	d8800615 	stw	r2,24(sp)
  b50f88:	00800084 	movi	r2,2
  b50f8c:	d8c00715 	stw	r3,28(sp)
  b50f90:	80bfb01e 	bne	r16,r2,b50e54 <powf+0x1d8>
  b50f94:	003fb206 	br	b50e60 <powf+0x1e4>
  b50f98:	d8000615 	stw	zero,24(sp)
  b50f9c:	d8000715 	stw	zero,28(sp)
  b50fa0:	003fac06 	br	b50e54 <powf+0x1d8>
  b50fa4:	9809883a 	mov	r4,r19
  b50fa8:	008000c4 	movi	r2,3
  b50fac:	00c02db4 	movhi	r3,182
  b50fb0:	18c3f204 	addi	r3,r3,4040
  b50fb4:	d8800015 	stw	r2,0(sp)
  b50fb8:	d8c00115 	stw	r3,4(sp)
  b50fbc:	d8000815 	stw	zero,32(sp)
  b50fc0:	0b529a00 	call	b529a0 <__extendsfdf2>
  b50fc4:	9009883a 	mov	r4,r18
  b50fc8:	d8c00315 	stw	r3,12(sp)
  b50fcc:	d8800215 	stw	r2,8(sp)
  b50fd0:	0b529a00 	call	b529a0 <__extendsfdf2>
  b50fd4:	a1800017 	ldw	r6,0(r20)
  b50fd8:	d8c00515 	stw	r3,20(sp)
  b50fdc:	d8800415 	stw	r2,16(sp)
  b50fe0:	3000211e 	bne	r6,zero,b51068 <powf+0x3ec>
  b50fe4:	9809883a 	mov	r4,r19
  b50fe8:	0091fc34 	movhi	r2,18416
  b50fec:	10bfffc4 	addi	r2,r2,-1
  b50ff0:	04f80034 	movhi	r19,57344
  b50ff4:	000b883a 	mov	r5,zero
  b50ff8:	d8800715 	stw	r2,28(sp)
  b50ffc:	dcc00615 	stw	r19,24(sp)
  b51000:	0b528180 	call	b52818 <__ltsf2>
  b51004:	103fba0e 	bge	r2,zero,b50ef0 <powf+0x274>
  b51008:	014fc034 	movhi	r5,16128
  b5100c:	9009883a 	mov	r4,r18
  b51010:	0b523d40 	call	b523d4 <__mulsf3>
  b51014:	1009883a 	mov	r4,r2
  b51018:	0b529a00 	call	b529a0 <__extendsfdf2>
  b5101c:	1009883a 	mov	r4,r2
  b51020:	180b883a 	mov	r5,r3
  b51024:	1021883a 	mov	r16,r2
  b51028:	1823883a 	mov	r17,r3
  b5102c:	0b51d5c0 	call	b51d5c <rint>
  b51030:	180f883a 	mov	r7,r3
  b51034:	880b883a 	mov	r5,r17
  b51038:	8009883a 	mov	r4,r16
  b5103c:	100d883a 	mov	r6,r2
  b51040:	0b531500 	call	b53150 <__nedf2>
  b51044:	10000426 	beq	r2,zero,b51058 <powf+0x3dc>
  b51048:	00b1fc34 	movhi	r2,51184
  b5104c:	10bfffc4 	addi	r2,r2,-1
  b51050:	dcc00615 	stw	r19,24(sp)
  b51054:	d8800715 	stw	r2,28(sp)
  b51058:	a0c00017 	ldw	r3,0(r20)
  b5105c:	00800084 	movi	r2,2
  b51060:	18bfa31e 	bne	r3,r2,b50ef0 <powf+0x274>
  b51064:	003fa506 	br	b50efc <powf+0x280>
  b51068:	009ffc34 	movhi	r2,32752
  b5106c:	9809883a 	mov	r4,r19
  b51070:	000b883a 	mov	r5,zero
  b51074:	d8800715 	stw	r2,28(sp)
  b51078:	d8000615 	stw	zero,24(sp)
  b5107c:	0b528180 	call	b52818 <__ltsf2>
  b51080:	103ff50e 	bge	r2,zero,b51058 <powf+0x3dc>
  b51084:	014fc034 	movhi	r5,16128
  b51088:	9009883a 	mov	r4,r18
  b5108c:	0b523d40 	call	b523d4 <__mulsf3>
  b51090:	1009883a 	mov	r4,r2
  b51094:	0b529a00 	call	b529a0 <__extendsfdf2>
  b51098:	1009883a 	mov	r4,r2
  b5109c:	180b883a 	mov	r5,r3
  b510a0:	1021883a 	mov	r16,r2
  b510a4:	1823883a 	mov	r17,r3
  b510a8:	0b51d5c0 	call	b51d5c <rint>
  b510ac:	180f883a 	mov	r7,r3
  b510b0:	880b883a 	mov	r5,r17
  b510b4:	8009883a 	mov	r4,r16
  b510b8:	100d883a 	mov	r6,r2
  b510bc:	0b531500 	call	b53150 <__nedf2>
  b510c0:	103fe526 	beq	r2,zero,b51058 <powf+0x3dc>
  b510c4:	00bffc34 	movhi	r2,65520
  b510c8:	d8800715 	stw	r2,28(sp)
  b510cc:	d8000615 	stw	zero,24(sp)
  b510d0:	003fe106 	br	b51058 <powf+0x3dc>

00b510d4 <__ieee754_powf>:
  b510d4:	defff004 	addi	sp,sp,-64
  b510d8:	00a00034 	movhi	r2,32768
  b510dc:	10bfffc4 	addi	r2,r2,-1
  b510e0:	dc000615 	stw	r16,24(sp)
  b510e4:	28a0703a 	and	r16,r5,r2
  b510e8:	df000e15 	stw	fp,56(sp)
  b510ec:	dcc00915 	stw	r19,36(sp)
  b510f0:	dc800815 	stw	r18,32(sp)
  b510f4:	2027883a 	mov	r19,r4
  b510f8:	dfc00f15 	stw	ra,60(sp)
  b510fc:	ddc00d15 	stw	r23,52(sp)
  b51100:	dd800c15 	stw	r22,48(sp)
  b51104:	dd400b15 	stw	r21,44(sp)
  b51108:	dd000a15 	stw	r20,40(sp)
  b5110c:	dc400715 	stw	r17,28(sp)
  b51110:	2839883a 	mov	fp,r5
  b51114:	2825883a 	mov	r18,r5
  b51118:	2809883a 	mov	r4,r5
  b5111c:	80003526 	beq	r16,zero,b511f4 <__ieee754_powf+0x120>
  b51120:	98a2703a 	and	r17,r19,r2
  b51124:	009fe034 	movhi	r2,32640
  b51128:	9829883a 	mov	r20,r19
  b5112c:	1440100e 	bge	r2,r17,b51170 <__ieee754_powf+0x9c>
  b51130:	008fe034 	movhi	r2,16256
  b51134:	88803d26 	beq	r17,r2,b5122c <__ieee754_powf+0x158>
  b51138:	01002db4 	movhi	r4,182
  b5113c:	21045204 	addi	r4,r4,4424
  b51140:	dfc00f17 	ldw	ra,60(sp)
  b51144:	df000e17 	ldw	fp,56(sp)
  b51148:	ddc00d17 	ldw	r23,52(sp)
  b5114c:	dd800c17 	ldw	r22,48(sp)
  b51150:	dd400b17 	ldw	r21,44(sp)
  b51154:	dd000a17 	ldw	r20,40(sp)
  b51158:	dcc00917 	ldw	r19,36(sp)
  b5115c:	dc800817 	ldw	r18,32(sp)
  b51160:	dc400717 	ldw	r17,28(sp)
  b51164:	dc000617 	ldw	r16,24(sp)
  b51168:	dec01004 	addi	sp,sp,64
  b5116c:	0b51fb01 	jmpi	b51fb0 <nanf>
  b51170:	143fef16 	blt	r2,r16,b51130 <__ieee754_powf+0x5c>
  b51174:	982a403a 	cmpge	r21,r19,zero
  b51178:	a8004526 	beq	r21,zero,b51290 <__ieee754_powf+0x1bc>
  b5117c:	002f883a 	mov	r23,zero
  b51180:	009fe034 	movhi	r2,32640
  b51184:	80803926 	beq	r16,r2,b5126c <__ieee754_powf+0x198>
  b51188:	008fe034 	movhi	r2,16256
  b5118c:	80803d26 	beq	r16,r2,b51284 <__ieee754_powf+0x1b0>
  b51190:	00900034 	movhi	r2,16384
  b51194:	20805326 	beq	r4,r2,b512e4 <__ieee754_powf+0x210>
  b51198:	008fc034 	movhi	r2,16128
  b5119c:	20802526 	beq	r4,r2,b51234 <__ieee754_powf+0x160>
  b511a0:	9809883a 	mov	r4,r19
  b511a4:	0b51f6c0 	call	b51f6c <fabsf>
  b511a8:	1009883a 	mov	r4,r2
  b511ac:	009fe034 	movhi	r2,32640
  b511b0:	88803c26 	beq	r17,r2,b512a4 <__ieee754_powf+0x1d0>
  b511b4:	88003b26 	beq	r17,zero,b512a4 <__ieee754_powf+0x1d0>
  b511b8:	014fe034 	movhi	r5,16256
  b511bc:	89403926 	beq	r17,r5,b512a4 <__ieee754_powf+0x1d0>
  b511c0:	a004d7fa 	srli	r2,r20,31
  b511c4:	10bfffc4 	addi	r2,r2,-1
  b511c8:	15c6b03a 	or	r3,r2,r23
  b511cc:	d8800215 	stw	r2,8(sp)
  b511d0:	1800661e 	bne	r3,zero,b5136c <__ieee754_powf+0x298>
  b511d4:	980b883a 	mov	r5,r19
  b511d8:	9809883a 	mov	r4,r19
  b511dc:	0b523000 	call	b52300 <__subsf3>
  b511e0:	1009883a 	mov	r4,r2
  b511e4:	100b883a 	mov	r5,r2
  b511e8:	0b525b40 	call	b525b4 <__divsf3>
  b511ec:	1039883a 	mov	fp,r2
  b511f0:	00000106 	br	b511f8 <__ieee754_powf+0x124>
  b511f4:	070fe034 	movhi	fp,16256
  b511f8:	e005883a 	mov	r2,fp
  b511fc:	dfc00f17 	ldw	ra,60(sp)
  b51200:	df000e17 	ldw	fp,56(sp)
  b51204:	ddc00d17 	ldw	r23,52(sp)
  b51208:	dd800c17 	ldw	r22,48(sp)
  b5120c:	dd400b17 	ldw	r21,44(sp)
  b51210:	dd000a17 	ldw	r20,40(sp)
  b51214:	dcc00917 	ldw	r19,36(sp)
  b51218:	dc800817 	ldw	r18,32(sp)
  b5121c:	dc400717 	ldw	r17,28(sp)
  b51220:	dc000617 	ldw	r16,24(sp)
  b51224:	dec01004 	addi	sp,sp,64
  b51228:	f800283a 	ret
  b5122c:	8839883a 	mov	fp,r17
  b51230:	003ff106 	br	b511f8 <__ieee754_powf+0x124>
  b51234:	a03fda16 	blt	r20,zero,b511a0 <__ieee754_powf+0xcc>
  b51238:	9809883a 	mov	r4,r19
  b5123c:	dfc00f17 	ldw	ra,60(sp)
  b51240:	df000e17 	ldw	fp,56(sp)
  b51244:	ddc00d17 	ldw	r23,52(sp)
  b51248:	dd800c17 	ldw	r22,48(sp)
  b5124c:	dd400b17 	ldw	r21,44(sp)
  b51250:	dd000a17 	ldw	r20,40(sp)
  b51254:	dcc00917 	ldw	r19,36(sp)
  b51258:	dc800817 	ldw	r18,32(sp)
  b5125c:	dc400717 	ldw	r17,28(sp)
  b51260:	dc000617 	ldw	r16,24(sp)
  b51264:	dec01004 	addi	sp,sp,64
  b51268:	0b51be81 	jmpi	b51be8 <__ieee754_sqrtf>
  b5126c:	008fe034 	movhi	r2,16256
  b51270:	88bfee26 	beq	r17,r2,b5122c <__ieee754_powf+0x158>
  b51274:	1440200e 	bge	r2,r17,b512f8 <__ieee754_powf+0x224>
  b51278:	903fdf0e 	bge	r18,zero,b511f8 <__ieee754_powf+0x124>
  b5127c:	0039883a 	mov	fp,zero
  b51280:	003fdd06 	br	b511f8 <__ieee754_powf+0x124>
  b51284:	90002f16 	blt	r18,zero,b51344 <__ieee754_powf+0x270>
  b51288:	9839883a 	mov	fp,r19
  b5128c:	003fda06 	br	b511f8 <__ieee754_powf+0x124>
  b51290:	0092e034 	movhi	r2,19328
  b51294:	10bfffc4 	addi	r2,r2,-1
  b51298:	14001b0e 	bge	r2,r16,b51308 <__ieee754_powf+0x234>
  b5129c:	05c00084 	movi	r23,2
  b512a0:	003fb706 	br	b51180 <__ieee754_powf+0xac>
  b512a4:	90000916 	blt	r18,zero,b512cc <__ieee754_powf+0x1f8>
  b512a8:	a8000226 	beq	r21,zero,b512b4 <__ieee754_powf+0x1e0>
  b512ac:	2039883a 	mov	fp,r4
  b512b0:	003fd106 	br	b511f8 <__ieee754_powf+0x124>
  b512b4:	00b02034 	movhi	r2,49280
  b512b8:	8885883a 	add	r2,r17,r2
  b512bc:	b884b03a 	or	r2,r23,r2
  b512c0:	1000251e 	bne	r2,zero,b51358 <__ieee754_powf+0x284>
  b512c4:	200b883a 	mov	r5,r4
  b512c8:	003fc406 	br	b511dc <__ieee754_powf+0x108>
  b512cc:	200b883a 	mov	r5,r4
  b512d0:	010fe034 	movhi	r4,16256
  b512d4:	0b525b40 	call	b525b4 <__divsf3>
  b512d8:	1009883a 	mov	r4,r2
  b512dc:	a83ff31e 	bne	r21,zero,b512ac <__ieee754_powf+0x1d8>
  b512e0:	003ff406 	br	b512b4 <__ieee754_powf+0x1e0>
  b512e4:	980b883a 	mov	r5,r19
  b512e8:	9809883a 	mov	r4,r19
  b512ec:	0b523d40 	call	b523d4 <__mulsf3>
  b512f0:	1039883a 	mov	fp,r2
  b512f4:	003fc006 	br	b511f8 <__ieee754_powf+0x124>
  b512f8:	903fe00e 	bge	r18,zero,b5127c <__ieee754_powf+0x1a8>
  b512fc:	e0a0003c 	xorhi	r2,fp,32768
  b51300:	1039883a 	mov	fp,r2
  b51304:	003fbc06 	br	b511f8 <__ieee754_powf+0x124>
  b51308:	008fe034 	movhi	r2,16256
  b5130c:	10bfffc4 	addi	r2,r2,-1
  b51310:	1400060e 	bge	r2,r16,b5132c <__ieee754_powf+0x258>
  b51314:	8007d5fa 	srai	r3,r16,23
  b51318:	00802584 	movi	r2,150
  b5131c:	10c5c83a 	sub	r2,r2,r3
  b51320:	8087d83a 	sra	r3,r16,r2
  b51324:	1884983a 	sll	r2,r3,r2
  b51328:	80800226 	beq	r16,r2,b51334 <__ieee754_powf+0x260>
  b5132c:	002f883a 	mov	r23,zero
  b51330:	003f9506 	br	b51188 <__ieee754_powf+0xb4>
  b51334:	18c0004c 	andi	r3,r3,1
  b51338:	00800084 	movi	r2,2
  b5133c:	10efc83a 	sub	r23,r2,r3
  b51340:	003f9106 	br	b51188 <__ieee754_powf+0xb4>
  b51344:	8009883a 	mov	r4,r16
  b51348:	980b883a 	mov	r5,r19
  b5134c:	0b525b40 	call	b525b4 <__divsf3>
  b51350:	1039883a 	mov	fp,r2
  b51354:	003fa806 	br	b511f8 <__ieee754_powf+0x124>
  b51358:	00800044 	movi	r2,1
  b5135c:	b8bfd31e 	bne	r23,r2,b512ac <__ieee754_powf+0x1d8>
  b51360:	20a0003c 	xorhi	r2,r4,32768
  b51364:	1039883a 	mov	fp,r2
  b51368:	003fa306 	br	b511f8 <__ieee754_powf+0x124>
  b5136c:	00934034 	movhi	r2,19712
  b51370:	14000a0e 	bge	r2,r16,b5139c <__ieee754_powf+0x2c8>
  b51374:	008fe034 	movhi	r2,16256
  b51378:	10bffdc4 	addi	r2,r2,-9
  b5137c:	1441b016 	blt	r2,r17,b51a40 <__ieee754_powf+0x96c>
  b51380:	903fbe0e 	bge	r18,zero,b5127c <__ieee754_powf+0x1a8>
  b51384:	011c52b4 	movhi	r4,29002
  b51388:	213cb284 	addi	r4,r4,-3382
  b5138c:	200b883a 	mov	r5,r4
  b51390:	0b523d40 	call	b523d4 <__mulsf3>
  b51394:	1039883a 	mov	fp,r2
  b51398:	003f9706 	br	b511f8 <__ieee754_powf+0x124>
  b5139c:	00802034 	movhi	r2,128
  b513a0:	10bfffc4 	addi	r2,r2,-1
  b513a4:	1441a10e 	bge	r2,r17,b51a2c <__ieee754_powf+0x958>
  b513a8:	0009883a 	mov	r4,zero
  b513ac:	8805d5fa 	srai	r2,r17,23
  b513b0:	00c02034 	movhi	r3,128
  b513b4:	18ffffc4 	addi	r3,r3,-1
  b513b8:	88c6703a 	and	r3,r17,r3
  b513bc:	2089883a 	add	r4,r4,r2
  b513c0:	20bfe044 	addi	r2,r4,-127
  b513c4:	d8800015 	stw	r2,0(sp)
  b513c8:	00800774 	movhi	r2,29
  b513cc:	10b11c44 	addi	r2,r2,-15247
  b513d0:	1c0fe034 	orhi	r16,r3,16256
  b513d4:	10c1790e 	bge	r2,r3,b519bc <__ieee754_powf+0x8e8>
  b513d8:	008017b4 	movhi	r2,94
  b513dc:	10acf584 	addi	r2,r2,-19498
  b513e0:	10c17216 	blt	r2,r3,b519ac <__ieee754_powf+0x8d8>
  b513e4:	00800934 	movhi	r2,36
  b513e8:	05000044 	movi	r20,1
  b513ec:	d8800115 	stw	r2,4(sp)
  b513f0:	a529883a 	add	r20,r20,r20
  b513f4:	a529883a 	add	r20,r20,r20
  b513f8:	d0a00104 	addi	r2,gp,-32764
  b513fc:	a085883a 	add	r2,r20,r2
  b51400:	14800017 	ldw	r18,0(r2)
  b51404:	8009883a 	mov	r4,r16
  b51408:	8023d07a 	srai	r17,r16,1
  b5140c:	900b883a 	mov	r5,r18
  b51410:	0b523000 	call	b52300 <__subsf3>
  b51414:	8009883a 	mov	r4,r16
  b51418:	900b883a 	mov	r5,r18
  b5141c:	1027883a 	mov	r19,r2
  b51420:	0b523700 	call	b52370 <__addsf3>
  b51424:	100b883a 	mov	r5,r2
  b51428:	010fe034 	movhi	r4,16256
  b5142c:	0b525b40 	call	b525b4 <__divsf3>
  b51430:	100b883a 	mov	r5,r2
  b51434:	9809883a 	mov	r4,r19
  b51438:	102b883a 	mov	r21,r2
  b5143c:	0b523d40 	call	b523d4 <__mulsf3>
  b51440:	d8800315 	stw	r2,12(sp)
  b51444:	d8c00317 	ldw	r3,12(sp)
  b51448:	00bc0004 	movi	r2,-4096
  b5144c:	8c480034 	orhi	r17,r17,8192
  b51450:	10ec703a 	and	r22,r2,r3
  b51454:	d8800117 	ldw	r2,4(sp)
  b51458:	b009883a 	mov	r4,r22
  b5145c:	88a3883a 	add	r17,r17,r2
  b51460:	880b883a 	mov	r5,r17
  b51464:	0b523d40 	call	b523d4 <__mulsf3>
  b51468:	100b883a 	mov	r5,r2
  b5146c:	9809883a 	mov	r4,r19
  b51470:	0b523000 	call	b52300 <__subsf3>
  b51474:	8809883a 	mov	r4,r17
  b51478:	900b883a 	mov	r5,r18
  b5147c:	1027883a 	mov	r19,r2
  b51480:	0b523000 	call	b52300 <__subsf3>
  b51484:	100b883a 	mov	r5,r2
  b51488:	8009883a 	mov	r4,r16
  b5148c:	0b523000 	call	b52300 <__subsf3>
  b51490:	100b883a 	mov	r5,r2
  b51494:	b009883a 	mov	r4,r22
  b51498:	0b523d40 	call	b523d4 <__mulsf3>
  b5149c:	100b883a 	mov	r5,r2
  b514a0:	9809883a 	mov	r4,r19
  b514a4:	0b523000 	call	b52300 <__subsf3>
  b514a8:	100b883a 	mov	r5,r2
  b514ac:	a809883a 	mov	r4,r21
  b514b0:	0b523d40 	call	b523d4 <__mulsf3>
  b514b4:	d9000317 	ldw	r4,12(sp)
  b514b8:	d8800415 	stw	r2,16(sp)
  b514bc:	05501034 	movhi	r21,16448
  b514c0:	200b883a 	mov	r5,r4
  b514c4:	0b523d40 	call	b523d4 <__mulsf3>
  b514c8:	1021883a 	mov	r16,r2
  b514cc:	1009883a 	mov	r4,r2
  b514d0:	100b883a 	mov	r5,r2
  b514d4:	0b523d40 	call	b523d4 <__mulsf3>
  b514d8:	8009883a 	mov	r4,r16
  b514dc:	014f9534 	movhi	r5,15956
  b514e0:	297c5084 	addi	r5,r5,-3774
  b514e4:	1023883a 	mov	r17,r2
  b514e8:	0b523d40 	call	b523d4 <__mulsf3>
  b514ec:	1009883a 	mov	r4,r2
  b514f0:	014f9b34 	movhi	r5,15980
  b514f4:	294c9544 	addi	r5,r5,12885
  b514f8:	0b523700 	call	b52370 <__addsf3>
  b514fc:	100b883a 	mov	r5,r2
  b51500:	8009883a 	mov	r4,r16
  b51504:	0b523d40 	call	b523d4 <__mulsf3>
  b51508:	1009883a 	mov	r4,r2
  b5150c:	014fa334 	movhi	r5,16012
  b51510:	2968c144 	addi	r5,r5,-23803
  b51514:	0b523700 	call	b52370 <__addsf3>
  b51518:	100b883a 	mov	r5,r2
  b5151c:	8009883a 	mov	r4,r16
  b51520:	0b523d40 	call	b523d4 <__mulsf3>
  b51524:	1009883a 	mov	r4,r2
  b51528:	014faaf4 	movhi	r5,16043
  b5152c:	296aaac4 	addi	r5,r5,-21845
  b51530:	0b523700 	call	b52370 <__addsf3>
  b51534:	100b883a 	mov	r5,r2
  b51538:	8009883a 	mov	r4,r16
  b5153c:	0b523d40 	call	b523d4 <__mulsf3>
  b51540:	1009883a 	mov	r4,r2
  b51544:	014fb6f4 	movhi	r5,16091
  b51548:	295b6dc4 	addi	r5,r5,28087
  b5154c:	0b523700 	call	b52370 <__addsf3>
  b51550:	100b883a 	mov	r5,r2
  b51554:	8009883a 	mov	r4,r16
  b51558:	0b523d40 	call	b523d4 <__mulsf3>
  b5155c:	1009883a 	mov	r4,r2
  b51560:	014fc6b4 	movhi	r5,16154
  b51564:	29666684 	addi	r5,r5,-26214
  b51568:	0b523700 	call	b52370 <__addsf3>
  b5156c:	100b883a 	mov	r5,r2
  b51570:	8809883a 	mov	r4,r17
  b51574:	0b523d40 	call	b523d4 <__mulsf3>
  b51578:	d9000317 	ldw	r4,12(sp)
  b5157c:	b00b883a 	mov	r5,r22
  b51580:	1021883a 	mov	r16,r2
  b51584:	0b523700 	call	b52370 <__addsf3>
  b51588:	d9000417 	ldw	r4,16(sp)
  b5158c:	100b883a 	mov	r5,r2
  b51590:	0b523d40 	call	b523d4 <__mulsf3>
  b51594:	100b883a 	mov	r5,r2
  b51598:	8009883a 	mov	r4,r16
  b5159c:	0b523700 	call	b52370 <__addsf3>
  b515a0:	b009883a 	mov	r4,r22
  b515a4:	b00b883a 	mov	r5,r22
  b515a8:	1025883a 	mov	r18,r2
  b515ac:	0b523d40 	call	b523d4 <__mulsf3>
  b515b0:	1009883a 	mov	r4,r2
  b515b4:	a80b883a 	mov	r5,r21
  b515b8:	1027883a 	mov	r19,r2
  b515bc:	0b523700 	call	b52370 <__addsf3>
  b515c0:	100b883a 	mov	r5,r2
  b515c4:	9009883a 	mov	r4,r18
  b515c8:	0b523700 	call	b52370 <__addsf3>
  b515cc:	00fc0004 	movi	r3,-4096
  b515d0:	10e2703a 	and	r17,r2,r3
  b515d4:	880b883a 	mov	r5,r17
  b515d8:	b009883a 	mov	r4,r22
  b515dc:	0b523d40 	call	b523d4 <__mulsf3>
  b515e0:	d9000417 	ldw	r4,16(sp)
  b515e4:	880b883a 	mov	r5,r17
  b515e8:	d8800515 	stw	r2,20(sp)
  b515ec:	0b523d40 	call	b523d4 <__mulsf3>
  b515f0:	8809883a 	mov	r4,r17
  b515f4:	a80b883a 	mov	r5,r21
  b515f8:	1021883a 	mov	r16,r2
  b515fc:	0b523000 	call	b52300 <__subsf3>
  b51600:	1009883a 	mov	r4,r2
  b51604:	980b883a 	mov	r5,r19
  b51608:	0b523000 	call	b52300 <__subsf3>
  b5160c:	100b883a 	mov	r5,r2
  b51610:	9009883a 	mov	r4,r18
  b51614:	0b523000 	call	b52300 <__subsf3>
  b51618:	d9000317 	ldw	r4,12(sp)
  b5161c:	100b883a 	mov	r5,r2
  b51620:	0b523d40 	call	b523d4 <__mulsf3>
  b51624:	100b883a 	mov	r5,r2
  b51628:	8009883a 	mov	r4,r16
  b5162c:	0b523700 	call	b52370 <__addsf3>
  b51630:	d9000517 	ldw	r4,20(sp)
  b51634:	100b883a 	mov	r5,r2
  b51638:	1027883a 	mov	r19,r2
  b5163c:	0b523700 	call	b52370 <__addsf3>
  b51640:	00fc0004 	movi	r3,-4096
  b51644:	10e2703a 	and	r17,r2,r3
  b51648:	8809883a 	mov	r4,r17
  b5164c:	014fddb4 	movhi	r5,16246
  b51650:	294e0004 	addi	r5,r5,14336
  b51654:	0b523d40 	call	b523d4 <__mulsf3>
  b51658:	8809883a 	mov	r4,r17
  b5165c:	014da7b4 	movhi	r5,13982
  b51660:	2970e804 	addi	r5,r5,-15456
  b51664:	102b883a 	mov	r21,r2
  b51668:	0b523d40 	call	b523d4 <__mulsf3>
  b5166c:	d9400517 	ldw	r5,20(sp)
  b51670:	8809883a 	mov	r4,r17
  b51674:	1025883a 	mov	r18,r2
  b51678:	0b523000 	call	b52300 <__subsf3>
  b5167c:	100b883a 	mov	r5,r2
  b51680:	9809883a 	mov	r4,r19
  b51684:	0b523000 	call	b52300 <__subsf3>
  b51688:	1009883a 	mov	r4,r2
  b5168c:	014fddb4 	movhi	r5,16246
  b51690:	294e13c4 	addi	r5,r5,14415
  b51694:	0b523d40 	call	b523d4 <__mulsf3>
  b51698:	100b883a 	mov	r5,r2
  b5169c:	9009883a 	mov	r4,r18
  b516a0:	0b523700 	call	b52370 <__addsf3>
  b516a4:	d0e00304 	addi	r3,gp,-32756
  b516a8:	a0c7883a 	add	r3,r20,r3
  b516ac:	19400017 	ldw	r5,0(r3)
  b516b0:	1009883a 	mov	r4,r2
  b516b4:	0b523700 	call	b52370 <__addsf3>
  b516b8:	d9000017 	ldw	r4,0(sp)
  b516bc:	1023883a 	mov	r17,r2
  b516c0:	0b529080 	call	b52908 <__floatsisf>
  b516c4:	1021883a 	mov	r16,r2
  b516c8:	d0a00504 	addi	r2,gp,-32748
  b516cc:	a0a9883a 	add	r20,r20,r2
  b516d0:	a4800017 	ldw	r18,0(r20)
  b516d4:	a809883a 	mov	r4,r21
  b516d8:	880b883a 	mov	r5,r17
  b516dc:	0b523700 	call	b52370 <__addsf3>
  b516e0:	1009883a 	mov	r4,r2
  b516e4:	900b883a 	mov	r5,r18
  b516e8:	0b523700 	call	b52370 <__addsf3>
  b516ec:	100b883a 	mov	r5,r2
  b516f0:	8009883a 	mov	r4,r16
  b516f4:	0b523700 	call	b52370 <__addsf3>
  b516f8:	00fc0004 	movi	r3,-4096
  b516fc:	10c4703a 	and	r2,r2,r3
  b51700:	800b883a 	mov	r5,r16
  b51704:	1009883a 	mov	r4,r2
  b51708:	1027883a 	mov	r19,r2
  b5170c:	0b523000 	call	b52300 <__subsf3>
  b51710:	1009883a 	mov	r4,r2
  b51714:	900b883a 	mov	r5,r18
  b51718:	0b523000 	call	b52300 <__subsf3>
  b5171c:	1009883a 	mov	r4,r2
  b51720:	a80b883a 	mov	r5,r21
  b51724:	0b523000 	call	b52300 <__subsf3>
  b51728:	100b883a 	mov	r5,r2
  b5172c:	8809883a 	mov	r4,r17
  b51730:	0b523000 	call	b52300 <__subsf3>
  b51734:	1021883a 	mov	r16,r2
  b51738:	d8c00217 	ldw	r3,8(sp)
  b5173c:	b8bfffc4 	addi	r2,r23,-1
  b51740:	1884b03a 	or	r2,r3,r2
  b51744:	1000a11e 	bne	r2,zero,b519cc <__ieee754_powf+0x8f8>
  b51748:	05efe034 	movhi	r23,49024
  b5174c:	047c0004 	movi	r17,-4096
  b51750:	8f22703a 	and	r17,r17,fp
  b51754:	e009883a 	mov	r4,fp
  b51758:	880b883a 	mov	r5,r17
  b5175c:	0b523000 	call	b52300 <__subsf3>
  b51760:	100b883a 	mov	r5,r2
  b51764:	9809883a 	mov	r4,r19
  b51768:	0b523d40 	call	b523d4 <__mulsf3>
  b5176c:	8009883a 	mov	r4,r16
  b51770:	e00b883a 	mov	r5,fp
  b51774:	1025883a 	mov	r18,r2
  b51778:	0b523d40 	call	b523d4 <__mulsf3>
  b5177c:	100b883a 	mov	r5,r2
  b51780:	9009883a 	mov	r4,r18
  b51784:	0b523700 	call	b52370 <__addsf3>
  b51788:	9809883a 	mov	r4,r19
  b5178c:	880b883a 	mov	r5,r17
  b51790:	1021883a 	mov	r16,r2
  b51794:	0b523d40 	call	b523d4 <__mulsf3>
  b51798:	100b883a 	mov	r5,r2
  b5179c:	8009883a 	mov	r4,r16
  b517a0:	1027883a 	mov	r19,r2
  b517a4:	0b523700 	call	b52370 <__addsf3>
  b517a8:	1023883a 	mov	r17,r2
  b517ac:	1029883a 	mov	r20,r2
  b517b0:	00a00034 	movhi	r2,32768
  b517b4:	10bfffc4 	addi	r2,r2,-1
  b517b8:	88a4703a 	and	r18,r17,r2
  b517bc:	8039883a 	mov	fp,r16
  b517c0:	982b883a 	mov	r21,r19
  b517c4:	8807883a 	mov	r3,r17
  b517c8:	0440a30e 	bge	zero,r17,b51a58 <__ieee754_powf+0x984>
  b517cc:	0090c034 	movhi	r2,17152
  b517d0:	14808c16 	blt	r2,r18,b51a04 <__ieee754_powf+0x930>
  b517d4:	90807f26 	beq	r18,r2,b519d4 <__ieee754_powf+0x900>
  b517d8:	008fc034 	movhi	r2,16128
  b517dc:	1480a816 	blt	r2,r18,b51a80 <__ieee754_powf+0x9ac>
  b517e0:	002d883a 	mov	r22,zero
  b517e4:	0029883a 	mov	r20,zero
  b517e8:	047c0004 	movi	r17,-4096
  b517ec:	88e2703a 	and	r17,r17,r3
  b517f0:	8809883a 	mov	r4,r17
  b517f4:	014fcc74 	movhi	r5,16177
  b517f8:	295c8004 	addi	r5,r5,29184
  b517fc:	0b523d40 	call	b523d4 <__mulsf3>
  b51800:	8809883a 	mov	r4,r17
  b51804:	a80b883a 	mov	r5,r21
  b51808:	1027883a 	mov	r19,r2
  b5180c:	0b523000 	call	b52300 <__subsf3>
  b51810:	100b883a 	mov	r5,r2
  b51814:	e009883a 	mov	r4,fp
  b51818:	0b523000 	call	b52300 <__subsf3>
  b5181c:	1009883a 	mov	r4,r2
  b51820:	014fcc74 	movhi	r5,16177
  b51824:	295c8604 	addi	r5,r5,29208
  b51828:	0b523d40 	call	b523d4 <__mulsf3>
  b5182c:	8809883a 	mov	r4,r17
  b51830:	014d7034 	movhi	r5,13760
  b51834:	296fa304 	addi	r5,r5,-16756
  b51838:	1025883a 	mov	r18,r2
  b5183c:	0b523d40 	call	b523d4 <__mulsf3>
  b51840:	100b883a 	mov	r5,r2
  b51844:	9009883a 	mov	r4,r18
  b51848:	0b523700 	call	b52370 <__addsf3>
  b5184c:	100b883a 	mov	r5,r2
  b51850:	9809883a 	mov	r4,r19
  b51854:	1021883a 	mov	r16,r2
  b51858:	0b523700 	call	b52370 <__addsf3>
  b5185c:	1009883a 	mov	r4,r2
  b51860:	980b883a 	mov	r5,r19
  b51864:	1025883a 	mov	r18,r2
  b51868:	0b523000 	call	b52300 <__subsf3>
  b5186c:	100b883a 	mov	r5,r2
  b51870:	8009883a 	mov	r4,r16
  b51874:	0b523000 	call	b52300 <__subsf3>
  b51878:	9009883a 	mov	r4,r18
  b5187c:	900b883a 	mov	r5,r18
  b51880:	1027883a 	mov	r19,r2
  b51884:	0b523d40 	call	b523d4 <__mulsf3>
  b51888:	1009883a 	mov	r4,r2
  b5188c:	014cccb4 	movhi	r5,13106
  b51890:	296ed304 	addi	r5,r5,-17588
  b51894:	1021883a 	mov	r16,r2
  b51898:	0b523d40 	call	b523d4 <__mulsf3>
  b5189c:	1009883a 	mov	r4,r2
  b518a0:	014d77b4 	movhi	r5,13790
  b518a4:	297a8384 	addi	r5,r5,-5618
  b518a8:	0b523000 	call	b52300 <__subsf3>
  b518ac:	100b883a 	mov	r5,r2
  b518b0:	8009883a 	mov	r4,r16
  b518b4:	0b523d40 	call	b523d4 <__mulsf3>
  b518b8:	1009883a 	mov	r4,r2
  b518bc:	014e22f4 	movhi	r5,14475
  b518c0:	296cd544 	addi	r5,r5,-19627
  b518c4:	0b523700 	call	b52370 <__addsf3>
  b518c8:	100b883a 	mov	r5,r2
  b518cc:	8009883a 	mov	r4,r16
  b518d0:	0b523d40 	call	b523d4 <__mulsf3>
  b518d4:	1009883a 	mov	r4,r2
  b518d8:	014ecdb4 	movhi	r5,15158
  b518dc:	2942d844 	addi	r5,r5,2913
  b518e0:	0b523000 	call	b52300 <__subsf3>
  b518e4:	100b883a 	mov	r5,r2
  b518e8:	8009883a 	mov	r4,r16
  b518ec:	0b523d40 	call	b523d4 <__mulsf3>
  b518f0:	1009883a 	mov	r4,r2
  b518f4:	014f8af4 	movhi	r5,15915
  b518f8:	296aaac4 	addi	r5,r5,-21845
  b518fc:	0b523700 	call	b52370 <__addsf3>
  b51900:	100b883a 	mov	r5,r2
  b51904:	8009883a 	mov	r4,r16
  b51908:	0b523d40 	call	b523d4 <__mulsf3>
  b5190c:	100b883a 	mov	r5,r2
  b51910:	9009883a 	mov	r4,r18
  b51914:	0b523000 	call	b52300 <__subsf3>
  b51918:	1021883a 	mov	r16,r2
  b5191c:	9009883a 	mov	r4,r18
  b51920:	100b883a 	mov	r5,r2
  b51924:	0b523d40 	call	b523d4 <__mulsf3>
  b51928:	8009883a 	mov	r4,r16
  b5192c:	01500034 	movhi	r5,16384
  b51930:	1023883a 	mov	r17,r2
  b51934:	0b523000 	call	b52300 <__subsf3>
  b51938:	100b883a 	mov	r5,r2
  b5193c:	8809883a 	mov	r4,r17
  b51940:	0b525b40 	call	b525b4 <__divsf3>
  b51944:	9009883a 	mov	r4,r18
  b51948:	980b883a 	mov	r5,r19
  b5194c:	1021883a 	mov	r16,r2
  b51950:	0b523d40 	call	b523d4 <__mulsf3>
  b51954:	100b883a 	mov	r5,r2
  b51958:	9809883a 	mov	r4,r19
  b5195c:	0b523700 	call	b52370 <__addsf3>
  b51960:	100b883a 	mov	r5,r2
  b51964:	8009883a 	mov	r4,r16
  b51968:	0b523000 	call	b52300 <__subsf3>
  b5196c:	1009883a 	mov	r4,r2
  b51970:	900b883a 	mov	r5,r18
  b51974:	0b523000 	call	b52300 <__subsf3>
  b51978:	100b883a 	mov	r5,r2
  b5197c:	010fe034 	movhi	r4,16256
  b51980:	0b523000 	call	b52300 <__subsf3>
  b51984:	a087883a 	add	r3,r20,r2
  b51988:	1009883a 	mov	r4,r2
  b5198c:	1805d5fa 	srai	r2,r3,23
  b51990:	0080920e 	bge	zero,r2,b51bdc <__ieee754_powf+0xb08>
  b51994:	1805883a 	mov	r2,r3
  b51998:	1009883a 	mov	r4,r2
  b5199c:	b80b883a 	mov	r5,r23
  b519a0:	0b523d40 	call	b523d4 <__mulsf3>
  b519a4:	1039883a 	mov	fp,r2
  b519a8:	003e1306 	br	b511f8 <__ieee754_powf+0x124>
  b519ac:	00bfe034 	movhi	r2,65408
  b519b0:	213fe084 	addi	r4,r4,-126
  b519b4:	80a1883a 	add	r16,r16,r2
  b519b8:	d9000015 	stw	r4,0(sp)
  b519bc:	00c00134 	movhi	r3,4
  b519c0:	0029883a 	mov	r20,zero
  b519c4:	d8c00115 	stw	r3,4(sp)
  b519c8:	003e8906 	br	b513f0 <__ieee754_powf+0x31c>
  b519cc:	05cfe034 	movhi	r23,16256
  b519d0:	003f5e06 	br	b5174c <__ieee754_powf+0x678>
  b519d4:	8009883a 	mov	r4,r16
  b519d8:	014cce74 	movhi	r5,13113
  b519dc:	296a8f04 	addi	r5,r5,-21956
  b519e0:	0b523700 	call	b52370 <__addsf3>
  b519e4:	8809883a 	mov	r4,r17
  b519e8:	980b883a 	mov	r5,r19
  b519ec:	1021883a 	mov	r16,r2
  b519f0:	0b523000 	call	b52300 <__subsf3>
  b519f4:	100b883a 	mov	r5,r2
  b519f8:	8009883a 	mov	r4,r16
  b519fc:	0b527a00 	call	b527a0 <__gtsf2>
  b51a00:	00801f0e 	bge	zero,r2,b51a80 <__ieee754_powf+0x9ac>
  b51a04:	041c52b4 	movhi	r16,29002
  b51a08:	843cb284 	addi	r16,r16,-3382
  b51a0c:	b809883a 	mov	r4,r23
  b51a10:	800b883a 	mov	r5,r16
  b51a14:	0b523d40 	call	b523d4 <__mulsf3>
  b51a18:	1009883a 	mov	r4,r2
  b51a1c:	800b883a 	mov	r5,r16
  b51a20:	0b523d40 	call	b523d4 <__mulsf3>
  b51a24:	1039883a 	mov	fp,r2
  b51a28:	003df306 	br	b511f8 <__ieee754_powf+0x124>
  b51a2c:	0152e034 	movhi	r5,19328
  b51a30:	0b523d40 	call	b523d4 <__mulsf3>
  b51a34:	1023883a 	mov	r17,r2
  b51a38:	013ffa04 	movi	r4,-24
  b51a3c:	003e5b06 	br	b513ac <__ieee754_powf+0x2d8>
  b51a40:	008fe034 	movhi	r2,16256
  b51a44:	108001c4 	addi	r2,r2,7
  b51a48:	14402c0e 	bge	r2,r17,b51afc <__ieee754_powf+0xa28>
  b51a4c:	04be4d16 	blt	zero,r18,b51384 <__ieee754_powf+0x2b0>
  b51a50:	0039883a 	mov	fp,zero
  b51a54:	003de806 	br	b511f8 <__ieee754_powf+0x124>
  b51a58:	0090c5b4 	movhi	r2,17174
  b51a5c:	14802416 	blt	r2,r18,b51af0 <__ieee754_powf+0xa1c>
  b51a60:	90bf5d1e 	bne	r18,r2,b517d8 <__ieee754_powf+0x704>
  b51a64:	8809883a 	mov	r4,r17
  b51a68:	980b883a 	mov	r5,r19
  b51a6c:	0b523000 	call	b52300 <__subsf3>
  b51a70:	100b883a 	mov	r5,r2
  b51a74:	8009883a 	mov	r4,r16
  b51a78:	0b528900 	call	b52890 <__lesf2>
  b51a7c:	00801c0e 	bge	zero,r2,b51af0 <__ieee754_powf+0xa1c>
  b51a80:	9005d5fa 	srai	r2,r18,23
  b51a84:	01002034 	movhi	r4,128
  b51a88:	01402034 	movhi	r5,128
  b51a8c:	297fffc4 	addi	r5,r5,-1
  b51a90:	10bfe084 	addi	r2,r2,-126
  b51a94:	2089d83a 	sra	r4,r4,r2
  b51a98:	008005c4 	movi	r2,23
  b51a9c:	a109883a 	add	r4,r20,r4
  b51aa0:	2006d5fa 	srli	r3,r4,23
  b51aa4:	214c703a 	and	r6,r4,r5
  b51aa8:	31802034 	orhi	r6,r6,128
  b51aac:	18c03fcc 	andi	r3,r3,255
  b51ab0:	18ffe044 	addi	r3,r3,-127
  b51ab4:	28cbd83a 	sra	r5,r5,r3
  b51ab8:	10c5c83a 	sub	r2,r2,r3
  b51abc:	30add83a 	sra	r22,r6,r2
  b51ac0:	014a303a 	nor	r5,zero,r5
  b51ac4:	214a703a 	and	r5,r4,r5
  b51ac8:	a0004216 	blt	r20,zero,b51bd4 <__ieee754_powf+0xb00>
  b51acc:	a809883a 	mov	r4,r21
  b51ad0:	0b523000 	call	b52300 <__subsf3>
  b51ad4:	100b883a 	mov	r5,r2
  b51ad8:	e009883a 	mov	r4,fp
  b51adc:	b02895fa 	slli	r20,r22,23
  b51ae0:	102b883a 	mov	r21,r2
  b51ae4:	0b523700 	call	b52370 <__addsf3>
  b51ae8:	1007883a 	mov	r3,r2
  b51aec:	003f3e06 	br	b517e8 <__ieee754_powf+0x714>
  b51af0:	040368b4 	movhi	r16,3490
  b51af4:	84109804 	addi	r16,r16,16992
  b51af8:	003fc406 	br	b51a0c <__ieee754_powf+0x938>
  b51afc:	0b523000 	call	b52300 <__subsf3>
  b51b00:	1021883a 	mov	r16,r2
  b51b04:	1009883a 	mov	r4,r2
  b51b08:	014fee74 	movhi	r5,16313
  b51b0c:	296a8004 	addi	r5,r5,-22016
  b51b10:	0b523d40 	call	b523d4 <__mulsf3>
  b51b14:	8009883a 	mov	r4,r16
  b51b18:	014dbb74 	movhi	r5,14061
  b51b1c:	29695c04 	addi	r5,r5,-23184
  b51b20:	1023883a 	mov	r17,r2
  b51b24:	0b523d40 	call	b523d4 <__mulsf3>
  b51b28:	8009883a 	mov	r4,r16
  b51b2c:	800b883a 	mov	r5,r16
  b51b30:	1025883a 	mov	r18,r2
  b51b34:	0b523d40 	call	b523d4 <__mulsf3>
  b51b38:	8009883a 	mov	r4,r16
  b51b3c:	016fa034 	movhi	r5,48768
  b51b40:	1027883a 	mov	r19,r2
  b51b44:	0b523d40 	call	b523d4 <__mulsf3>
  b51b48:	1009883a 	mov	r4,r2
  b51b4c:	014faaf4 	movhi	r5,16043
  b51b50:	296aaac4 	addi	r5,r5,-21845
  b51b54:	0b523700 	call	b52370 <__addsf3>
  b51b58:	100b883a 	mov	r5,r2
  b51b5c:	8009883a 	mov	r4,r16
  b51b60:	0b523d40 	call	b523d4 <__mulsf3>
  b51b64:	100b883a 	mov	r5,r2
  b51b68:	010fc034 	movhi	r4,16128
  b51b6c:	0b523000 	call	b52300 <__subsf3>
  b51b70:	100b883a 	mov	r5,r2
  b51b74:	9809883a 	mov	r4,r19
  b51b78:	0b523d40 	call	b523d4 <__mulsf3>
  b51b7c:	1009883a 	mov	r4,r2
  b51b80:	016fee74 	movhi	r5,49081
  b51b84:	296a8ec4 	addi	r5,r5,-21957
  b51b88:	0b523d40 	call	b523d4 <__mulsf3>
  b51b8c:	100b883a 	mov	r5,r2
  b51b90:	9009883a 	mov	r4,r18
  b51b94:	0b523700 	call	b52370 <__addsf3>
  b51b98:	100b883a 	mov	r5,r2
  b51b9c:	8809883a 	mov	r4,r17
  b51ba0:	1021883a 	mov	r16,r2
  b51ba4:	0b523700 	call	b52370 <__addsf3>
  b51ba8:	00fc0004 	movi	r3,-4096
  b51bac:	10c4703a 	and	r2,r2,r3
  b51bb0:	1009883a 	mov	r4,r2
  b51bb4:	880b883a 	mov	r5,r17
  b51bb8:	1027883a 	mov	r19,r2
  b51bbc:	0b523000 	call	b52300 <__subsf3>
  b51bc0:	100b883a 	mov	r5,r2
  b51bc4:	8009883a 	mov	r4,r16
  b51bc8:	0b523000 	call	b52300 <__subsf3>
  b51bcc:	1021883a 	mov	r16,r2
  b51bd0:	003ed906 	br	b51738 <__ieee754_powf+0x664>
  b51bd4:	05adc83a 	sub	r22,zero,r22
  b51bd8:	003fbc06 	br	b51acc <__ieee754_powf+0x9f8>
  b51bdc:	b00b883a 	mov	r5,r22
  b51be0:	0b51fb80 	call	b51fb8 <scalbnf>
  b51be4:	003f6c06 	br	b51998 <__ieee754_powf+0x8c4>

00b51be8 <__ieee754_sqrtf>:
  b51be8:	00a00034 	movhi	r2,32768
  b51bec:	10bfffc4 	addi	r2,r2,-1
  b51bf0:	defffe04 	addi	sp,sp,-8
  b51bf4:	208c703a 	and	r6,r4,r2
  b51bf8:	00dfe034 	movhi	r3,32640
  b51bfc:	18ffffc4 	addi	r3,r3,-1
  b51c00:	dc000015 	stw	r16,0(sp)
  b51c04:	dfc00115 	stw	ra,4(sp)
  b51c08:	2021883a 	mov	r16,r4
  b51c0c:	200b883a 	mov	r5,r4
  b51c10:	19800a2e 	bgeu	r3,r6,b51c3c <__ieee754_sqrtf+0x54>
  b51c14:	0b523d40 	call	b523d4 <__mulsf3>
  b51c18:	100b883a 	mov	r5,r2
  b51c1c:	8009883a 	mov	r4,r16
  b51c20:	0b523700 	call	b52370 <__addsf3>
  b51c24:	1021883a 	mov	r16,r2
  b51c28:	8005883a 	mov	r2,r16
  b51c2c:	dfc00117 	ldw	ra,4(sp)
  b51c30:	dc000017 	ldw	r16,0(sp)
  b51c34:	dec00204 	addi	sp,sp,8
  b51c38:	f800283a 	ret
  b51c3c:	303ffa26 	beq	r6,zero,b51c28 <__ieee754_sqrtf+0x40>
  b51c40:	20003b16 	blt	r4,zero,b51d30 <__ieee754_sqrtf+0x148>
  b51c44:	00802034 	movhi	r2,128
  b51c48:	10bfffc4 	addi	r2,r2,-1
  b51c4c:	2007d5fa 	srai	r3,r4,23
  b51c50:	11800936 	bltu	r2,r6,b51c78 <__ieee754_sqrtf+0x90>
  b51c54:	2080202c 	andhi	r2,r4,128
  b51c58:	10003c1e 	bne	r2,zero,b51d4c <__ieee754_sqrtf+0x164>
  b51c5c:	0009883a 	mov	r4,zero
  b51c60:	294b883a 	add	r5,r5,r5
  b51c64:	2880202c 	andhi	r2,r5,128
  b51c68:	21000044 	addi	r4,r4,1
  b51c6c:	103ffc26 	beq	r2,zero,b51c60 <__ieee754_sqrtf+0x78>
  b51c70:	1905c83a 	sub	r2,r3,r4
  b51c74:	10c00044 	addi	r3,r2,1
  b51c78:	1a7fe044 	addi	r9,r3,-127
  b51c7c:	48c0004c 	andi	r3,r9,1
  b51c80:	00802034 	movhi	r2,128
  b51c84:	10bfffc4 	addi	r2,r2,-1
  b51c88:	2884703a 	and	r2,r5,r2
  b51c8c:	1807003a 	cmpeq	r3,r3,zero
  b51c90:	10802034 	orhi	r2,r2,128
  b51c94:	18002426 	beq	r3,zero,b51d28 <__ieee754_sqrtf+0x140>
  b51c98:	1085883a 	add	r2,r2,r2
  b51c9c:	01404034 	movhi	r5,256
  b51ca0:	000f883a 	mov	r7,zero
  b51ca4:	0007883a 	mov	r3,zero
  b51ca8:	000d883a 	mov	r6,zero
  b51cac:	02000644 	movi	r8,25
  b51cb0:	3949883a 	add	r4,r7,r5
  b51cb4:	31800044 	addi	r6,r6,1
  b51cb8:	11000316 	blt	r2,r4,b51cc8 <__ieee754_sqrtf+0xe0>
  b51cbc:	1105c83a 	sub	r2,r2,r4
  b51cc0:	1947883a 	add	r3,r3,r5
  b51cc4:	214f883a 	add	r7,r4,r5
  b51cc8:	1085883a 	add	r2,r2,r2
  b51ccc:	280ad07a 	srli	r5,r5,1
  b51cd0:	323ff71e 	bne	r6,r8,b51cb0 <__ieee754_sqrtf+0xc8>
  b51cd4:	10000b1e 	bne	r2,zero,b51d04 <__ieee754_sqrtf+0x11c>
  b51cd8:	4805d07a 	srai	r2,r9,1
  b51cdc:	1807d07a 	srai	r3,r3,1
  b51ce0:	010fc034 	movhi	r4,16128
  b51ce4:	100495fa 	slli	r2,r2,23
  b51ce8:	1907883a 	add	r3,r3,r4
  b51cec:	18a1883a 	add	r16,r3,r2
  b51cf0:	8005883a 	mov	r2,r16
  b51cf4:	dfc00117 	ldw	ra,4(sp)
  b51cf8:	dc000017 	ldw	r16,0(sp)
  b51cfc:	dec00204 	addi	sp,sp,8
  b51d00:	f800283a 	ret
  b51d04:	1880004c 	andi	r2,r3,1
  b51d08:	1887883a 	add	r3,r3,r2
  b51d0c:	4805d07a 	srai	r2,r9,1
  b51d10:	1807d07a 	srai	r3,r3,1
  b51d14:	010fc034 	movhi	r4,16128
  b51d18:	100495fa 	slli	r2,r2,23
  b51d1c:	1907883a 	add	r3,r3,r4
  b51d20:	18a1883a 	add	r16,r3,r2
  b51d24:	003ff206 	br	b51cf0 <__ieee754_sqrtf+0x108>
  b51d28:	1085883a 	add	r2,r2,r2
  b51d2c:	003fda06 	br	b51c98 <__ieee754_sqrtf+0xb0>
  b51d30:	200b883a 	mov	r5,r4
  b51d34:	0b523000 	call	b52300 <__subsf3>
  b51d38:	1009883a 	mov	r4,r2
  b51d3c:	100b883a 	mov	r5,r2
  b51d40:	0b525b40 	call	b525b4 <__divsf3>
  b51d44:	1021883a 	mov	r16,r2
  b51d48:	003fb706 	br	b51c28 <__ieee754_sqrtf+0x40>
  b51d4c:	0009883a 	mov	r4,zero
  b51d50:	003fc706 	br	b51c70 <__ieee754_sqrtf+0x88>

00b51d54 <matherr>:
  b51d54:	0005883a 	mov	r2,zero
  b51d58:	f800283a 	ret

00b51d5c <rint>:
  b51d5c:	2015883a 	mov	r10,r4
  b51d60:	2809d53a 	srai	r4,r5,20
  b51d64:	defff904 	addi	sp,sp,-28
  b51d68:	034004c4 	movi	r13,19
  b51d6c:	2101ffcc 	andi	r4,r4,2047
  b51d70:	227f0044 	addi	r9,r4,-1023
  b51d74:	dc800415 	stw	r18,16(sp)
  b51d78:	dfc00615 	stw	ra,24(sp)
  b51d7c:	dcc00515 	stw	r19,20(sp)
  b51d80:	dc400315 	stw	r17,12(sp)
  b51d84:	dc000215 	stw	r16,8(sp)
  b51d88:	2817883a 	mov	r11,r5
  b51d8c:	500d883a 	mov	r6,r10
  b51d90:	2824d7fa 	srli	r18,r5,31
  b51d94:	6a403016 	blt	r13,r9,b51e58 <rint+0xfc>
  b51d98:	48004916 	blt	r9,zero,b51ec0 <rint+0x164>
  b51d9c:	00800434 	movhi	r2,16
  b51da0:	10bfffc4 	addi	r2,r2,-1
  b51da4:	1247d83a 	sra	r3,r2,r9
  b51da8:	2809883a 	mov	r4,r5
  b51dac:	1944703a 	and	r2,r3,r5
  b51db0:	5084b03a 	or	r2,r10,r2
  b51db4:	10001f26 	beq	r2,zero,b51e34 <rint+0xd8>
  b51db8:	180ad07a 	srli	r5,r3,1
  b51dbc:	5944703a 	and	r2,r11,r5
  b51dc0:	5084b03a 	or	r2,r10,r2
  b51dc4:	10000626 	beq	r2,zero,b51de0 <rint+0x84>
  b51dc8:	4b406626 	beq	r9,r13,b51f64 <rint+0x208>
  b51dcc:	00c000b4 	movhi	r3,2
  b51dd0:	1a47d83a 	sra	r3,r3,r9
  b51dd4:	0144303a 	nor	r2,zero,r5
  b51dd8:	5884703a 	and	r2,r11,r2
  b51ddc:	10c8b03a 	or	r4,r2,r3
  b51de0:	900690fa 	slli	r3,r18,3
  b51de4:	00802db4 	movhi	r2,182
  b51de8:	1083f404 	addi	r2,r2,4048
  b51dec:	200f883a 	mov	r7,r4
  b51df0:	1887883a 	add	r3,r3,r2
  b51df4:	1c000017 	ldw	r16,0(r3)
  b51df8:	1c400117 	ldw	r17,4(r3)
  b51dfc:	8009883a 	mov	r4,r16
  b51e00:	880b883a 	mov	r5,r17
  b51e04:	0b52e840 	call	b52e84 <__adddf3>
  b51e08:	d8800015 	stw	r2,0(sp)
  b51e0c:	d8c00115 	stw	r3,4(sp)
  b51e10:	d8800017 	ldw	r2,0(sp)
  b51e14:	d8c00117 	ldw	r3,4(sp)
  b51e18:	880f883a 	mov	r7,r17
  b51e1c:	800d883a 	mov	r6,r16
  b51e20:	180b883a 	mov	r5,r3
  b51e24:	1009883a 	mov	r4,r2
  b51e28:	0b52e040 	call	b52e04 <__subdf3>
  b51e2c:	1015883a 	mov	r10,r2
  b51e30:	1817883a 	mov	r11,r3
  b51e34:	5005883a 	mov	r2,r10
  b51e38:	5807883a 	mov	r3,r11
  b51e3c:	dfc00617 	ldw	ra,24(sp)
  b51e40:	dcc00517 	ldw	r19,20(sp)
  b51e44:	dc800417 	ldw	r18,16(sp)
  b51e48:	dc400317 	ldw	r17,12(sp)
  b51e4c:	dc000217 	ldw	r16,8(sp)
  b51e50:	dec00704 	addi	sp,sp,28
  b51e54:	f800283a 	ret
  b51e58:	00800cc4 	movi	r2,51
  b51e5c:	12400f16 	blt	r2,r9,b51e9c <rint+0x140>
  b51e60:	213efb44 	addi	r4,r4,-1043
  b51e64:	00bfffc4 	movi	r2,-1
  b51e68:	1104d83a 	srl	r2,r2,r4
  b51e6c:	5086703a 	and	r3,r10,r2
  b51e70:	183ff026 	beq	r3,zero,b51e34 <rint+0xd8>
  b51e74:	100ad07a 	srli	r5,r2,1
  b51e78:	5144703a 	and	r2,r10,r5
  b51e7c:	10000526 	beq	r2,zero,b51e94 <rint+0x138>
  b51e80:	00d00034 	movhi	r3,16384
  b51e84:	1907d83a 	sra	r3,r3,r4
  b51e88:	0144303a 	nor	r2,zero,r5
  b51e8c:	5084703a 	and	r2,r10,r2
  b51e90:	10ccb03a 	or	r6,r2,r3
  b51e94:	5809883a 	mov	r4,r11
  b51e98:	003fd106 	br	b51de0 <rint+0x84>
  b51e9c:	00810004 	movi	r2,1024
  b51ea0:	48bfe41e 	bne	r9,r2,b51e34 <rint+0xd8>
  b51ea4:	5009883a 	mov	r4,r10
  b51ea8:	500d883a 	mov	r6,r10
  b51eac:	280f883a 	mov	r7,r5
  b51eb0:	0b52e840 	call	b52e84 <__adddf3>
  b51eb4:	1015883a 	mov	r10,r2
  b51eb8:	1817883a 	mov	r11,r3
  b51ebc:	003fdd06 	br	b51e34 <rint+0xd8>
  b51ec0:	04e00034 	movhi	r19,32768
  b51ec4:	9cffffc4 	addi	r19,r19,-1
  b51ec8:	2cc4703a 	and	r2,r5,r19
  b51ecc:	5084b03a 	or	r2,r10,r2
  b51ed0:	103fd826 	beq	r2,zero,b51e34 <rint+0xd8>
  b51ed4:	00c00434 	movhi	r3,16
  b51ed8:	18ffffc4 	addi	r3,r3,-1
  b51edc:	28c6703a 	and	r3,r5,r3
  b51ee0:	50c6b03a 	or	r3,r10,r3
  b51ee4:	00cdc83a 	sub	r6,zero,r3
  b51ee8:	900a90fa 	slli	r5,r18,3
  b51eec:	1986b03a 	or	r3,r3,r6
  b51ef0:	01002db4 	movhi	r4,182
  b51ef4:	2103f404 	addi	r4,r4,4048
  b51ef8:	1806d33a 	srli	r3,r3,12
  b51efc:	290b883a 	add	r5,r5,r4
  b51f00:	2c000017 	ldw	r16,0(r5)
  b51f04:	2c400117 	ldw	r17,4(r5)
  b51f08:	593fffac 	andhi	r4,r11,65534
  b51f0c:	18c0022c 	andhi	r3,r3,8
  b51f10:	1906b03a 	or	r3,r3,r4
  b51f14:	500d883a 	mov	r6,r10
  b51f18:	180f883a 	mov	r7,r3
  b51f1c:	8009883a 	mov	r4,r16
  b51f20:	880b883a 	mov	r5,r17
  b51f24:	0b52e840 	call	b52e84 <__adddf3>
  b51f28:	d8800015 	stw	r2,0(sp)
  b51f2c:	d8c00115 	stw	r3,4(sp)
  b51f30:	d8800017 	ldw	r2,0(sp)
  b51f34:	d8c00117 	ldw	r3,4(sp)
  b51f38:	880f883a 	mov	r7,r17
  b51f3c:	800d883a 	mov	r6,r16
  b51f40:	180b883a 	mov	r5,r3
  b51f44:	1009883a 	mov	r4,r2
  b51f48:	0b52e040 	call	b52e04 <__subdf3>
  b51f4c:	901297fa 	slli	r9,r18,31
  b51f50:	98d0703a 	and	r8,r19,r3
  b51f54:	1015883a 	mov	r10,r2
  b51f58:	4250b03a 	or	r8,r8,r9
  b51f5c:	4017883a 	mov	r11,r8
  b51f60:	003fb406 	br	b51e34 <rint+0xd8>
  b51f64:	01900034 	movhi	r6,16384
  b51f68:	003f9d06 	br	b51de0 <rint+0x84>

00b51f6c <fabsf>:
  b51f6c:	00a00034 	movhi	r2,32768
  b51f70:	10bfffc4 	addi	r2,r2,-1
  b51f74:	2084703a 	and	r2,r4,r2
  b51f78:	f800283a 	ret

00b51f7c <finitef>:
  b51f7c:	00a00034 	movhi	r2,32768
  b51f80:	10bfffc4 	addi	r2,r2,-1
  b51f84:	2088703a 	and	r4,r4,r2
  b51f88:	009fe034 	movhi	r2,32640
  b51f8c:	10bfffc4 	addi	r2,r2,-1
  b51f90:	1104403a 	cmpge	r2,r2,r4
  b51f94:	f800283a 	ret

00b51f98 <isnanf>:
  b51f98:	00a00034 	movhi	r2,32768
  b51f9c:	10bfffc4 	addi	r2,r2,-1
  b51fa0:	2088703a 	and	r4,r4,r2
  b51fa4:	009fe034 	movhi	r2,32640
  b51fa8:	1104803a 	cmplt	r2,r2,r4
  b51fac:	f800283a 	ret

00b51fb0 <nanf>:
  b51fb0:	009ff034 	movhi	r2,32704
  b51fb4:	f800283a 	ret

00b51fb8 <scalbnf>:
  b51fb8:	00a00034 	movhi	r2,32768
  b51fbc:	10bfffc4 	addi	r2,r2,-1
  b51fc0:	defffe04 	addi	sp,sp,-8
  b51fc4:	2086703a 	and	r3,r4,r2
  b51fc8:	dc000015 	stw	r16,0(sp)
  b51fcc:	dfc00115 	stw	ra,4(sp)
  b51fd0:	200d883a 	mov	r6,r4
  b51fd4:	200f883a 	mov	r7,r4
  b51fd8:	2821883a 	mov	r16,r5
  b51fdc:	18001a26 	beq	r3,zero,b52048 <scalbnf+0x90>
  b51fe0:	009fe034 	movhi	r2,32640
  b51fe4:	10bfffc4 	addi	r2,r2,-1
  b51fe8:	10c01c36 	bltu	r2,r3,b5205c <scalbnf+0xa4>
  b51fec:	00802034 	movhi	r2,128
  b51ff0:	10bfffc4 	addi	r2,r2,-1
  b51ff4:	10c02136 	bltu	r2,r3,b5207c <scalbnf+0xc4>
  b51ff8:	01530034 	movhi	r5,19456
  b51ffc:	0b523d40 	call	b523d4 <__mulsf3>
  b52000:	1009883a 	mov	r4,r2
  b52004:	100d883a 	mov	r6,r2
  b52008:	00bffff4 	movhi	r2,65535
  b5200c:	108f2c04 	addi	r2,r2,15536
  b52010:	80802616 	blt	r16,r2,b520ac <scalbnf+0xf4>
  b52014:	209fe02c 	andhi	r2,r4,32640
  b52018:	1005d5fa 	srai	r2,r2,23
  b5201c:	200f883a 	mov	r7,r4
  b52020:	10bff9c4 	addi	r2,r2,-25
  b52024:	1407883a 	add	r3,r2,r16
  b52028:	00803f84 	movi	r2,254
  b5202c:	10c01516 	blt	r2,r3,b52084 <scalbnf+0xcc>
  b52030:	00c0230e 	bge	zero,r3,b520c0 <scalbnf+0x108>
  b52034:	180695fa 	slli	r3,r3,23
  b52038:	00a02034 	movhi	r2,32896
  b5203c:	10bfffc4 	addi	r2,r2,-1
  b52040:	3884703a 	and	r2,r7,r2
  b52044:	10ccb03a 	or	r6,r2,r3
  b52048:	3005883a 	mov	r2,r6
  b5204c:	dfc00117 	ldw	ra,4(sp)
  b52050:	dc000017 	ldw	r16,0(sp)
  b52054:	dec00204 	addi	sp,sp,8
  b52058:	f800283a 	ret
  b5205c:	200b883a 	mov	r5,r4
  b52060:	0b523700 	call	b52370 <__addsf3>
  b52064:	100d883a 	mov	r6,r2
  b52068:	3005883a 	mov	r2,r6
  b5206c:	dfc00117 	ldw	ra,4(sp)
  b52070:	dc000017 	ldw	r16,0(sp)
  b52074:	dec00204 	addi	sp,sp,8
  b52078:	f800283a 	ret
  b5207c:	1804d5fa 	srli	r2,r3,23
  b52080:	003fe806 	br	b52024 <scalbnf+0x6c>
  b52084:	041c52b4 	movhi	r16,29002
  b52088:	843cb284 	addi	r16,r16,-3382
  b5208c:	300b883a 	mov	r5,r6
  b52090:	8009883a 	mov	r4,r16
  b52094:	0b521040 	call	b52104 <copysignf>
  b52098:	1009883a 	mov	r4,r2
  b5209c:	800b883a 	mov	r5,r16
  b520a0:	0b523d40 	call	b523d4 <__mulsf3>
  b520a4:	100d883a 	mov	r6,r2
  b520a8:	003fe706 	br	b52048 <scalbnf+0x90>
  b520ac:	014368b4 	movhi	r5,3490
  b520b0:	29509804 	addi	r5,r5,16992
  b520b4:	0b523d40 	call	b523d4 <__mulsf3>
  b520b8:	100d883a 	mov	r6,r2
  b520bc:	003fe206 	br	b52048 <scalbnf+0x90>
  b520c0:	00bffa84 	movi	r2,-22
  b520c4:	1880050e 	bge	r3,r2,b520dc <scalbnf+0x124>
  b520c8:	00b0d414 	movui	r2,50000
  b520cc:	143fed16 	blt	r2,r16,b52084 <scalbnf+0xcc>
  b520d0:	040368b4 	movhi	r16,3490
  b520d4:	84109804 	addi	r16,r16,16992
  b520d8:	003fec06 	br	b5208c <scalbnf+0xd4>
  b520dc:	18800644 	addi	r2,r3,25
  b520e0:	100495fa 	slli	r2,r2,23
  b520e4:	01202034 	movhi	r4,32896
  b520e8:	213fffc4 	addi	r4,r4,-1
  b520ec:	3908703a 	and	r4,r7,r4
  b520f0:	2088b03a 	or	r4,r4,r2
  b520f4:	014cc034 	movhi	r5,13056
  b520f8:	0b523d40 	call	b523d4 <__mulsf3>
  b520fc:	100d883a 	mov	r6,r2
  b52100:	003fd106 	br	b52048 <scalbnf+0x90>

00b52104 <copysignf>:
  b52104:	00a00034 	movhi	r2,32768
  b52108:	10bfffc4 	addi	r2,r2,-1
  b5210c:	2088703a 	and	r4,r4,r2
  b52110:	28a0002c 	andhi	r2,r5,32768
  b52114:	2084b03a 	or	r2,r4,r2
  b52118:	f800283a 	ret

00b5211c <_fpadd_parts>:
  b5211c:	21c00017 	ldw	r7,0(r4)
  b52120:	02000044 	movi	r8,1
  b52124:	41c0332e 	bgeu	r8,r7,b521f4 <_fpadd_parts+0xd8>
  b52128:	28800017 	ldw	r2,0(r5)
  b5212c:	4080462e 	bgeu	r8,r2,b52248 <_fpadd_parts+0x12c>
  b52130:	00c00104 	movi	r3,4
  b52134:	38c06b26 	beq	r7,r3,b522e4 <_fpadd_parts+0x1c8>
  b52138:	10c04326 	beq	r2,r3,b52248 <_fpadd_parts+0x12c>
  b5213c:	00c00084 	movi	r3,2
  b52140:	10c02e26 	beq	r2,r3,b521fc <_fpadd_parts+0xe0>
  b52144:	38c04026 	beq	r7,r3,b52248 <_fpadd_parts+0x12c>
  b52148:	22800217 	ldw	r10,8(r4)
  b5214c:	28c00217 	ldw	r3,8(r5)
  b52150:	23000317 	ldw	r12,12(r4)
  b52154:	2a400317 	ldw	r9,12(r5)
  b52158:	50cfc83a 	sub	r7,r10,r3
  b5215c:	3817883a 	mov	r11,r7
  b52160:	38004f16 	blt	r7,zero,b522a0 <_fpadd_parts+0x184>
  b52164:	008007c4 	movi	r2,31
  b52168:	11c03316 	blt	r2,r7,b52238 <_fpadd_parts+0x11c>
  b5216c:	02c0540e 	bge	zero,r11,b522c0 <_fpadd_parts+0x1a4>
  b52170:	41c4983a 	sll	r2,r8,r7
  b52174:	49c6d83a 	srl	r3,r9,r7
  b52178:	10bfffc4 	addi	r2,r2,-1
  b5217c:	4884703a 	and	r2,r9,r2
  b52180:	1004c03a 	cmpne	r2,r2,zero
  b52184:	1892b03a 	or	r9,r3,r2
  b52188:	20c00117 	ldw	r3,4(r4)
  b5218c:	28800117 	ldw	r2,4(r5)
  b52190:	18803c26 	beq	r3,r2,b52284 <_fpadd_parts+0x168>
  b52194:	18002f26 	beq	r3,zero,b52254 <_fpadd_parts+0x138>
  b52198:	4b05c83a 	sub	r2,r9,r12
  b5219c:	10004216 	blt	r2,zero,b522a8 <_fpadd_parts+0x18c>
  b521a0:	32800215 	stw	r10,8(r6)
  b521a4:	30800315 	stw	r2,12(r6)
  b521a8:	30000115 	stw	zero,4(r6)
  b521ac:	31000317 	ldw	r4,12(r6)
  b521b0:	01d00034 	movhi	r7,16384
  b521b4:	39ffff84 	addi	r7,r7,-2
  b521b8:	20bfffc4 	addi	r2,r4,-1
  b521bc:	2007883a 	mov	r3,r4
  b521c0:	38800836 	bltu	r7,r2,b521e4 <_fpadd_parts+0xc8>
  b521c4:	31400217 	ldw	r5,8(r6)
  b521c8:	18c9883a 	add	r4,r3,r3
  b521cc:	20bfffc4 	addi	r2,r4,-1
  b521d0:	297fffc4 	addi	r5,r5,-1
  b521d4:	2007883a 	mov	r3,r4
  b521d8:	38bffb2e 	bgeu	r7,r2,b521c8 <_fpadd_parts+0xac>
  b521dc:	31400215 	stw	r5,8(r6)
  b521e0:	31000315 	stw	r4,12(r6)
  b521e4:	008000c4 	movi	r2,3
  b521e8:	30800015 	stw	r2,0(r6)
  b521ec:	20001b16 	blt	r4,zero,b5225c <_fpadd_parts+0x140>
  b521f0:	3009883a 	mov	r4,r6
  b521f4:	2005883a 	mov	r2,r4
  b521f8:	f800283a 	ret
  b521fc:	38fffd1e 	bne	r7,r3,b521f4 <_fpadd_parts+0xd8>
  b52200:	31c00015 	stw	r7,0(r6)
  b52204:	20800117 	ldw	r2,4(r4)
  b52208:	30800115 	stw	r2,4(r6)
  b5220c:	20c00217 	ldw	r3,8(r4)
  b52210:	30c00215 	stw	r3,8(r6)
  b52214:	20800317 	ldw	r2,12(r4)
  b52218:	30800315 	stw	r2,12(r6)
  b5221c:	20c00117 	ldw	r3,4(r4)
  b52220:	28800117 	ldw	r2,4(r5)
  b52224:	3009883a 	mov	r4,r6
  b52228:	1886703a 	and	r3,r3,r2
  b5222c:	2005883a 	mov	r2,r4
  b52230:	30c00115 	stw	r3,4(r6)
  b52234:	f800283a 	ret
  b52238:	1a801716 	blt	r3,r10,b52298 <_fpadd_parts+0x17c>
  b5223c:	1815883a 	mov	r10,r3
  b52240:	0019883a 	mov	r12,zero
  b52244:	003fd006 	br	b52188 <_fpadd_parts+0x6c>
  b52248:	2809883a 	mov	r4,r5
  b5224c:	2005883a 	mov	r2,r4
  b52250:	f800283a 	ret
  b52254:	6245c83a 	sub	r2,r12,r9
  b52258:	003fd006 	br	b5219c <_fpadd_parts+0x80>
  b5225c:	30800217 	ldw	r2,8(r6)
  b52260:	2006d07a 	srli	r3,r4,1
  b52264:	2100004c 	andi	r4,r4,1
  b52268:	10800044 	addi	r2,r2,1
  b5226c:	1906b03a 	or	r3,r3,r4
  b52270:	3009883a 	mov	r4,r6
  b52274:	30800215 	stw	r2,8(r6)
  b52278:	2005883a 	mov	r2,r4
  b5227c:	30c00315 	stw	r3,12(r6)
  b52280:	f800283a 	ret
  b52284:	4b09883a 	add	r4,r9,r12
  b52288:	30c00115 	stw	r3,4(r6)
  b5228c:	32800215 	stw	r10,8(r6)
  b52290:	31000315 	stw	r4,12(r6)
  b52294:	003fd306 	br	b521e4 <_fpadd_parts+0xc8>
  b52298:	0013883a 	mov	r9,zero
  b5229c:	003fba06 	br	b52188 <_fpadd_parts+0x6c>
  b522a0:	01cfc83a 	sub	r7,zero,r7
  b522a4:	003faf06 	br	b52164 <_fpadd_parts+0x48>
  b522a8:	0089c83a 	sub	r4,zero,r2
  b522ac:	00800044 	movi	r2,1
  b522b0:	30800115 	stw	r2,4(r6)
  b522b4:	32800215 	stw	r10,8(r6)
  b522b8:	31000315 	stw	r4,12(r6)
  b522bc:	003fbb06 	br	b521ac <_fpadd_parts+0x90>
  b522c0:	583fb126 	beq	r11,zero,b52188 <_fpadd_parts+0x6c>
  b522c4:	41c4983a 	sll	r2,r8,r7
  b522c8:	61c6d83a 	srl	r3,r12,r7
  b522cc:	51d5883a 	add	r10,r10,r7
  b522d0:	10bfffc4 	addi	r2,r2,-1
  b522d4:	6084703a 	and	r2,r12,r2
  b522d8:	1004c03a 	cmpne	r2,r2,zero
  b522dc:	1898b03a 	or	r12,r3,r2
  b522e0:	003fa906 	br	b52188 <_fpadd_parts+0x6c>
  b522e4:	11ffc31e 	bne	r2,r7,b521f4 <_fpadd_parts+0xd8>
  b522e8:	28c00117 	ldw	r3,4(r5)
  b522ec:	20800117 	ldw	r2,4(r4)
  b522f0:	10ffc026 	beq	r2,r3,b521f4 <_fpadd_parts+0xd8>
  b522f4:	01002db4 	movhi	r4,182
  b522f8:	2103f804 	addi	r4,r4,4064
  b522fc:	003fbd06 	br	b521f4 <_fpadd_parts+0xd8>

00b52300 <__subsf3>:
  b52300:	deffef04 	addi	sp,sp,-68
  b52304:	dcc00f15 	stw	r19,60(sp)
  b52308:	dcc00204 	addi	r19,sp,8
  b5230c:	dc400e15 	stw	r17,56(sp)
  b52310:	d9000015 	stw	r4,0(sp)
  b52314:	d9400115 	stw	r5,4(sp)
  b52318:	d809883a 	mov	r4,sp
  b5231c:	980b883a 	mov	r5,r19
  b52320:	dc400604 	addi	r17,sp,24
  b52324:	dfc01015 	stw	ra,64(sp)
  b52328:	0b534fc0 	call	b534fc <__unpack_f>
  b5232c:	d9000104 	addi	r4,sp,4
  b52330:	880b883a 	mov	r5,r17
  b52334:	0b534fc0 	call	b534fc <__unpack_f>
  b52338:	d8800717 	ldw	r2,28(sp)
  b5233c:	9809883a 	mov	r4,r19
  b52340:	880b883a 	mov	r5,r17
  b52344:	d9800a04 	addi	r6,sp,40
  b52348:	1080005c 	xori	r2,r2,1
  b5234c:	d8800715 	stw	r2,28(sp)
  b52350:	0b5211c0 	call	b5211c <_fpadd_parts>
  b52354:	1009883a 	mov	r4,r2
  b52358:	0b5339c0 	call	b5339c <__pack_f>
  b5235c:	dfc01017 	ldw	ra,64(sp)
  b52360:	dcc00f17 	ldw	r19,60(sp)
  b52364:	dc400e17 	ldw	r17,56(sp)
  b52368:	dec01104 	addi	sp,sp,68
  b5236c:	f800283a 	ret

00b52370 <__addsf3>:
  b52370:	deffef04 	addi	sp,sp,-68
  b52374:	dcc00f15 	stw	r19,60(sp)
  b52378:	dcc00204 	addi	r19,sp,8
  b5237c:	dc400e15 	stw	r17,56(sp)
  b52380:	d9000015 	stw	r4,0(sp)
  b52384:	d9400115 	stw	r5,4(sp)
  b52388:	d809883a 	mov	r4,sp
  b5238c:	980b883a 	mov	r5,r19
  b52390:	dc400604 	addi	r17,sp,24
  b52394:	dfc01015 	stw	ra,64(sp)
  b52398:	0b534fc0 	call	b534fc <__unpack_f>
  b5239c:	d9000104 	addi	r4,sp,4
  b523a0:	880b883a 	mov	r5,r17
  b523a4:	0b534fc0 	call	b534fc <__unpack_f>
  b523a8:	d9800a04 	addi	r6,sp,40
  b523ac:	9809883a 	mov	r4,r19
  b523b0:	880b883a 	mov	r5,r17
  b523b4:	0b5211c0 	call	b5211c <_fpadd_parts>
  b523b8:	1009883a 	mov	r4,r2
  b523bc:	0b5339c0 	call	b5339c <__pack_f>
  b523c0:	dfc01017 	ldw	ra,64(sp)
  b523c4:	dcc00f17 	ldw	r19,60(sp)
  b523c8:	dc400e17 	ldw	r17,56(sp)
  b523cc:	dec01104 	addi	sp,sp,68
  b523d0:	f800283a 	ret

00b523d4 <__mulsf3>:
  b523d4:	deffef04 	addi	sp,sp,-68
  b523d8:	dc400f15 	stw	r17,60(sp)
  b523dc:	dc400204 	addi	r17,sp,8
  b523e0:	dc000e15 	stw	r16,56(sp)
  b523e4:	d9000015 	stw	r4,0(sp)
  b523e8:	d9400115 	stw	r5,4(sp)
  b523ec:	d809883a 	mov	r4,sp
  b523f0:	880b883a 	mov	r5,r17
  b523f4:	dc000604 	addi	r16,sp,24
  b523f8:	dfc01015 	stw	ra,64(sp)
  b523fc:	0b534fc0 	call	b534fc <__unpack_f>
  b52400:	d9000104 	addi	r4,sp,4
  b52404:	800b883a 	mov	r5,r16
  b52408:	0b534fc0 	call	b534fc <__unpack_f>
  b5240c:	d9000217 	ldw	r4,8(sp)
  b52410:	00800044 	movi	r2,1
  b52414:	01400104 	movi	r5,4
  b52418:	1100142e 	bgeu	r2,r4,b5246c <__mulsf3+0x98>
  b5241c:	d8c00617 	ldw	r3,24(sp)
  b52420:	10c0052e 	bgeu	r2,r3,b52438 <__mulsf3+0x64>
  b52424:	21400f26 	beq	r4,r5,b52464 <__mulsf3+0x90>
  b52428:	19405d26 	beq	r3,r5,b525a0 <__mulsf3+0x1cc>
  b5242c:	00800084 	movi	r2,2
  b52430:	20800e26 	beq	r4,r2,b5246c <__mulsf3+0x98>
  b52434:	1880181e 	bne	r3,r2,b52498 <__mulsf3+0xc4>
  b52438:	d8c00717 	ldw	r3,28(sp)
  b5243c:	d8800317 	ldw	r2,12(sp)
  b52440:	8009883a 	mov	r4,r16
  b52444:	10c4c03a 	cmpne	r2,r2,r3
  b52448:	d8800715 	stw	r2,28(sp)
  b5244c:	0b5339c0 	call	b5339c <__pack_f>
  b52450:	dfc01017 	ldw	ra,64(sp)
  b52454:	dc400f17 	ldw	r17,60(sp)
  b52458:	dc000e17 	ldw	r16,56(sp)
  b5245c:	dec01104 	addi	sp,sp,68
  b52460:	f800283a 	ret
  b52464:	00800084 	movi	r2,2
  b52468:	18804f26 	beq	r3,r2,b525a8 <__mulsf3+0x1d4>
  b5246c:	d8800317 	ldw	r2,12(sp)
  b52470:	d8c00717 	ldw	r3,28(sp)
  b52474:	8809883a 	mov	r4,r17
  b52478:	10c4c03a 	cmpne	r2,r2,r3
  b5247c:	d8800315 	stw	r2,12(sp)
  b52480:	0b5339c0 	call	b5339c <__pack_f>
  b52484:	dfc01017 	ldw	ra,64(sp)
  b52488:	dc400f17 	ldw	r17,60(sp)
  b5248c:	dc000e17 	ldw	r16,56(sp)
  b52490:	dec01104 	addi	sp,sp,68
  b52494:	f800283a 	ret
  b52498:	d8800517 	ldw	r2,20(sp)
  b5249c:	da000917 	ldw	r8,36(sp)
  b524a0:	0013883a 	mov	r9,zero
  b524a4:	0007883a 	mov	r3,zero
  b524a8:	480f883a 	mov	r7,r9
  b524ac:	180b883a 	mov	r5,r3
  b524b0:	400d883a 	mov	r6,r8
  b524b4:	1009883a 	mov	r4,r2
  b524b8:	0b532840 	call	b53284 <__muldi3>
  b524bc:	da800417 	ldw	r10,16(sp)
  b524c0:	d9800817 	ldw	r6,32(sp)
  b524c4:	da400317 	ldw	r9,12(sp)
  b524c8:	52800084 	addi	r10,r10,2
  b524cc:	3295883a 	add	r10,r6,r10
  b524d0:	d9800717 	ldw	r6,28(sp)
  b524d4:	180b883a 	mov	r5,r3
  b524d8:	180f883a 	mov	r7,r3
  b524dc:	4992c03a 	cmpne	r9,r9,r6
  b524e0:	da400b15 	stw	r9,44(sp)
  b524e4:	1007883a 	mov	r3,r2
  b524e8:	da800c15 	stw	r10,48(sp)
  b524ec:	2800070e 	bge	r5,zero,b5250c <__mulsf3+0x138>
  b524f0:	2880004c 	andi	r2,r5,1
  b524f4:	1005003a 	cmpeq	r2,r2,zero
  b524f8:	500d883a 	mov	r6,r10
  b524fc:	10001e26 	beq	r2,zero,b52578 <__mulsf3+0x1a4>
  b52500:	380ed07a 	srli	r7,r7,1
  b52504:	31800044 	addi	r6,r6,1
  b52508:	d9800c15 	stw	r6,48(sp)
  b5250c:	01100034 	movhi	r4,16384
  b52510:	213fffc4 	addi	r4,r4,-1
  b52514:	21c00b36 	bltu	r4,r7,b52544 <__mulsf3+0x170>
  b52518:	d8800c17 	ldw	r2,48(sp)
  b5251c:	00000206 	br	b52528 <__mulsf3+0x154>
  b52520:	18c7883a 	add	r3,r3,r3
  b52524:	21c00636 	bltu	r4,r7,b52540 <__mulsf3+0x16c>
  b52528:	10bfffc4 	addi	r2,r2,-1
  b5252c:	39cf883a 	add	r7,r7,r7
  b52530:	183ffb0e 	bge	r3,zero,b52520 <__mulsf3+0x14c>
  b52534:	39c00054 	ori	r7,r7,1
  b52538:	18c7883a 	add	r3,r3,r3
  b5253c:	21fffa2e 	bgeu	r4,r7,b52528 <__mulsf3+0x154>
  b52540:	d8800c15 	stw	r2,48(sp)
  b52544:	39001fcc 	andi	r4,r7,127
  b52548:	00801004 	movi	r2,64
  b5254c:	20800d26 	beq	r4,r2,b52584 <__mulsf3+0x1b0>
  b52550:	008000c4 	movi	r2,3
  b52554:	d9000a04 	addi	r4,sp,40
  b52558:	d9c00d15 	stw	r7,52(sp)
  b5255c:	d8800a15 	stw	r2,40(sp)
  b52560:	0b5339c0 	call	b5339c <__pack_f>
  b52564:	dfc01017 	ldw	ra,64(sp)
  b52568:	dc400f17 	ldw	r17,60(sp)
  b5256c:	dc000e17 	ldw	r16,56(sp)
  b52570:	dec01104 	addi	sp,sp,68
  b52574:	f800283a 	ret
  b52578:	1804d07a 	srli	r2,r3,1
  b5257c:	10e00034 	orhi	r3,r2,32768
  b52580:	003fdf06 	br	b52500 <__mulsf3+0x12c>
  b52584:	3880200c 	andi	r2,r7,128
  b52588:	103ff11e 	bne	r2,zero,b52550 <__mulsf3+0x17c>
  b5258c:	183ff026 	beq	r3,zero,b52550 <__mulsf3+0x17c>
  b52590:	3907883a 	add	r3,r7,r4
  b52594:	00bfe004 	movi	r2,-128
  b52598:	188e703a 	and	r7,r3,r2
  b5259c:	003fec06 	br	b52550 <__mulsf3+0x17c>
  b525a0:	00800084 	movi	r2,2
  b525a4:	20bfa41e 	bne	r4,r2,b52438 <__mulsf3+0x64>
  b525a8:	01002db4 	movhi	r4,182
  b525ac:	2103f804 	addi	r4,r4,4064
  b525b0:	003fb306 	br	b52480 <__mulsf3+0xac>

00b525b4 <__divsf3>:
  b525b4:	defff304 	addi	sp,sp,-52
  b525b8:	dc400b15 	stw	r17,44(sp)
  b525bc:	dc400204 	addi	r17,sp,8
  b525c0:	dc000a15 	stw	r16,40(sp)
  b525c4:	d9000015 	stw	r4,0(sp)
  b525c8:	d9400115 	stw	r5,4(sp)
  b525cc:	d809883a 	mov	r4,sp
  b525d0:	880b883a 	mov	r5,r17
  b525d4:	dc000604 	addi	r16,sp,24
  b525d8:	dfc00c15 	stw	ra,48(sp)
  b525dc:	0b534fc0 	call	b534fc <__unpack_f>
  b525e0:	d9000104 	addi	r4,sp,4
  b525e4:	800b883a 	mov	r5,r16
  b525e8:	0b534fc0 	call	b534fc <__unpack_f>
  b525ec:	d9000217 	ldw	r4,8(sp)
  b525f0:	00800044 	movi	r2,1
  b525f4:	01800104 	movi	r6,4
  b525f8:	11000a2e 	bgeu	r2,r4,b52624 <__divsf3+0x70>
  b525fc:	d9400617 	ldw	r5,24(sp)
  b52600:	1140432e 	bgeu	r2,r5,b52710 <__divsf3+0x15c>
  b52604:	d8800317 	ldw	r2,12(sp)
  b52608:	d8c00717 	ldw	r3,28(sp)
  b5260c:	10c4f03a 	xor	r2,r2,r3
  b52610:	d8800315 	stw	r2,12(sp)
  b52614:	21800226 	beq	r4,r6,b52620 <__divsf3+0x6c>
  b52618:	00800084 	movi	r2,2
  b5261c:	2080101e 	bne	r4,r2,b52660 <__divsf3+0xac>
  b52620:	29000726 	beq	r5,r4,b52640 <__divsf3+0x8c>
  b52624:	8809883a 	mov	r4,r17
  b52628:	0b5339c0 	call	b5339c <__pack_f>
  b5262c:	dfc00c17 	ldw	ra,48(sp)
  b52630:	dc400b17 	ldw	r17,44(sp)
  b52634:	dc000a17 	ldw	r16,40(sp)
  b52638:	dec00d04 	addi	sp,sp,52
  b5263c:	f800283a 	ret
  b52640:	01002db4 	movhi	r4,182
  b52644:	2103f804 	addi	r4,r4,4064
  b52648:	0b5339c0 	call	b5339c <__pack_f>
  b5264c:	dfc00c17 	ldw	ra,48(sp)
  b52650:	dc400b17 	ldw	r17,44(sp)
  b52654:	dc000a17 	ldw	r16,40(sp)
  b52658:	dec00d04 	addi	sp,sp,52
  b5265c:	f800283a 	ret
  b52660:	29802d26 	beq	r5,r6,b52718 <__divsf3+0x164>
  b52664:	28801a26 	beq	r5,r2,b526d0 <__divsf3+0x11c>
  b52668:	d8c00417 	ldw	r3,16(sp)
  b5266c:	d8800817 	ldw	r2,32(sp)
  b52670:	d9000517 	ldw	r4,20(sp)
  b52674:	d9800917 	ldw	r6,36(sp)
  b52678:	1885c83a 	sub	r2,r3,r2
  b5267c:	d8800415 	stw	r2,16(sp)
  b52680:	2180032e 	bgeu	r4,r6,b52690 <__divsf3+0xdc>
  b52684:	10bfffc4 	addi	r2,r2,-1
  b52688:	d8800415 	stw	r2,16(sp)
  b5268c:	2109883a 	add	r4,r4,r4
  b52690:	01500034 	movhi	r5,16384
  b52694:	0007883a 	mov	r3,zero
  b52698:	0005883a 	mov	r2,zero
  b5269c:	01c007c4 	movi	r7,31
  b526a0:	10800044 	addi	r2,r2,1
  b526a4:	21800236 	bltu	r4,r6,b526b0 <__divsf3+0xfc>
  b526a8:	1946b03a 	or	r3,r3,r5
  b526ac:	2189c83a 	sub	r4,r4,r6
  b526b0:	280ad07a 	srli	r5,r5,1
  b526b4:	2109883a 	add	r4,r4,r4
  b526b8:	11fff91e 	bne	r2,r7,b526a0 <__divsf3+0xec>
  b526bc:	19401fcc 	andi	r5,r3,127
  b526c0:	00801004 	movi	r2,64
  b526c4:	28800a26 	beq	r5,r2,b526f0 <__divsf3+0x13c>
  b526c8:	d8c00515 	stw	r3,20(sp)
  b526cc:	003fd506 	br	b52624 <__divsf3+0x70>
  b526d0:	8809883a 	mov	r4,r17
  b526d4:	d9800215 	stw	r6,8(sp)
  b526d8:	0b5339c0 	call	b5339c <__pack_f>
  b526dc:	dfc00c17 	ldw	ra,48(sp)
  b526e0:	dc400b17 	ldw	r17,44(sp)
  b526e4:	dc000a17 	ldw	r16,40(sp)
  b526e8:	dec00d04 	addi	sp,sp,52
  b526ec:	f800283a 	ret
  b526f0:	1880200c 	andi	r2,r3,128
  b526f4:	103ff41e 	bne	r2,zero,b526c8 <__divsf3+0x114>
  b526f8:	203ff326 	beq	r4,zero,b526c8 <__divsf3+0x114>
  b526fc:	1947883a 	add	r3,r3,r5
  b52700:	00bfe004 	movi	r2,-128
  b52704:	1886703a 	and	r3,r3,r2
  b52708:	d8c00515 	stw	r3,20(sp)
  b5270c:	003fc506 	br	b52624 <__divsf3+0x70>
  b52710:	8009883a 	mov	r4,r16
  b52714:	003fc406 	br	b52628 <__divsf3+0x74>
  b52718:	8809883a 	mov	r4,r17
  b5271c:	d8000515 	stw	zero,20(sp)
  b52720:	d8000415 	stw	zero,16(sp)
  b52724:	003fc006 	br	b52628 <__divsf3+0x74>

00b52728 <__eqsf2>:
  b52728:	defff304 	addi	sp,sp,-52
  b5272c:	dc400b15 	stw	r17,44(sp)
  b52730:	dc400204 	addi	r17,sp,8
  b52734:	dc000a15 	stw	r16,40(sp)
  b52738:	d9000015 	stw	r4,0(sp)
  b5273c:	d9400115 	stw	r5,4(sp)
  b52740:	d809883a 	mov	r4,sp
  b52744:	880b883a 	mov	r5,r17
  b52748:	dc000604 	addi	r16,sp,24
  b5274c:	dfc00c15 	stw	ra,48(sp)
  b52750:	0b534fc0 	call	b534fc <__unpack_f>
  b52754:	d9000104 	addi	r4,sp,4
  b52758:	800b883a 	mov	r5,r16
  b5275c:	0b534fc0 	call	b534fc <__unpack_f>
  b52760:	d8800217 	ldw	r2,8(sp)
  b52764:	00c00044 	movi	r3,1
  b52768:	180d883a 	mov	r6,r3
  b5276c:	1880062e 	bgeu	r3,r2,b52788 <__eqsf2+0x60>
  b52770:	d8800617 	ldw	r2,24(sp)
  b52774:	8809883a 	mov	r4,r17
  b52778:	800b883a 	mov	r5,r16
  b5277c:	1880022e 	bgeu	r3,r2,b52788 <__eqsf2+0x60>
  b52780:	0b535c40 	call	b535c4 <__fpcmp_parts_f>
  b52784:	100d883a 	mov	r6,r2
  b52788:	3005883a 	mov	r2,r6
  b5278c:	dfc00c17 	ldw	ra,48(sp)
  b52790:	dc400b17 	ldw	r17,44(sp)
  b52794:	dc000a17 	ldw	r16,40(sp)
  b52798:	dec00d04 	addi	sp,sp,52
  b5279c:	f800283a 	ret

00b527a0 <__gtsf2>:
  b527a0:	defff304 	addi	sp,sp,-52
  b527a4:	dc400b15 	stw	r17,44(sp)
  b527a8:	dc400204 	addi	r17,sp,8
  b527ac:	dc000a15 	stw	r16,40(sp)
  b527b0:	d9000015 	stw	r4,0(sp)
  b527b4:	d9400115 	stw	r5,4(sp)
  b527b8:	d809883a 	mov	r4,sp
  b527bc:	880b883a 	mov	r5,r17
  b527c0:	dc000604 	addi	r16,sp,24
  b527c4:	dfc00c15 	stw	ra,48(sp)
  b527c8:	0b534fc0 	call	b534fc <__unpack_f>
  b527cc:	d9000104 	addi	r4,sp,4
  b527d0:	800b883a 	mov	r5,r16
  b527d4:	0b534fc0 	call	b534fc <__unpack_f>
  b527d8:	d8800217 	ldw	r2,8(sp)
  b527dc:	00c00044 	movi	r3,1
  b527e0:	01bfffc4 	movi	r6,-1
  b527e4:	1880062e 	bgeu	r3,r2,b52800 <__gtsf2+0x60>
  b527e8:	d8800617 	ldw	r2,24(sp)
  b527ec:	8809883a 	mov	r4,r17
  b527f0:	800b883a 	mov	r5,r16
  b527f4:	1880022e 	bgeu	r3,r2,b52800 <__gtsf2+0x60>
  b527f8:	0b535c40 	call	b535c4 <__fpcmp_parts_f>
  b527fc:	100d883a 	mov	r6,r2
  b52800:	3005883a 	mov	r2,r6
  b52804:	dfc00c17 	ldw	ra,48(sp)
  b52808:	dc400b17 	ldw	r17,44(sp)
  b5280c:	dc000a17 	ldw	r16,40(sp)
  b52810:	dec00d04 	addi	sp,sp,52
  b52814:	f800283a 	ret

00b52818 <__ltsf2>:
  b52818:	defff304 	addi	sp,sp,-52
  b5281c:	dc400b15 	stw	r17,44(sp)
  b52820:	dc400204 	addi	r17,sp,8
  b52824:	dc000a15 	stw	r16,40(sp)
  b52828:	d9000015 	stw	r4,0(sp)
  b5282c:	d9400115 	stw	r5,4(sp)
  b52830:	d809883a 	mov	r4,sp
  b52834:	880b883a 	mov	r5,r17
  b52838:	dc000604 	addi	r16,sp,24
  b5283c:	dfc00c15 	stw	ra,48(sp)
  b52840:	0b534fc0 	call	b534fc <__unpack_f>
  b52844:	d9000104 	addi	r4,sp,4
  b52848:	800b883a 	mov	r5,r16
  b5284c:	0b534fc0 	call	b534fc <__unpack_f>
  b52850:	d8800217 	ldw	r2,8(sp)
  b52854:	00c00044 	movi	r3,1
  b52858:	180d883a 	mov	r6,r3
  b5285c:	1880062e 	bgeu	r3,r2,b52878 <__ltsf2+0x60>
  b52860:	d8800617 	ldw	r2,24(sp)
  b52864:	8809883a 	mov	r4,r17
  b52868:	800b883a 	mov	r5,r16
  b5286c:	1880022e 	bgeu	r3,r2,b52878 <__ltsf2+0x60>
  b52870:	0b535c40 	call	b535c4 <__fpcmp_parts_f>
  b52874:	100d883a 	mov	r6,r2
  b52878:	3005883a 	mov	r2,r6
  b5287c:	dfc00c17 	ldw	ra,48(sp)
  b52880:	dc400b17 	ldw	r17,44(sp)
  b52884:	dc000a17 	ldw	r16,40(sp)
  b52888:	dec00d04 	addi	sp,sp,52
  b5288c:	f800283a 	ret

00b52890 <__lesf2>:
  b52890:	defff304 	addi	sp,sp,-52
  b52894:	dc400b15 	stw	r17,44(sp)
  b52898:	dc400204 	addi	r17,sp,8
  b5289c:	dc000a15 	stw	r16,40(sp)
  b528a0:	d9000015 	stw	r4,0(sp)
  b528a4:	d9400115 	stw	r5,4(sp)
  b528a8:	d809883a 	mov	r4,sp
  b528ac:	880b883a 	mov	r5,r17
  b528b0:	dc000604 	addi	r16,sp,24
  b528b4:	dfc00c15 	stw	ra,48(sp)
  b528b8:	0b534fc0 	call	b534fc <__unpack_f>
  b528bc:	d9000104 	addi	r4,sp,4
  b528c0:	800b883a 	mov	r5,r16
  b528c4:	0b534fc0 	call	b534fc <__unpack_f>
  b528c8:	d8800217 	ldw	r2,8(sp)
  b528cc:	00c00044 	movi	r3,1
  b528d0:	180d883a 	mov	r6,r3
  b528d4:	1880062e 	bgeu	r3,r2,b528f0 <__lesf2+0x60>
  b528d8:	d8800617 	ldw	r2,24(sp)
  b528dc:	8809883a 	mov	r4,r17
  b528e0:	800b883a 	mov	r5,r16
  b528e4:	1880022e 	bgeu	r3,r2,b528f0 <__lesf2+0x60>
  b528e8:	0b535c40 	call	b535c4 <__fpcmp_parts_f>
  b528ec:	100d883a 	mov	r6,r2
  b528f0:	3005883a 	mov	r2,r6
  b528f4:	dfc00c17 	ldw	ra,48(sp)
  b528f8:	dc400b17 	ldw	r17,44(sp)
  b528fc:	dc000a17 	ldw	r16,40(sp)
  b52900:	dec00d04 	addi	sp,sp,52
  b52904:	f800283a 	ret

00b52908 <__floatsisf>:
  b52908:	2006d7fa 	srli	r3,r4,31
  b5290c:	defffa04 	addi	sp,sp,-24
  b52910:	008000c4 	movi	r2,3
  b52914:	dfc00515 	stw	ra,20(sp)
  b52918:	dc000415 	stw	r16,16(sp)
  b5291c:	d8800015 	stw	r2,0(sp)
  b52920:	d8c00115 	stw	r3,4(sp)
  b52924:	2000081e 	bne	r4,zero,b52948 <__floatsisf+0x40>
  b52928:	00800084 	movi	r2,2
  b5292c:	d8800015 	stw	r2,0(sp)
  b52930:	d809883a 	mov	r4,sp
  b52934:	0b5339c0 	call	b5339c <__pack_f>
  b52938:	dfc00517 	ldw	ra,20(sp)
  b5293c:	dc000417 	ldw	r16,16(sp)
  b52940:	dec00604 	addi	sp,sp,24
  b52944:	f800283a 	ret
  b52948:	00800784 	movi	r2,30
  b5294c:	1807003a 	cmpeq	r3,r3,zero
  b52950:	d8800215 	stw	r2,8(sp)
  b52954:	18000e1e 	bne	r3,zero,b52990 <__floatsisf+0x88>
  b52958:	00a00034 	movhi	r2,32768
  b5295c:	20800e26 	beq	r4,r2,b52998 <__floatsisf+0x90>
  b52960:	0121c83a 	sub	r16,zero,r4
  b52964:	8009883a 	mov	r4,r16
  b52968:	dc000315 	stw	r16,12(sp)
  b5296c:	0b5331c0 	call	b5331c <__clzsi2>
  b52970:	117fffc4 	addi	r5,r2,-1
  b52974:	017fee0e 	bge	zero,r5,b52930 <__floatsisf+0x28>
  b52978:	d8800217 	ldw	r2,8(sp)
  b5297c:	8146983a 	sll	r3,r16,r5
  b52980:	1145c83a 	sub	r2,r2,r5
  b52984:	d8c00315 	stw	r3,12(sp)
  b52988:	d8800215 	stw	r2,8(sp)
  b5298c:	003fe806 	br	b52930 <__floatsisf+0x28>
  b52990:	2021883a 	mov	r16,r4
  b52994:	003ff306 	br	b52964 <__floatsisf+0x5c>
  b52998:	00b3c034 	movhi	r2,52992
  b5299c:	003fe606 	br	b52938 <__floatsisf+0x30>

00b529a0 <__extendsfdf2>:
  b529a0:	defff904 	addi	sp,sp,-28
  b529a4:	d9000115 	stw	r4,4(sp)
  b529a8:	d9400204 	addi	r5,sp,8
  b529ac:	d9000104 	addi	r4,sp,4
  b529b0:	dfc00615 	stw	ra,24(sp)
  b529b4:	0b534fc0 	call	b534fc <__unpack_f>
  b529b8:	d9c00517 	ldw	r7,20(sp)
  b529bc:	0011883a 	mov	r8,zero
  b529c0:	400697ba 	slli	r3,r8,30
  b529c4:	3812d0ba 	srli	r9,r7,2
  b529c8:	380497ba 	slli	r2,r7,30
  b529cc:	d9000217 	ldw	r4,8(sp)
  b529d0:	d9400317 	ldw	r5,12(sp)
  b529d4:	d9800417 	ldw	r6,16(sp)
  b529d8:	48c6b03a 	or	r3,r9,r3
  b529dc:	100f883a 	mov	r7,r2
  b529e0:	d8c00015 	stw	r3,0(sp)
  b529e4:	0b531d80 	call	b531d8 <__make_dp>
  b529e8:	dfc00617 	ldw	ra,24(sp)
  b529ec:	dec00704 	addi	sp,sp,28
  b529f0:	f800283a 	ret

00b529f4 <_fpadd_parts>:
  b529f4:	defff804 	addi	sp,sp,-32
  b529f8:	dcc00315 	stw	r19,12(sp)
  b529fc:	2027883a 	mov	r19,r4
  b52a00:	21000017 	ldw	r4,0(r4)
  b52a04:	00c00044 	movi	r3,1
  b52a08:	dd400515 	stw	r21,20(sp)
  b52a0c:	dd000415 	stw	r20,16(sp)
  b52a10:	ddc00715 	stw	r23,28(sp)
  b52a14:	dd800615 	stw	r22,24(sp)
  b52a18:	dc800215 	stw	r18,8(sp)
  b52a1c:	dc400115 	stw	r17,4(sp)
  b52a20:	dc000015 	stw	r16,0(sp)
  b52a24:	282b883a 	mov	r21,r5
  b52a28:	3029883a 	mov	r20,r6
  b52a2c:	1900632e 	bgeu	r3,r4,b52bbc <_fpadd_parts+0x1c8>
  b52a30:	28800017 	ldw	r2,0(r5)
  b52a34:	1880812e 	bgeu	r3,r2,b52c3c <_fpadd_parts+0x248>
  b52a38:	00c00104 	movi	r3,4
  b52a3c:	20c0dc26 	beq	r4,r3,b52db0 <_fpadd_parts+0x3bc>
  b52a40:	10c07e26 	beq	r2,r3,b52c3c <_fpadd_parts+0x248>
  b52a44:	00c00084 	movi	r3,2
  b52a48:	10c06726 	beq	r2,r3,b52be8 <_fpadd_parts+0x1f4>
  b52a4c:	20c07b26 	beq	r4,r3,b52c3c <_fpadd_parts+0x248>
  b52a50:	9dc00217 	ldw	r23,8(r19)
  b52a54:	28c00217 	ldw	r3,8(r5)
  b52a58:	9c400317 	ldw	r17,12(r19)
  b52a5c:	2bc00317 	ldw	r15,12(r5)
  b52a60:	b8cdc83a 	sub	r6,r23,r3
  b52a64:	9c800417 	ldw	r18,16(r19)
  b52a68:	2c000417 	ldw	r16,16(r5)
  b52a6c:	3009883a 	mov	r4,r6
  b52a70:	30009716 	blt	r6,zero,b52cd0 <_fpadd_parts+0x2dc>
  b52a74:	00800fc4 	movi	r2,63
  b52a78:	11806b16 	blt	r2,r6,b52c28 <_fpadd_parts+0x234>
  b52a7c:	0100a40e 	bge	zero,r4,b52d10 <_fpadd_parts+0x31c>
  b52a80:	35bff804 	addi	r22,r6,-32
  b52a84:	b000bc16 	blt	r22,zero,b52d78 <_fpadd_parts+0x384>
  b52a88:	8596d83a 	srl	r11,r16,r22
  b52a8c:	0019883a 	mov	r12,zero
  b52a90:	0013883a 	mov	r9,zero
  b52a94:	01000044 	movi	r4,1
  b52a98:	0015883a 	mov	r10,zero
  b52a9c:	b000be16 	blt	r22,zero,b52d98 <_fpadd_parts+0x3a4>
  b52aa0:	2590983a 	sll	r8,r4,r22
  b52aa4:	000f883a 	mov	r7,zero
  b52aa8:	00bfffc4 	movi	r2,-1
  b52aac:	3889883a 	add	r4,r7,r2
  b52ab0:	408b883a 	add	r5,r8,r2
  b52ab4:	21cd803a 	cmpltu	r6,r4,r7
  b52ab8:	314b883a 	add	r5,r6,r5
  b52abc:	7904703a 	and	r2,r15,r4
  b52ac0:	8146703a 	and	r3,r16,r5
  b52ac4:	10c4b03a 	or	r2,r2,r3
  b52ac8:	10000226 	beq	r2,zero,b52ad4 <_fpadd_parts+0xe0>
  b52acc:	02400044 	movi	r9,1
  b52ad0:	0015883a 	mov	r10,zero
  b52ad4:	5a5eb03a 	or	r15,r11,r9
  b52ad8:	62a0b03a 	or	r16,r12,r10
  b52adc:	99400117 	ldw	r5,4(r19)
  b52ae0:	a8800117 	ldw	r2,4(r21)
  b52ae4:	28806e26 	beq	r5,r2,b52ca0 <_fpadd_parts+0x2ac>
  b52ae8:	28006626 	beq	r5,zero,b52c84 <_fpadd_parts+0x290>
  b52aec:	7c45c83a 	sub	r2,r15,r17
  b52af0:	7889803a 	cmpltu	r4,r15,r2
  b52af4:	8487c83a 	sub	r3,r16,r18
  b52af8:	1909c83a 	sub	r4,r3,r4
  b52afc:	100d883a 	mov	r6,r2
  b52b00:	200f883a 	mov	r7,r4
  b52b04:	38007716 	blt	r7,zero,b52ce4 <_fpadd_parts+0x2f0>
  b52b08:	a5c00215 	stw	r23,8(r20)
  b52b0c:	a1c00415 	stw	r7,16(r20)
  b52b10:	a0000115 	stw	zero,4(r20)
  b52b14:	a1800315 	stw	r6,12(r20)
  b52b18:	a2000317 	ldw	r8,12(r20)
  b52b1c:	a2400417 	ldw	r9,16(r20)
  b52b20:	00bfffc4 	movi	r2,-1
  b52b24:	408b883a 	add	r5,r8,r2
  b52b28:	2a09803a 	cmpltu	r4,r5,r8
  b52b2c:	488d883a 	add	r6,r9,r2
  b52b30:	01c40034 	movhi	r7,4096
  b52b34:	39ffffc4 	addi	r7,r7,-1
  b52b38:	218d883a 	add	r6,r4,r6
  b52b3c:	39801736 	bltu	r7,r6,b52b9c <_fpadd_parts+0x1a8>
  b52b40:	31c06526 	beq	r6,r7,b52cd8 <_fpadd_parts+0x2e4>
  b52b44:	a3000217 	ldw	r12,8(r20)
  b52b48:	4209883a 	add	r4,r8,r8
  b52b4c:	00bfffc4 	movi	r2,-1
  b52b50:	220f803a 	cmpltu	r7,r4,r8
  b52b54:	4a4b883a 	add	r5,r9,r9
  b52b58:	394f883a 	add	r7,r7,r5
  b52b5c:	2095883a 	add	r10,r4,r2
  b52b60:	3897883a 	add	r11,r7,r2
  b52b64:	510d803a 	cmpltu	r6,r10,r4
  b52b68:	6099883a 	add	r12,r12,r2
  b52b6c:	32d7883a 	add	r11,r6,r11
  b52b70:	00840034 	movhi	r2,4096
  b52b74:	10bfffc4 	addi	r2,r2,-1
  b52b78:	2011883a 	mov	r8,r4
  b52b7c:	3813883a 	mov	r9,r7
  b52b80:	a1000315 	stw	r4,12(r20)
  b52b84:	a1c00415 	stw	r7,16(r20)
  b52b88:	a3000215 	stw	r12,8(r20)
  b52b8c:	12c00336 	bltu	r2,r11,b52b9c <_fpadd_parts+0x1a8>
  b52b90:	58bfed1e 	bne	r11,r2,b52b48 <_fpadd_parts+0x154>
  b52b94:	00bfff84 	movi	r2,-2
  b52b98:	12bfeb2e 	bgeu	r2,r10,b52b48 <_fpadd_parts+0x154>
  b52b9c:	a2800417 	ldw	r10,16(r20)
  b52ba0:	008000c4 	movi	r2,3
  b52ba4:	00c80034 	movhi	r3,8192
  b52ba8:	18ffffc4 	addi	r3,r3,-1
  b52bac:	a2400317 	ldw	r9,12(r20)
  b52bb0:	a0800015 	stw	r2,0(r20)
  b52bb4:	1a802336 	bltu	r3,r10,b52c44 <_fpadd_parts+0x250>
  b52bb8:	a027883a 	mov	r19,r20
  b52bbc:	9805883a 	mov	r2,r19
  b52bc0:	ddc00717 	ldw	r23,28(sp)
  b52bc4:	dd800617 	ldw	r22,24(sp)
  b52bc8:	dd400517 	ldw	r21,20(sp)
  b52bcc:	dd000417 	ldw	r20,16(sp)
  b52bd0:	dcc00317 	ldw	r19,12(sp)
  b52bd4:	dc800217 	ldw	r18,8(sp)
  b52bd8:	dc400117 	ldw	r17,4(sp)
  b52bdc:	dc000017 	ldw	r16,0(sp)
  b52be0:	dec00804 	addi	sp,sp,32
  b52be4:	f800283a 	ret
  b52be8:	20fff41e 	bne	r4,r3,b52bbc <_fpadd_parts+0x1c8>
  b52bec:	31000015 	stw	r4,0(r6)
  b52bf0:	98800117 	ldw	r2,4(r19)
  b52bf4:	30800115 	stw	r2,4(r6)
  b52bf8:	98c00217 	ldw	r3,8(r19)
  b52bfc:	30c00215 	stw	r3,8(r6)
  b52c00:	98800317 	ldw	r2,12(r19)
  b52c04:	30800315 	stw	r2,12(r6)
  b52c08:	98c00417 	ldw	r3,16(r19)
  b52c0c:	30c00415 	stw	r3,16(r6)
  b52c10:	98800117 	ldw	r2,4(r19)
  b52c14:	28c00117 	ldw	r3,4(r5)
  b52c18:	3027883a 	mov	r19,r6
  b52c1c:	10c4703a 	and	r2,r2,r3
  b52c20:	30800115 	stw	r2,4(r6)
  b52c24:	003fe506 	br	b52bbc <_fpadd_parts+0x1c8>
  b52c28:	1dc02616 	blt	r3,r23,b52cc4 <_fpadd_parts+0x2d0>
  b52c2c:	0023883a 	mov	r17,zero
  b52c30:	182f883a 	mov	r23,r3
  b52c34:	0025883a 	mov	r18,zero
  b52c38:	003fa806 	br	b52adc <_fpadd_parts+0xe8>
  b52c3c:	a827883a 	mov	r19,r21
  b52c40:	003fde06 	br	b52bbc <_fpadd_parts+0x1c8>
  b52c44:	01800044 	movi	r6,1
  b52c48:	500497fa 	slli	r2,r10,31
  b52c4c:	4808d07a 	srli	r4,r9,1
  b52c50:	518ad83a 	srl	r5,r10,r6
  b52c54:	a2000217 	ldw	r8,8(r20)
  b52c58:	1108b03a 	or	r4,r2,r4
  b52c5c:	0007883a 	mov	r3,zero
  b52c60:	4984703a 	and	r2,r9,r6
  b52c64:	208cb03a 	or	r6,r4,r2
  b52c68:	28ceb03a 	or	r7,r5,r3
  b52c6c:	42000044 	addi	r8,r8,1
  b52c70:	a027883a 	mov	r19,r20
  b52c74:	a1c00415 	stw	r7,16(r20)
  b52c78:	a2000215 	stw	r8,8(r20)
  b52c7c:	a1800315 	stw	r6,12(r20)
  b52c80:	003fce06 	br	b52bbc <_fpadd_parts+0x1c8>
  b52c84:	8bc5c83a 	sub	r2,r17,r15
  b52c88:	8889803a 	cmpltu	r4,r17,r2
  b52c8c:	9407c83a 	sub	r3,r18,r16
  b52c90:	1909c83a 	sub	r4,r3,r4
  b52c94:	100d883a 	mov	r6,r2
  b52c98:	200f883a 	mov	r7,r4
  b52c9c:	003f9906 	br	b52b04 <_fpadd_parts+0x110>
  b52ca0:	7c45883a 	add	r2,r15,r17
  b52ca4:	13c9803a 	cmpltu	r4,r2,r15
  b52ca8:	8487883a 	add	r3,r16,r18
  b52cac:	20c9883a 	add	r4,r4,r3
  b52cb0:	a1400115 	stw	r5,4(r20)
  b52cb4:	a5c00215 	stw	r23,8(r20)
  b52cb8:	a0800315 	stw	r2,12(r20)
  b52cbc:	a1000415 	stw	r4,16(r20)
  b52cc0:	003fb606 	br	b52b9c <_fpadd_parts+0x1a8>
  b52cc4:	001f883a 	mov	r15,zero
  b52cc8:	0021883a 	mov	r16,zero
  b52ccc:	003f8306 	br	b52adc <_fpadd_parts+0xe8>
  b52cd0:	018dc83a 	sub	r6,zero,r6
  b52cd4:	003f6706 	br	b52a74 <_fpadd_parts+0x80>
  b52cd8:	00bfff84 	movi	r2,-2
  b52cdc:	117faf36 	bltu	r2,r5,b52b9c <_fpadd_parts+0x1a8>
  b52ce0:	003f9806 	br	b52b44 <_fpadd_parts+0x150>
  b52ce4:	0005883a 	mov	r2,zero
  b52ce8:	1189c83a 	sub	r4,r2,r6
  b52cec:	1105803a 	cmpltu	r2,r2,r4
  b52cf0:	01cbc83a 	sub	r5,zero,r7
  b52cf4:	2885c83a 	sub	r2,r5,r2
  b52cf8:	01800044 	movi	r6,1
  b52cfc:	a1800115 	stw	r6,4(r20)
  b52d00:	a5c00215 	stw	r23,8(r20)
  b52d04:	a1000315 	stw	r4,12(r20)
  b52d08:	a0800415 	stw	r2,16(r20)
  b52d0c:	003f8206 	br	b52b18 <_fpadd_parts+0x124>
  b52d10:	203f7226 	beq	r4,zero,b52adc <_fpadd_parts+0xe8>
  b52d14:	35bff804 	addi	r22,r6,-32
  b52d18:	b9af883a 	add	r23,r23,r6
  b52d1c:	b0003116 	blt	r22,zero,b52de4 <_fpadd_parts+0x3f0>
  b52d20:	959ad83a 	srl	r13,r18,r22
  b52d24:	001d883a 	mov	r14,zero
  b52d28:	000f883a 	mov	r7,zero
  b52d2c:	01000044 	movi	r4,1
  b52d30:	0011883a 	mov	r8,zero
  b52d34:	b0002516 	blt	r22,zero,b52dcc <_fpadd_parts+0x3d8>
  b52d38:	2594983a 	sll	r10,r4,r22
  b52d3c:	0013883a 	mov	r9,zero
  b52d40:	00bfffc4 	movi	r2,-1
  b52d44:	4889883a 	add	r4,r9,r2
  b52d48:	508b883a 	add	r5,r10,r2
  b52d4c:	224d803a 	cmpltu	r6,r4,r9
  b52d50:	314b883a 	add	r5,r6,r5
  b52d54:	8904703a 	and	r2,r17,r4
  b52d58:	9146703a 	and	r3,r18,r5
  b52d5c:	10c4b03a 	or	r2,r2,r3
  b52d60:	10000226 	beq	r2,zero,b52d6c <_fpadd_parts+0x378>
  b52d64:	01c00044 	movi	r7,1
  b52d68:	0011883a 	mov	r8,zero
  b52d6c:	69e2b03a 	or	r17,r13,r7
  b52d70:	7224b03a 	or	r18,r14,r8
  b52d74:	003f5906 	br	b52adc <_fpadd_parts+0xe8>
  b52d78:	8407883a 	add	r3,r16,r16
  b52d7c:	008007c4 	movi	r2,31
  b52d80:	1185c83a 	sub	r2,r2,r6
  b52d84:	1886983a 	sll	r3,r3,r2
  b52d88:	7996d83a 	srl	r11,r15,r6
  b52d8c:	8198d83a 	srl	r12,r16,r6
  b52d90:	1ad6b03a 	or	r11,r3,r11
  b52d94:	003f3e06 	br	b52a90 <_fpadd_parts+0x9c>
  b52d98:	2006d07a 	srli	r3,r4,1
  b52d9c:	008007c4 	movi	r2,31
  b52da0:	1185c83a 	sub	r2,r2,r6
  b52da4:	1890d83a 	srl	r8,r3,r2
  b52da8:	218e983a 	sll	r7,r4,r6
  b52dac:	003f3e06 	br	b52aa8 <_fpadd_parts+0xb4>
  b52db0:	113f821e 	bne	r2,r4,b52bbc <_fpadd_parts+0x1c8>
  b52db4:	28c00117 	ldw	r3,4(r5)
  b52db8:	98800117 	ldw	r2,4(r19)
  b52dbc:	10ff7f26 	beq	r2,r3,b52bbc <_fpadd_parts+0x1c8>
  b52dc0:	04c02db4 	movhi	r19,182
  b52dc4:	9cc3fc04 	addi	r19,r19,4080
  b52dc8:	003f7c06 	br	b52bbc <_fpadd_parts+0x1c8>
  b52dcc:	2006d07a 	srli	r3,r4,1
  b52dd0:	008007c4 	movi	r2,31
  b52dd4:	1185c83a 	sub	r2,r2,r6
  b52dd8:	1894d83a 	srl	r10,r3,r2
  b52ddc:	2192983a 	sll	r9,r4,r6
  b52de0:	003fd706 	br	b52d40 <_fpadd_parts+0x34c>
  b52de4:	9487883a 	add	r3,r18,r18
  b52de8:	008007c4 	movi	r2,31
  b52dec:	1185c83a 	sub	r2,r2,r6
  b52df0:	1886983a 	sll	r3,r3,r2
  b52df4:	899ad83a 	srl	r13,r17,r6
  b52df8:	919cd83a 	srl	r14,r18,r6
  b52dfc:	1b5ab03a 	or	r13,r3,r13
  b52e00:	003fc906 	br	b52d28 <_fpadd_parts+0x334>

00b52e04 <__subdf3>:
  b52e04:	deffea04 	addi	sp,sp,-88
  b52e08:	dcc01415 	stw	r19,80(sp)
  b52e0c:	dcc00404 	addi	r19,sp,16
  b52e10:	2011883a 	mov	r8,r4
  b52e14:	2813883a 	mov	r9,r5
  b52e18:	dc401315 	stw	r17,76(sp)
  b52e1c:	d809883a 	mov	r4,sp
  b52e20:	980b883a 	mov	r5,r19
  b52e24:	dc400904 	addi	r17,sp,36
  b52e28:	dfc01515 	stw	ra,84(sp)
  b52e2c:	da400115 	stw	r9,4(sp)
  b52e30:	d9c00315 	stw	r7,12(sp)
  b52e34:	da000015 	stw	r8,0(sp)
  b52e38:	d9800215 	stw	r6,8(sp)
  b52e3c:	0b539ac0 	call	b539ac <__unpack_d>
  b52e40:	d9000204 	addi	r4,sp,8
  b52e44:	880b883a 	mov	r5,r17
  b52e48:	0b539ac0 	call	b539ac <__unpack_d>
  b52e4c:	d8800a17 	ldw	r2,40(sp)
  b52e50:	880b883a 	mov	r5,r17
  b52e54:	9809883a 	mov	r4,r19
  b52e58:	d9800e04 	addi	r6,sp,56
  b52e5c:	1080005c 	xori	r2,r2,1
  b52e60:	d8800a15 	stw	r2,40(sp)
  b52e64:	0b529f40 	call	b529f4 <_fpadd_parts>
  b52e68:	1009883a 	mov	r4,r2
  b52e6c:	0b536980 	call	b53698 <__pack_d>
  b52e70:	dfc01517 	ldw	ra,84(sp)
  b52e74:	dcc01417 	ldw	r19,80(sp)
  b52e78:	dc401317 	ldw	r17,76(sp)
  b52e7c:	dec01604 	addi	sp,sp,88
  b52e80:	f800283a 	ret

00b52e84 <__adddf3>:
  b52e84:	deffea04 	addi	sp,sp,-88
  b52e88:	dcc01415 	stw	r19,80(sp)
  b52e8c:	dcc00404 	addi	r19,sp,16
  b52e90:	2011883a 	mov	r8,r4
  b52e94:	2813883a 	mov	r9,r5
  b52e98:	dc401315 	stw	r17,76(sp)
  b52e9c:	d809883a 	mov	r4,sp
  b52ea0:	980b883a 	mov	r5,r19
  b52ea4:	dc400904 	addi	r17,sp,36
  b52ea8:	dfc01515 	stw	ra,84(sp)
  b52eac:	da400115 	stw	r9,4(sp)
  b52eb0:	d9c00315 	stw	r7,12(sp)
  b52eb4:	da000015 	stw	r8,0(sp)
  b52eb8:	d9800215 	stw	r6,8(sp)
  b52ebc:	0b539ac0 	call	b539ac <__unpack_d>
  b52ec0:	d9000204 	addi	r4,sp,8
  b52ec4:	880b883a 	mov	r5,r17
  b52ec8:	0b539ac0 	call	b539ac <__unpack_d>
  b52ecc:	d9800e04 	addi	r6,sp,56
  b52ed0:	9809883a 	mov	r4,r19
  b52ed4:	880b883a 	mov	r5,r17
  b52ed8:	0b529f40 	call	b529f4 <_fpadd_parts>
  b52edc:	1009883a 	mov	r4,r2
  b52ee0:	0b536980 	call	b53698 <__pack_d>
  b52ee4:	dfc01517 	ldw	ra,84(sp)
  b52ee8:	dcc01417 	ldw	r19,80(sp)
  b52eec:	dc401317 	ldw	r17,76(sp)
  b52ef0:	dec01604 	addi	sp,sp,88
  b52ef4:	f800283a 	ret

00b52ef8 <__divdf3>:
  b52ef8:	deffed04 	addi	sp,sp,-76
  b52efc:	dcc01115 	stw	r19,68(sp)
  b52f00:	dcc00404 	addi	r19,sp,16
  b52f04:	2011883a 	mov	r8,r4
  b52f08:	2813883a 	mov	r9,r5
  b52f0c:	dc000e15 	stw	r16,56(sp)
  b52f10:	d809883a 	mov	r4,sp
  b52f14:	980b883a 	mov	r5,r19
  b52f18:	dc000904 	addi	r16,sp,36
  b52f1c:	dfc01215 	stw	ra,72(sp)
  b52f20:	da400115 	stw	r9,4(sp)
  b52f24:	d9c00315 	stw	r7,12(sp)
  b52f28:	da000015 	stw	r8,0(sp)
  b52f2c:	d9800215 	stw	r6,8(sp)
  b52f30:	dc801015 	stw	r18,64(sp)
  b52f34:	dc400f15 	stw	r17,60(sp)
  b52f38:	0b539ac0 	call	b539ac <__unpack_d>
  b52f3c:	d9000204 	addi	r4,sp,8
  b52f40:	800b883a 	mov	r5,r16
  b52f44:	0b539ac0 	call	b539ac <__unpack_d>
  b52f48:	d9000417 	ldw	r4,16(sp)
  b52f4c:	00800044 	movi	r2,1
  b52f50:	11000b2e 	bgeu	r2,r4,b52f80 <__divdf3+0x88>
  b52f54:	d9400917 	ldw	r5,36(sp)
  b52f58:	1140762e 	bgeu	r2,r5,b53134 <__divdf3+0x23c>
  b52f5c:	d8800517 	ldw	r2,20(sp)
  b52f60:	d8c00a17 	ldw	r3,40(sp)
  b52f64:	01800104 	movi	r6,4
  b52f68:	10c4f03a 	xor	r2,r2,r3
  b52f6c:	d8800515 	stw	r2,20(sp)
  b52f70:	21800226 	beq	r4,r6,b52f7c <__divdf3+0x84>
  b52f74:	00800084 	movi	r2,2
  b52f78:	2080141e 	bne	r4,r2,b52fcc <__divdf3+0xd4>
  b52f7c:	29000926 	beq	r5,r4,b52fa4 <__divdf3+0xac>
  b52f80:	9809883a 	mov	r4,r19
  b52f84:	0b536980 	call	b53698 <__pack_d>
  b52f88:	dfc01217 	ldw	ra,72(sp)
  b52f8c:	dcc01117 	ldw	r19,68(sp)
  b52f90:	dc801017 	ldw	r18,64(sp)
  b52f94:	dc400f17 	ldw	r17,60(sp)
  b52f98:	dc000e17 	ldw	r16,56(sp)
  b52f9c:	dec01304 	addi	sp,sp,76
  b52fa0:	f800283a 	ret
  b52fa4:	01002db4 	movhi	r4,182
  b52fa8:	2103fc04 	addi	r4,r4,4080
  b52fac:	0b536980 	call	b53698 <__pack_d>
  b52fb0:	dfc01217 	ldw	ra,72(sp)
  b52fb4:	dcc01117 	ldw	r19,68(sp)
  b52fb8:	dc801017 	ldw	r18,64(sp)
  b52fbc:	dc400f17 	ldw	r17,60(sp)
  b52fc0:	dc000e17 	ldw	r16,56(sp)
  b52fc4:	dec01304 	addi	sp,sp,76
  b52fc8:	f800283a 	ret
  b52fcc:	29805b26 	beq	r5,r6,b5313c <__divdf3+0x244>
  b52fd0:	28802d26 	beq	r5,r2,b53088 <__divdf3+0x190>
  b52fd4:	d8c00617 	ldw	r3,24(sp)
  b52fd8:	d8800b17 	ldw	r2,44(sp)
  b52fdc:	d9c00817 	ldw	r7,32(sp)
  b52fe0:	dc400d17 	ldw	r17,52(sp)
  b52fe4:	188bc83a 	sub	r5,r3,r2
  b52fe8:	d9800717 	ldw	r6,28(sp)
  b52fec:	dc000c17 	ldw	r16,48(sp)
  b52ff0:	d9400615 	stw	r5,24(sp)
  b52ff4:	3c403836 	bltu	r7,r17,b530d8 <__divdf3+0x1e0>
  b52ff8:	89c03626 	beq	r17,r7,b530d4 <__divdf3+0x1dc>
  b52ffc:	0015883a 	mov	r10,zero
  b53000:	001d883a 	mov	r14,zero
  b53004:	02c40034 	movhi	r11,4096
  b53008:	001f883a 	mov	r15,zero
  b5300c:	003f883a 	mov	ra,zero
  b53010:	04800f44 	movi	r18,61
  b53014:	00000f06 	br	b53054 <__divdf3+0x15c>
  b53018:	601d883a 	mov	r14,r12
  b5301c:	681f883a 	mov	r15,r13
  b53020:	400d883a 	mov	r6,r8
  b53024:	100f883a 	mov	r7,r2
  b53028:	3191883a 	add	r8,r6,r6
  b5302c:	5808d07a 	srli	r4,r11,1
  b53030:	4185803a 	cmpltu	r2,r8,r6
  b53034:	39d3883a 	add	r9,r7,r7
  b53038:	28c6b03a 	or	r3,r5,r3
  b5303c:	1245883a 	add	r2,r2,r9
  b53040:	1815883a 	mov	r10,r3
  b53044:	2017883a 	mov	r11,r4
  b53048:	400d883a 	mov	r6,r8
  b5304c:	100f883a 	mov	r7,r2
  b53050:	fc801726 	beq	ra,r18,b530b0 <__divdf3+0x1b8>
  b53054:	580a97fa 	slli	r5,r11,31
  b53058:	5006d07a 	srli	r3,r10,1
  b5305c:	ffc00044 	addi	ra,ra,1
  b53060:	3c7ff136 	bltu	r7,r17,b53028 <__divdf3+0x130>
  b53064:	3411c83a 	sub	r8,r6,r16
  b53068:	3205803a 	cmpltu	r2,r6,r8
  b5306c:	3c53c83a 	sub	r9,r7,r17
  b53070:	7298b03a 	or	r12,r14,r10
  b53074:	7adab03a 	or	r13,r15,r11
  b53078:	4885c83a 	sub	r2,r9,r2
  b5307c:	89ffe61e 	bne	r17,r7,b53018 <__divdf3+0x120>
  b53080:	343fe936 	bltu	r6,r16,b53028 <__divdf3+0x130>
  b53084:	003fe406 	br	b53018 <__divdf3+0x120>
  b53088:	9809883a 	mov	r4,r19
  b5308c:	d9800415 	stw	r6,16(sp)
  b53090:	0b536980 	call	b53698 <__pack_d>
  b53094:	dfc01217 	ldw	ra,72(sp)
  b53098:	dcc01117 	ldw	r19,68(sp)
  b5309c:	dc801017 	ldw	r18,64(sp)
  b530a0:	dc400f17 	ldw	r17,60(sp)
  b530a4:	dc000e17 	ldw	r16,56(sp)
  b530a8:	dec01304 	addi	sp,sp,76
  b530ac:	f800283a 	ret
  b530b0:	00803fc4 	movi	r2,255
  b530b4:	7090703a 	and	r8,r14,r2
  b530b8:	00802004 	movi	r2,128
  b530bc:	0007883a 	mov	r3,zero
  b530c0:	0013883a 	mov	r9,zero
  b530c4:	40800d26 	beq	r8,r2,b530fc <__divdf3+0x204>
  b530c8:	dbc00815 	stw	r15,32(sp)
  b530cc:	db800715 	stw	r14,28(sp)
  b530d0:	003fab06 	br	b52f80 <__divdf3+0x88>
  b530d4:	343fc92e 	bgeu	r6,r16,b52ffc <__divdf3+0x104>
  b530d8:	3185883a 	add	r2,r6,r6
  b530dc:	1189803a 	cmpltu	r4,r2,r6
  b530e0:	39c7883a 	add	r3,r7,r7
  b530e4:	20c9883a 	add	r4,r4,r3
  b530e8:	297fffc4 	addi	r5,r5,-1
  b530ec:	100d883a 	mov	r6,r2
  b530f0:	200f883a 	mov	r7,r4
  b530f4:	d9400615 	stw	r5,24(sp)
  b530f8:	003fc006 	br	b52ffc <__divdf3+0x104>
  b530fc:	483ff21e 	bne	r9,zero,b530c8 <__divdf3+0x1d0>
  b53100:	01004004 	movi	r4,256
  b53104:	7104703a 	and	r2,r14,r4
  b53108:	10c4b03a 	or	r2,r2,r3
  b5310c:	103fee1e 	bne	r2,zero,b530c8 <__divdf3+0x1d0>
  b53110:	31c4b03a 	or	r2,r6,r7
  b53114:	103fec26 	beq	r2,zero,b530c8 <__divdf3+0x1d0>
  b53118:	7205883a 	add	r2,r14,r8
  b5311c:	1391803a 	cmpltu	r8,r2,r14
  b53120:	43d1883a 	add	r8,r8,r15
  b53124:	013fc004 	movi	r4,-256
  b53128:	111c703a 	and	r14,r2,r4
  b5312c:	401f883a 	mov	r15,r8
  b53130:	003fe506 	br	b530c8 <__divdf3+0x1d0>
  b53134:	8009883a 	mov	r4,r16
  b53138:	003f9206 	br	b52f84 <__divdf3+0x8c>
  b5313c:	9809883a 	mov	r4,r19
  b53140:	d8000715 	stw	zero,28(sp)
  b53144:	d8000815 	stw	zero,32(sp)
  b53148:	d8000615 	stw	zero,24(sp)
  b5314c:	003f8d06 	br	b52f84 <__divdf3+0x8c>

00b53150 <__nedf2>:
  b53150:	deffef04 	addi	sp,sp,-68
  b53154:	dc400f15 	stw	r17,60(sp)
  b53158:	dc400404 	addi	r17,sp,16
  b5315c:	2005883a 	mov	r2,r4
  b53160:	2807883a 	mov	r3,r5
  b53164:	dc000e15 	stw	r16,56(sp)
  b53168:	d809883a 	mov	r4,sp
  b5316c:	880b883a 	mov	r5,r17
  b53170:	dc000904 	addi	r16,sp,36
  b53174:	d8c00115 	stw	r3,4(sp)
  b53178:	d8800015 	stw	r2,0(sp)
  b5317c:	d9800215 	stw	r6,8(sp)
  b53180:	dfc01015 	stw	ra,64(sp)
  b53184:	d9c00315 	stw	r7,12(sp)
  b53188:	0b539ac0 	call	b539ac <__unpack_d>
  b5318c:	d9000204 	addi	r4,sp,8
  b53190:	800b883a 	mov	r5,r16
  b53194:	0b539ac0 	call	b539ac <__unpack_d>
  b53198:	d8800417 	ldw	r2,16(sp)
  b5319c:	00c00044 	movi	r3,1
  b531a0:	180d883a 	mov	r6,r3
  b531a4:	1880062e 	bgeu	r3,r2,b531c0 <__nedf2+0x70>
  b531a8:	d8800917 	ldw	r2,36(sp)
  b531ac:	8809883a 	mov	r4,r17
  b531b0:	800b883a 	mov	r5,r16
  b531b4:	1880022e 	bgeu	r3,r2,b531c0 <__nedf2+0x70>
  b531b8:	0b53ae40 	call	b53ae4 <__fpcmp_parts_d>
  b531bc:	100d883a 	mov	r6,r2
  b531c0:	3005883a 	mov	r2,r6
  b531c4:	dfc01017 	ldw	ra,64(sp)
  b531c8:	dc400f17 	ldw	r17,60(sp)
  b531cc:	dc000e17 	ldw	r16,56(sp)
  b531d0:	dec01104 	addi	sp,sp,68
  b531d4:	f800283a 	ret

00b531d8 <__make_dp>:
  b531d8:	defff904 	addi	sp,sp,-28
  b531dc:	d8c00717 	ldw	r3,28(sp)
  b531e0:	d9000015 	stw	r4,0(sp)
  b531e4:	d809883a 	mov	r4,sp
  b531e8:	dfc00515 	stw	ra,20(sp)
  b531ec:	d9c00615 	stw	r7,24(sp)
  b531f0:	d9400115 	stw	r5,4(sp)
  b531f4:	d9800215 	stw	r6,8(sp)
  b531f8:	d8c00415 	stw	r3,16(sp)
  b531fc:	d9c00315 	stw	r7,12(sp)
  b53200:	0b536980 	call	b53698 <__pack_d>
  b53204:	dfc00517 	ldw	ra,20(sp)
  b53208:	dec00704 	addi	sp,sp,28
  b5320c:	f800283a 	ret

00b53210 <__truncdfsf2>:
  b53210:	defff804 	addi	sp,sp,-32
  b53214:	2005883a 	mov	r2,r4
  b53218:	2807883a 	mov	r3,r5
  b5321c:	d809883a 	mov	r4,sp
  b53220:	d9400204 	addi	r5,sp,8
  b53224:	d8c00115 	stw	r3,4(sp)
  b53228:	d8800015 	stw	r2,0(sp)
  b5322c:	dfc00715 	stw	ra,28(sp)
  b53230:	0b539ac0 	call	b539ac <__unpack_d>
  b53234:	d9c00517 	ldw	r7,20(sp)
  b53238:	da000617 	ldw	r8,24(sp)
  b5323c:	02d00034 	movhi	r11,16384
  b53240:	5affffc4 	addi	r11,r11,-1
  b53244:	3812d7ba 	srli	r9,r7,30
  b53248:	401a90ba 	slli	r13,r8,2
  b5324c:	3ac4703a 	and	r2,r7,r11
  b53250:	0007883a 	mov	r3,zero
  b53254:	6a52b03a 	or	r9,r13,r9
  b53258:	10c4b03a 	or	r2,r2,r3
  b5325c:	d9000217 	ldw	r4,8(sp)
  b53260:	d9400317 	ldw	r5,12(sp)
  b53264:	d9800417 	ldw	r6,16(sp)
  b53268:	480f883a 	mov	r7,r9
  b5326c:	10000126 	beq	r2,zero,b53274 <__truncdfsf2+0x64>
  b53270:	49c00054 	ori	r7,r9,1
  b53274:	0b5366c0 	call	b5366c <__make_fp>
  b53278:	dfc00717 	ldw	ra,28(sp)
  b5327c:	dec00804 	addi	sp,sp,32
  b53280:	f800283a 	ret

00b53284 <__muldi3>:
  b53284:	2011883a 	mov	r8,r4
  b53288:	427fffcc 	andi	r9,r8,65535
  b5328c:	4018d43a 	srli	r12,r8,16
  b53290:	32bfffcc 	andi	r10,r6,65535
  b53294:	3016d43a 	srli	r11,r6,16
  b53298:	4a85383a 	mul	r2,r9,r10
  b5329c:	6295383a 	mul	r10,r12,r10
  b532a0:	4ad3383a 	mul	r9,r9,r11
  b532a4:	113fffcc 	andi	r4,r2,65535
  b532a8:	1004d43a 	srli	r2,r2,16
  b532ac:	4a93883a 	add	r9,r9,r10
  b532b0:	3807883a 	mov	r3,r7
  b532b4:	1245883a 	add	r2,r2,r9
  b532b8:	280f883a 	mov	r7,r5
  b532bc:	180b883a 	mov	r5,r3
  b532c0:	1006943a 	slli	r3,r2,16
  b532c4:	defffd04 	addi	sp,sp,-12
  b532c8:	dc800215 	stw	r18,8(sp)
  b532cc:	1907883a 	add	r3,r3,r4
  b532d0:	dc400115 	stw	r17,4(sp)
  b532d4:	dc000015 	stw	r16,0(sp)
  b532d8:	4165383a 	mul	r18,r8,r5
  b532dc:	31e3383a 	mul	r17,r6,r7
  b532e0:	1012d43a 	srli	r9,r2,16
  b532e4:	62d9383a 	mul	r12,r12,r11
  b532e8:	181f883a 	mov	r15,r3
  b532ec:	1280022e 	bgeu	r2,r10,b532f8 <__muldi3+0x74>
  b532f0:	00800074 	movhi	r2,1
  b532f4:	6099883a 	add	r12,r12,r2
  b532f8:	624d883a 	add	r6,r12,r9
  b532fc:	9187883a 	add	r3,r18,r6
  b53300:	88c7883a 	add	r3,r17,r3
  b53304:	7805883a 	mov	r2,r15
  b53308:	dc800217 	ldw	r18,8(sp)
  b5330c:	dc400117 	ldw	r17,4(sp)
  b53310:	dc000017 	ldw	r16,0(sp)
  b53314:	dec00304 	addi	sp,sp,12
  b53318:	f800283a 	ret

00b5331c <__clzsi2>:
  b5331c:	00bfffd4 	movui	r2,65535
  b53320:	11000e36 	bltu	r2,r4,b5335c <__clzsi2+0x40>
  b53324:	00803fc4 	movi	r2,255
  b53328:	01400204 	movi	r5,8
  b5332c:	0007883a 	mov	r3,zero
  b53330:	11001036 	bltu	r2,r4,b53374 <__clzsi2+0x58>
  b53334:	000b883a 	mov	r5,zero
  b53338:	20c6d83a 	srl	r3,r4,r3
  b5333c:	00802db4 	movhi	r2,182
  b53340:	10840104 	addi	r2,r2,4100
  b53344:	1887883a 	add	r3,r3,r2
  b53348:	18800003 	ldbu	r2,0(r3)
  b5334c:	00c00804 	movi	r3,32
  b53350:	2885883a 	add	r2,r5,r2
  b53354:	1885c83a 	sub	r2,r3,r2
  b53358:	f800283a 	ret
  b5335c:	01400404 	movi	r5,16
  b53360:	00804034 	movhi	r2,256
  b53364:	10bfffc4 	addi	r2,r2,-1
  b53368:	2807883a 	mov	r3,r5
  b5336c:	113ff22e 	bgeu	r2,r4,b53338 <__clzsi2+0x1c>
  b53370:	01400604 	movi	r5,24
  b53374:	2807883a 	mov	r3,r5
  b53378:	20c6d83a 	srl	r3,r4,r3
  b5337c:	00802db4 	movhi	r2,182
  b53380:	10840104 	addi	r2,r2,4100
  b53384:	1887883a 	add	r3,r3,r2
  b53388:	18800003 	ldbu	r2,0(r3)
  b5338c:	00c00804 	movi	r3,32
  b53390:	2885883a 	add	r2,r5,r2
  b53394:	1885c83a 	sub	r2,r3,r2
  b53398:	f800283a 	ret

00b5339c <__pack_f>:
  b5339c:	20c00017 	ldw	r3,0(r4)
  b533a0:	01c00044 	movi	r7,1
  b533a4:	21800317 	ldw	r6,12(r4)
  b533a8:	21400117 	ldw	r5,4(r4)
  b533ac:	38c02d2e 	bgeu	r7,r3,b53464 <__pack_f+0xc8>
  b533b0:	00800104 	movi	r2,4
  b533b4:	18802826 	beq	r3,r2,b53458 <__pack_f+0xbc>
  b533b8:	00800084 	movi	r2,2
  b533bc:	18800126 	beq	r3,r2,b533c4 <__pack_f+0x28>
  b533c0:	3000101e 	bne	r6,zero,b53404 <__pack_f+0x68>
  b533c4:	000d883a 	mov	r6,zero
  b533c8:	0007883a 	mov	r3,zero
  b533cc:	19003fcc 	andi	r4,r3,255
  b533d0:	200895fa 	slli	r4,r4,23
  b533d4:	00c02034 	movhi	r3,128
  b533d8:	18ffffc4 	addi	r3,r3,-1
  b533dc:	30c6703a 	and	r3,r6,r3
  b533e0:	10a0002c 	andhi	r2,r2,32768
  b533e4:	10c4b03a 	or	r2,r2,r3
  b533e8:	280a97fa 	slli	r5,r5,31
  b533ec:	1104b03a 	or	r2,r2,r4
  b533f0:	00e00034 	movhi	r3,32768
  b533f4:	18ffffc4 	addi	r3,r3,-1
  b533f8:	10c4703a 	and	r2,r2,r3
  b533fc:	1144b03a 	or	r2,r2,r5
  b53400:	f800283a 	ret
  b53404:	21000217 	ldw	r4,8(r4)
  b53408:	00bfe084 	movi	r2,-126
  b5340c:	20801b16 	blt	r4,r2,b5347c <__pack_f+0xe0>
  b53410:	00801fc4 	movi	r2,127
  b53414:	11001016 	blt	r2,r4,b53458 <__pack_f+0xbc>
  b53418:	308e703a 	and	r7,r6,r2
  b5341c:	2087883a 	add	r3,r4,r2
  b53420:	00801004 	movi	r2,64
  b53424:	38800526 	beq	r7,r2,b5343c <__pack_f+0xa0>
  b53428:	31800fc4 	addi	r6,r6,63
  b5342c:	30000716 	blt	r6,zero,b5344c <__pack_f+0xb0>
  b53430:	300490ba 	slli	r2,r6,2
  b53434:	100cd27a 	srli	r6,r2,9
  b53438:	003fe406 	br	b533cc <__pack_f+0x30>
  b5343c:	3080200c 	andi	r2,r6,128
  b53440:	103ffa26 	beq	r2,zero,b5342c <__pack_f+0x90>
  b53444:	31cd883a 	add	r6,r6,r7
  b53448:	003ff806 	br	b5342c <__pack_f+0x90>
  b5344c:	300cd07a 	srli	r6,r6,1
  b53450:	18c00044 	addi	r3,r3,1
  b53454:	003ff606 	br	b53430 <__pack_f+0x94>
  b53458:	000d883a 	mov	r6,zero
  b5345c:	00ffffc4 	movi	r3,-1
  b53460:	003fda06 	br	b533cc <__pack_f+0x30>
  b53464:	31800434 	orhi	r6,r6,16
  b53468:	00802034 	movhi	r2,128
  b5346c:	10bfffc4 	addi	r2,r2,-1
  b53470:	308c703a 	and	r6,r6,r2
  b53474:	00ffffc4 	movi	r3,-1
  b53478:	003fd406 	br	b533cc <__pack_f+0x30>
  b5347c:	1109c83a 	sub	r4,r2,r4
  b53480:	00800644 	movi	r2,25
  b53484:	11001216 	blt	r2,r4,b534d0 <__pack_f+0x134>
  b53488:	3904983a 	sll	r2,r7,r4
  b5348c:	3106d83a 	srl	r3,r6,r4
  b53490:	10bfffc4 	addi	r2,r2,-1
  b53494:	3084703a 	and	r2,r6,r2
  b53498:	1004c03a 	cmpne	r2,r2,zero
  b5349c:	1886b03a 	or	r3,r3,r2
  b534a0:	19001fcc 	andi	r4,r3,127
  b534a4:	00801004 	movi	r2,64
  b534a8:	20800c26 	beq	r4,r2,b534dc <__pack_f+0x140>
  b534ac:	18c00fc4 	addi	r3,r3,63
  b534b0:	00900034 	movhi	r2,16384
  b534b4:	10bfffc4 	addi	r2,r2,-1
  b534b8:	180cd1fa 	srli	r6,r3,7
  b534bc:	10c7803a 	cmpltu	r3,r2,r3
  b534c0:	00802034 	movhi	r2,128
  b534c4:	10bfffc4 	addi	r2,r2,-1
  b534c8:	308c703a 	and	r6,r6,r2
  b534cc:	003fbf06 	br	b533cc <__pack_f+0x30>
  b534d0:	0007883a 	mov	r3,zero
  b534d4:	000d883a 	mov	r6,zero
  b534d8:	003ff906 	br	b534c0 <__pack_f+0x124>
  b534dc:	1880200c 	andi	r2,r3,128
  b534e0:	10000126 	beq	r2,zero,b534e8 <__pack_f+0x14c>
  b534e4:	1907883a 	add	r3,r3,r4
  b534e8:	180cd1fa 	srli	r6,r3,7
  b534ec:	00900034 	movhi	r2,16384
  b534f0:	10bfffc4 	addi	r2,r2,-1
  b534f4:	10c7803a 	cmpltu	r3,r2,r3
  b534f8:	003ff106 	br	b534c0 <__pack_f+0x124>

00b534fc <__unpack_f>:
  b534fc:	21800017 	ldw	r6,0(r4)
  b53500:	00c02034 	movhi	r3,128
  b53504:	18ffffc4 	addi	r3,r3,-1
  b53508:	3004d5fa 	srli	r2,r6,23
  b5350c:	3008d7fa 	srli	r4,r6,31
  b53510:	30ce703a 	and	r7,r6,r3
  b53514:	10c03fcc 	andi	r3,r2,255
  b53518:	29000115 	stw	r4,4(r5)
  b5351c:	1800131e 	bne	r3,zero,b5356c <__unpack_f+0x70>
  b53520:	38000f26 	beq	r7,zero,b53560 <__unpack_f+0x64>
  b53524:	380691fa 	slli	r3,r7,7
  b53528:	01bfe084 	movi	r6,-126
  b5352c:	008000c4 	movi	r2,3
  b53530:	01100034 	movhi	r4,16384
  b53534:	213fffc4 	addi	r4,r4,-1
  b53538:	28800015 	stw	r2,0(r5)
  b5353c:	29800215 	stw	r6,8(r5)
  b53540:	20c00536 	bltu	r4,r3,b53558 <__unpack_f+0x5c>
  b53544:	3005883a 	mov	r2,r6
  b53548:	18c7883a 	add	r3,r3,r3
  b5354c:	10bfffc4 	addi	r2,r2,-1
  b53550:	20fffd2e 	bgeu	r4,r3,b53548 <__unpack_f+0x4c>
  b53554:	28800215 	stw	r2,8(r5)
  b53558:	28c00315 	stw	r3,12(r5)
  b5355c:	f800283a 	ret
  b53560:	00800084 	movi	r2,2
  b53564:	28800015 	stw	r2,0(r5)
  b53568:	f800283a 	ret
  b5356c:	00803fc4 	movi	r2,255
  b53570:	18800826 	beq	r3,r2,b53594 <__unpack_f+0x98>
  b53574:	380491fa 	slli	r2,r7,7
  b53578:	18ffe044 	addi	r3,r3,-127
  b5357c:	28c00215 	stw	r3,8(r5)
  b53580:	10900034 	orhi	r2,r2,16384
  b53584:	28800315 	stw	r2,12(r5)
  b53588:	008000c4 	movi	r2,3
  b5358c:	28800015 	stw	r2,0(r5)
  b53590:	f800283a 	ret
  b53594:	3800031e 	bne	r7,zero,b535a4 <__unpack_f+0xa8>
  b53598:	00800104 	movi	r2,4
  b5359c:	28800015 	stw	r2,0(r5)
  b535a0:	f800283a 	ret
  b535a4:	3080042c 	andhi	r2,r6,16
  b535a8:	10000426 	beq	r2,zero,b535bc <__unpack_f+0xc0>
  b535ac:	00800044 	movi	r2,1
  b535b0:	28800015 	stw	r2,0(r5)
  b535b4:	29c00315 	stw	r7,12(r5)
  b535b8:	f800283a 	ret
  b535bc:	28000015 	stw	zero,0(r5)
  b535c0:	003ffc06 	br	b535b4 <__unpack_f+0xb8>

00b535c4 <__fpcmp_parts_f>:
  b535c4:	21800017 	ldw	r6,0(r4)
  b535c8:	00c00044 	movi	r3,1
  b535cc:	19800a2e 	bgeu	r3,r6,b535f8 <__fpcmp_parts_f+0x34>
  b535d0:	28800017 	ldw	r2,0(r5)
  b535d4:	1880082e 	bgeu	r3,r2,b535f8 <__fpcmp_parts_f+0x34>
  b535d8:	00c00104 	movi	r3,4
  b535dc:	30c01e26 	beq	r6,r3,b53658 <__fpcmp_parts_f+0x94>
  b535e0:	10c01a26 	beq	r2,r3,b5364c <__fpcmp_parts_f+0x88>
  b535e4:	00c00084 	movi	r3,2
  b535e8:	30c00526 	beq	r6,r3,b53600 <__fpcmp_parts_f+0x3c>
  b535ec:	10c0071e 	bne	r2,r3,b5360c <__fpcmp_parts_f+0x48>
  b535f0:	20800117 	ldw	r2,4(r4)
  b535f4:	1000091e 	bne	r2,zero,b5361c <__fpcmp_parts_f+0x58>
  b535f8:	00800044 	movi	r2,1
  b535fc:	f800283a 	ret
  b53600:	10c0121e 	bne	r2,r3,b5364c <__fpcmp_parts_f+0x88>
  b53604:	0005883a 	mov	r2,zero
  b53608:	f800283a 	ret
  b5360c:	20c00117 	ldw	r3,4(r4)
  b53610:	28800117 	ldw	r2,4(r5)
  b53614:	18800326 	beq	r3,r2,b53624 <__fpcmp_parts_f+0x60>
  b53618:	183ff726 	beq	r3,zero,b535f8 <__fpcmp_parts_f+0x34>
  b5361c:	00bfffc4 	movi	r2,-1
  b53620:	f800283a 	ret
  b53624:	21800217 	ldw	r6,8(r4)
  b53628:	28800217 	ldw	r2,8(r5)
  b5362c:	11bffa16 	blt	r2,r6,b53618 <__fpcmp_parts_f+0x54>
  b53630:	30800416 	blt	r6,r2,b53644 <__fpcmp_parts_f+0x80>
  b53634:	21000317 	ldw	r4,12(r4)
  b53638:	29400317 	ldw	r5,12(r5)
  b5363c:	293ff636 	bltu	r5,r4,b53618 <__fpcmp_parts_f+0x54>
  b53640:	217ff02e 	bgeu	r4,r5,b53604 <__fpcmp_parts_f+0x40>
  b53644:	183fec1e 	bne	r3,zero,b535f8 <__fpcmp_parts_f+0x34>
  b53648:	003ff406 	br	b5361c <__fpcmp_parts_f+0x58>
  b5364c:	28800117 	ldw	r2,4(r5)
  b53650:	103fe91e 	bne	r2,zero,b535f8 <__fpcmp_parts_f+0x34>
  b53654:	003ff106 	br	b5361c <__fpcmp_parts_f+0x58>
  b53658:	11bfe51e 	bne	r2,r6,b535f0 <__fpcmp_parts_f+0x2c>
  b5365c:	28c00117 	ldw	r3,4(r5)
  b53660:	20800117 	ldw	r2,4(r4)
  b53664:	1885c83a 	sub	r2,r3,r2
  b53668:	f800283a 	ret

00b5366c <__make_fp>:
  b5366c:	defffb04 	addi	sp,sp,-20
  b53670:	d9000015 	stw	r4,0(sp)
  b53674:	d809883a 	mov	r4,sp
  b53678:	dfc00415 	stw	ra,16(sp)
  b5367c:	d9400115 	stw	r5,4(sp)
  b53680:	d9800215 	stw	r6,8(sp)
  b53684:	d9c00315 	stw	r7,12(sp)
  b53688:	0b5339c0 	call	b5339c <__pack_f>
  b5368c:	dfc00417 	ldw	ra,16(sp)
  b53690:	dec00504 	addi	sp,sp,20
  b53694:	f800283a 	ret

00b53698 <__pack_d>:
  b53698:	20c00017 	ldw	r3,0(r4)
  b5369c:	defffd04 	addi	sp,sp,-12
  b536a0:	dc000015 	stw	r16,0(sp)
  b536a4:	dc800215 	stw	r18,8(sp)
  b536a8:	dc400115 	stw	r17,4(sp)
  b536ac:	00800044 	movi	r2,1
  b536b0:	22000317 	ldw	r8,12(r4)
  b536b4:	001f883a 	mov	r15,zero
  b536b8:	22400417 	ldw	r9,16(r4)
  b536bc:	24000117 	ldw	r16,4(r4)
  b536c0:	10c0552e 	bgeu	r2,r3,b53818 <__pack_d+0x180>
  b536c4:	00800104 	movi	r2,4
  b536c8:	18804f26 	beq	r3,r2,b53808 <__pack_d+0x170>
  b536cc:	00800084 	movi	r2,2
  b536d0:	18800226 	beq	r3,r2,b536dc <__pack_d+0x44>
  b536d4:	4244b03a 	or	r2,r8,r9
  b536d8:	10001a1e 	bne	r2,zero,b53744 <__pack_d+0xac>
  b536dc:	000d883a 	mov	r6,zero
  b536e0:	000f883a 	mov	r7,zero
  b536e4:	0011883a 	mov	r8,zero
  b536e8:	00800434 	movhi	r2,16
  b536ec:	10bfffc4 	addi	r2,r2,-1
  b536f0:	301d883a 	mov	r14,r6
  b536f4:	3884703a 	and	r2,r7,r2
  b536f8:	400a953a 	slli	r5,r8,20
  b536fc:	79bffc2c 	andhi	r6,r15,65520
  b53700:	308cb03a 	or	r6,r6,r2
  b53704:	00e00434 	movhi	r3,32784
  b53708:	18ffffc4 	addi	r3,r3,-1
  b5370c:	800497fa 	slli	r2,r16,31
  b53710:	30c6703a 	and	r3,r6,r3
  b53714:	1946b03a 	or	r3,r3,r5
  b53718:	01600034 	movhi	r5,32768
  b5371c:	297fffc4 	addi	r5,r5,-1
  b53720:	194a703a 	and	r5,r3,r5
  b53724:	288ab03a 	or	r5,r5,r2
  b53728:	2807883a 	mov	r3,r5
  b5372c:	7005883a 	mov	r2,r14
  b53730:	dc800217 	ldw	r18,8(sp)
  b53734:	dc400117 	ldw	r17,4(sp)
  b53738:	dc000017 	ldw	r16,0(sp)
  b5373c:	dec00304 	addi	sp,sp,12
  b53740:	f800283a 	ret
  b53744:	21000217 	ldw	r4,8(r4)
  b53748:	00bf0084 	movi	r2,-1022
  b5374c:	20803f16 	blt	r4,r2,b5384c <__pack_d+0x1b4>
  b53750:	0080ffc4 	movi	r2,1023
  b53754:	11002c16 	blt	r2,r4,b53808 <__pack_d+0x170>
  b53758:	00803fc4 	movi	r2,255
  b5375c:	408c703a 	and	r6,r8,r2
  b53760:	00802004 	movi	r2,128
  b53764:	0007883a 	mov	r3,zero
  b53768:	000f883a 	mov	r7,zero
  b5376c:	2280ffc4 	addi	r10,r4,1023
  b53770:	30801e26 	beq	r6,r2,b537ec <__pack_d+0x154>
  b53774:	00801fc4 	movi	r2,127
  b53778:	4089883a 	add	r4,r8,r2
  b5377c:	220d803a 	cmpltu	r6,r4,r8
  b53780:	324d883a 	add	r6,r6,r9
  b53784:	2011883a 	mov	r8,r4
  b53788:	3013883a 	mov	r9,r6
  b5378c:	00880034 	movhi	r2,8192
  b53790:	10bfffc4 	addi	r2,r2,-1
  b53794:	12400d36 	bltu	r2,r9,b537cc <__pack_d+0x134>
  b53798:	4804963a 	slli	r2,r9,24
  b5379c:	400cd23a 	srli	r6,r8,8
  b537a0:	480ed23a 	srli	r7,r9,8
  b537a4:	013fffc4 	movi	r4,-1
  b537a8:	118cb03a 	or	r6,r2,r6
  b537ac:	01400434 	movhi	r5,16
  b537b0:	297fffc4 	addi	r5,r5,-1
  b537b4:	3104703a 	and	r2,r6,r4
  b537b8:	3946703a 	and	r3,r7,r5
  b537bc:	5201ffcc 	andi	r8,r10,2047
  b537c0:	100d883a 	mov	r6,r2
  b537c4:	180f883a 	mov	r7,r3
  b537c8:	003fc706 	br	b536e8 <__pack_d+0x50>
  b537cc:	480897fa 	slli	r4,r9,31
  b537d0:	4004d07a 	srli	r2,r8,1
  b537d4:	4806d07a 	srli	r3,r9,1
  b537d8:	52800044 	addi	r10,r10,1
  b537dc:	2084b03a 	or	r2,r4,r2
  b537e0:	1011883a 	mov	r8,r2
  b537e4:	1813883a 	mov	r9,r3
  b537e8:	003feb06 	br	b53798 <__pack_d+0x100>
  b537ec:	383fe11e 	bne	r7,zero,b53774 <__pack_d+0xdc>
  b537f0:	01004004 	movi	r4,256
  b537f4:	4104703a 	and	r2,r8,r4
  b537f8:	10c4b03a 	or	r2,r2,r3
  b537fc:	103fe326 	beq	r2,zero,b5378c <__pack_d+0xf4>
  b53800:	3005883a 	mov	r2,r6
  b53804:	003fdc06 	br	b53778 <__pack_d+0xe0>
  b53808:	000d883a 	mov	r6,zero
  b5380c:	000f883a 	mov	r7,zero
  b53810:	0201ffc4 	movi	r8,2047
  b53814:	003fb406 	br	b536e8 <__pack_d+0x50>
  b53818:	0005883a 	mov	r2,zero
  b5381c:	00c00234 	movhi	r3,8
  b53820:	408cb03a 	or	r6,r8,r2
  b53824:	48ceb03a 	or	r7,r9,r3
  b53828:	013fffc4 	movi	r4,-1
  b5382c:	01400434 	movhi	r5,16
  b53830:	297fffc4 	addi	r5,r5,-1
  b53834:	3104703a 	and	r2,r6,r4
  b53838:	3946703a 	and	r3,r7,r5
  b5383c:	100d883a 	mov	r6,r2
  b53840:	180f883a 	mov	r7,r3
  b53844:	0201ffc4 	movi	r8,2047
  b53848:	003fa706 	br	b536e8 <__pack_d+0x50>
  b5384c:	1109c83a 	sub	r4,r2,r4
  b53850:	00800e04 	movi	r2,56
  b53854:	11004316 	blt	r2,r4,b53964 <__pack_d+0x2cc>
  b53858:	21fff804 	addi	r7,r4,-32
  b5385c:	38004516 	blt	r7,zero,b53974 <__pack_d+0x2dc>
  b53860:	49d8d83a 	srl	r12,r9,r7
  b53864:	001b883a 	mov	r13,zero
  b53868:	0023883a 	mov	r17,zero
  b5386c:	01400044 	movi	r5,1
  b53870:	0025883a 	mov	r18,zero
  b53874:	38004716 	blt	r7,zero,b53994 <__pack_d+0x2fc>
  b53878:	29d6983a 	sll	r11,r5,r7
  b5387c:	0015883a 	mov	r10,zero
  b53880:	00bfffc4 	movi	r2,-1
  b53884:	5089883a 	add	r4,r10,r2
  b53888:	588b883a 	add	r5,r11,r2
  b5388c:	228d803a 	cmpltu	r6,r4,r10
  b53890:	314b883a 	add	r5,r6,r5
  b53894:	4104703a 	and	r2,r8,r4
  b53898:	4946703a 	and	r3,r9,r5
  b5389c:	10c4b03a 	or	r2,r2,r3
  b538a0:	10000226 	beq	r2,zero,b538ac <__pack_d+0x214>
  b538a4:	04400044 	movi	r17,1
  b538a8:	0025883a 	mov	r18,zero
  b538ac:	00803fc4 	movi	r2,255
  b538b0:	644eb03a 	or	r7,r12,r17
  b538b4:	3892703a 	and	r9,r7,r2
  b538b8:	00802004 	movi	r2,128
  b538bc:	6c90b03a 	or	r8,r13,r18
  b538c0:	0015883a 	mov	r10,zero
  b538c4:	48801626 	beq	r9,r2,b53920 <__pack_d+0x288>
  b538c8:	01001fc4 	movi	r4,127
  b538cc:	3905883a 	add	r2,r7,r4
  b538d0:	11cd803a 	cmpltu	r6,r2,r7
  b538d4:	320d883a 	add	r6,r6,r8
  b538d8:	100f883a 	mov	r7,r2
  b538dc:	00840034 	movhi	r2,4096
  b538e0:	10bfffc4 	addi	r2,r2,-1
  b538e4:	3011883a 	mov	r8,r6
  b538e8:	0007883a 	mov	r3,zero
  b538ec:	11801b36 	bltu	r2,r6,b5395c <__pack_d+0x2c4>
  b538f0:	4004963a 	slli	r2,r8,24
  b538f4:	3808d23a 	srli	r4,r7,8
  b538f8:	400ad23a 	srli	r5,r8,8
  b538fc:	1813883a 	mov	r9,r3
  b53900:	1108b03a 	or	r4,r2,r4
  b53904:	00bfffc4 	movi	r2,-1
  b53908:	00c00434 	movhi	r3,16
  b5390c:	18ffffc4 	addi	r3,r3,-1
  b53910:	208c703a 	and	r6,r4,r2
  b53914:	28ce703a 	and	r7,r5,r3
  b53918:	4a01ffcc 	andi	r8,r9,2047
  b5391c:	003f7206 	br	b536e8 <__pack_d+0x50>
  b53920:	503fe91e 	bne	r10,zero,b538c8 <__pack_d+0x230>
  b53924:	01004004 	movi	r4,256
  b53928:	3904703a 	and	r2,r7,r4
  b5392c:	0007883a 	mov	r3,zero
  b53930:	10c4b03a 	or	r2,r2,r3
  b53934:	10000626 	beq	r2,zero,b53950 <__pack_d+0x2b8>
  b53938:	3a45883a 	add	r2,r7,r9
  b5393c:	11cd803a 	cmpltu	r6,r2,r7
  b53940:	320d883a 	add	r6,r6,r8
  b53944:	100f883a 	mov	r7,r2
  b53948:	3011883a 	mov	r8,r6
  b5394c:	0007883a 	mov	r3,zero
  b53950:	00840034 	movhi	r2,4096
  b53954:	10bfffc4 	addi	r2,r2,-1
  b53958:	123fe52e 	bgeu	r2,r8,b538f0 <__pack_d+0x258>
  b5395c:	00c00044 	movi	r3,1
  b53960:	003fe306 	br	b538f0 <__pack_d+0x258>
  b53964:	0009883a 	mov	r4,zero
  b53968:	0013883a 	mov	r9,zero
  b5396c:	000b883a 	mov	r5,zero
  b53970:	003fe406 	br	b53904 <__pack_d+0x26c>
  b53974:	4a47883a 	add	r3,r9,r9
  b53978:	008007c4 	movi	r2,31
  b5397c:	1105c83a 	sub	r2,r2,r4
  b53980:	1886983a 	sll	r3,r3,r2
  b53984:	4118d83a 	srl	r12,r8,r4
  b53988:	491ad83a 	srl	r13,r9,r4
  b5398c:	1b18b03a 	or	r12,r3,r12
  b53990:	003fb506 	br	b53868 <__pack_d+0x1d0>
  b53994:	2806d07a 	srli	r3,r5,1
  b53998:	008007c4 	movi	r2,31
  b5399c:	1105c83a 	sub	r2,r2,r4
  b539a0:	1896d83a 	srl	r11,r3,r2
  b539a4:	2914983a 	sll	r10,r5,r4
  b539a8:	003fb506 	br	b53880 <__pack_d+0x1e8>

00b539ac <__unpack_d>:
  b539ac:	20c00117 	ldw	r3,4(r4)
  b539b0:	22400017 	ldw	r9,0(r4)
  b539b4:	00800434 	movhi	r2,16
  b539b8:	10bfffc4 	addi	r2,r2,-1
  b539bc:	1808d53a 	srli	r4,r3,20
  b539c0:	180cd7fa 	srli	r6,r3,31
  b539c4:	1894703a 	and	r10,r3,r2
  b539c8:	2201ffcc 	andi	r8,r4,2047
  b539cc:	281b883a 	mov	r13,r5
  b539d0:	4817883a 	mov	r11,r9
  b539d4:	29800115 	stw	r6,4(r5)
  b539d8:	5019883a 	mov	r12,r10
  b539dc:	40001e1e 	bne	r8,zero,b53a58 <__unpack_d+0xac>
  b539e0:	4a84b03a 	or	r2,r9,r10
  b539e4:	10001926 	beq	r2,zero,b53a4c <__unpack_d+0xa0>
  b539e8:	4804d63a 	srli	r2,r9,24
  b539ec:	500c923a 	slli	r6,r10,8
  b539f0:	013f0084 	movi	r4,-1022
  b539f4:	00c40034 	movhi	r3,4096
  b539f8:	18ffffc4 	addi	r3,r3,-1
  b539fc:	118cb03a 	or	r6,r2,r6
  b53a00:	008000c4 	movi	r2,3
  b53a04:	480a923a 	slli	r5,r9,8
  b53a08:	68800015 	stw	r2,0(r13)
  b53a0c:	69000215 	stw	r4,8(r13)
  b53a10:	19800b36 	bltu	r3,r6,b53a40 <__unpack_d+0x94>
  b53a14:	200f883a 	mov	r7,r4
  b53a18:	1811883a 	mov	r8,r3
  b53a1c:	2945883a 	add	r2,r5,r5
  b53a20:	1149803a 	cmpltu	r4,r2,r5
  b53a24:	3187883a 	add	r3,r6,r6
  b53a28:	20c9883a 	add	r4,r4,r3
  b53a2c:	100b883a 	mov	r5,r2
  b53a30:	200d883a 	mov	r6,r4
  b53a34:	39ffffc4 	addi	r7,r7,-1
  b53a38:	413ff82e 	bgeu	r8,r4,b53a1c <__unpack_d+0x70>
  b53a3c:	69c00215 	stw	r7,8(r13)
  b53a40:	69800415 	stw	r6,16(r13)
  b53a44:	69400315 	stw	r5,12(r13)
  b53a48:	f800283a 	ret
  b53a4c:	00800084 	movi	r2,2
  b53a50:	28800015 	stw	r2,0(r5)
  b53a54:	f800283a 	ret
  b53a58:	0081ffc4 	movi	r2,2047
  b53a5c:	40800f26 	beq	r8,r2,b53a9c <__unpack_d+0xf0>
  b53a60:	480cd63a 	srli	r6,r9,24
  b53a64:	5006923a 	slli	r3,r10,8
  b53a68:	4804923a 	slli	r2,r9,8
  b53a6c:	0009883a 	mov	r4,zero
  b53a70:	30c6b03a 	or	r3,r6,r3
  b53a74:	01440034 	movhi	r5,4096
  b53a78:	110cb03a 	or	r6,r2,r4
  b53a7c:	423f0044 	addi	r8,r8,-1023
  b53a80:	194eb03a 	or	r7,r3,r5
  b53a84:	008000c4 	movi	r2,3
  b53a88:	69c00415 	stw	r7,16(r13)
  b53a8c:	6a000215 	stw	r8,8(r13)
  b53a90:	68800015 	stw	r2,0(r13)
  b53a94:	69800315 	stw	r6,12(r13)
  b53a98:	f800283a 	ret
  b53a9c:	4a84b03a 	or	r2,r9,r10
  b53aa0:	1000031e 	bne	r2,zero,b53ab0 <__unpack_d+0x104>
  b53aa4:	00800104 	movi	r2,4
  b53aa8:	28800015 	stw	r2,0(r5)
  b53aac:	f800283a 	ret
  b53ab0:	0009883a 	mov	r4,zero
  b53ab4:	01400234 	movhi	r5,8
  b53ab8:	4904703a 	and	r2,r9,r4
  b53abc:	5146703a 	and	r3,r10,r5
  b53ac0:	10c4b03a 	or	r2,r2,r3
  b53ac4:	10000526 	beq	r2,zero,b53adc <__unpack_d+0x130>
  b53ac8:	00800044 	movi	r2,1
  b53acc:	68800015 	stw	r2,0(r13)
  b53ad0:	6b000415 	stw	r12,16(r13)
  b53ad4:	6ac00315 	stw	r11,12(r13)
  b53ad8:	f800283a 	ret
  b53adc:	68000015 	stw	zero,0(r13)
  b53ae0:	003ffb06 	br	b53ad0 <__unpack_d+0x124>

00b53ae4 <__fpcmp_parts_d>:
  b53ae4:	21800017 	ldw	r6,0(r4)
  b53ae8:	00c00044 	movi	r3,1
  b53aec:	19800a2e 	bgeu	r3,r6,b53b18 <__fpcmp_parts_d+0x34>
  b53af0:	28800017 	ldw	r2,0(r5)
  b53af4:	1880082e 	bgeu	r3,r2,b53b18 <__fpcmp_parts_d+0x34>
  b53af8:	00c00104 	movi	r3,4
  b53afc:	30c02626 	beq	r6,r3,b53b98 <__fpcmp_parts_d+0xb4>
  b53b00:	10c02226 	beq	r2,r3,b53b8c <__fpcmp_parts_d+0xa8>
  b53b04:	00c00084 	movi	r3,2
  b53b08:	30c00526 	beq	r6,r3,b53b20 <__fpcmp_parts_d+0x3c>
  b53b0c:	10c0071e 	bne	r2,r3,b53b2c <__fpcmp_parts_d+0x48>
  b53b10:	20800117 	ldw	r2,4(r4)
  b53b14:	1000091e 	bne	r2,zero,b53b3c <__fpcmp_parts_d+0x58>
  b53b18:	00800044 	movi	r2,1
  b53b1c:	f800283a 	ret
  b53b20:	10c01a1e 	bne	r2,r3,b53b8c <__fpcmp_parts_d+0xa8>
  b53b24:	0005883a 	mov	r2,zero
  b53b28:	f800283a 	ret
  b53b2c:	22000117 	ldw	r8,4(r4)
  b53b30:	28800117 	ldw	r2,4(r5)
  b53b34:	40800326 	beq	r8,r2,b53b44 <__fpcmp_parts_d+0x60>
  b53b38:	403ff726 	beq	r8,zero,b53b18 <__fpcmp_parts_d+0x34>
  b53b3c:	00bfffc4 	movi	r2,-1
  b53b40:	f800283a 	ret
  b53b44:	20c00217 	ldw	r3,8(r4)
  b53b48:	28800217 	ldw	r2,8(r5)
  b53b4c:	10fffa16 	blt	r2,r3,b53b38 <__fpcmp_parts_d+0x54>
  b53b50:	18800916 	blt	r3,r2,b53b78 <__fpcmp_parts_d+0x94>
  b53b54:	21c00417 	ldw	r7,16(r4)
  b53b58:	28c00417 	ldw	r3,16(r5)
  b53b5c:	21800317 	ldw	r6,12(r4)
  b53b60:	28800317 	ldw	r2,12(r5)
  b53b64:	19fff436 	bltu	r3,r7,b53b38 <__fpcmp_parts_d+0x54>
  b53b68:	38c00526 	beq	r7,r3,b53b80 <__fpcmp_parts_d+0x9c>
  b53b6c:	38c00236 	bltu	r7,r3,b53b78 <__fpcmp_parts_d+0x94>
  b53b70:	19ffec1e 	bne	r3,r7,b53b24 <__fpcmp_parts_d+0x40>
  b53b74:	30bfeb2e 	bgeu	r6,r2,b53b24 <__fpcmp_parts_d+0x40>
  b53b78:	403fe71e 	bne	r8,zero,b53b18 <__fpcmp_parts_d+0x34>
  b53b7c:	003fef06 	br	b53b3c <__fpcmp_parts_d+0x58>
  b53b80:	11bffa2e 	bgeu	r2,r6,b53b6c <__fpcmp_parts_d+0x88>
  b53b84:	403fe426 	beq	r8,zero,b53b18 <__fpcmp_parts_d+0x34>
  b53b88:	003fec06 	br	b53b3c <__fpcmp_parts_d+0x58>
  b53b8c:	28800117 	ldw	r2,4(r5)
  b53b90:	103fe11e 	bne	r2,zero,b53b18 <__fpcmp_parts_d+0x34>
  b53b94:	003fe906 	br	b53b3c <__fpcmp_parts_d+0x58>
  b53b98:	11bfdd1e 	bne	r2,r6,b53b10 <__fpcmp_parts_d+0x2c>
  b53b9c:	28c00117 	ldw	r3,4(r5)
  b53ba0:	20800117 	ldw	r2,4(r4)
  b53ba4:	1885c83a 	sub	r2,r3,r2
  b53ba8:	f800283a 	ret

00b53bac <__errno>:
  b53bac:	00c02db4 	movhi	r3,182
  b53bb0:	18cbf304 	addi	r3,r3,12236
  b53bb4:	18800017 	ldw	r2,0(r3)
  b53bb8:	f800283a 	ret

00b53bbc <printf>:
  b53bbc:	defffb04 	addi	sp,sp,-20
  b53bc0:	dfc00115 	stw	ra,4(sp)
  b53bc4:	d9400215 	stw	r5,8(sp)
  b53bc8:	d9800315 	stw	r6,12(sp)
  b53bcc:	d9c00415 	stw	r7,16(sp)
  b53bd0:	00802db4 	movhi	r2,182
  b53bd4:	108bf304 	addi	r2,r2,12236
  b53bd8:	10c00017 	ldw	r3,0(r2)
  b53bdc:	200b883a 	mov	r5,r4
  b53be0:	d8800204 	addi	r2,sp,8
  b53be4:	19000217 	ldw	r4,8(r3)
  b53be8:	100d883a 	mov	r6,r2
  b53bec:	d8800015 	stw	r2,0(sp)
  b53bf0:	0b55d340 	call	b55d34 <__vfprintf_internal>
  b53bf4:	dfc00117 	ldw	ra,4(sp)
  b53bf8:	dec00504 	addi	sp,sp,20
  b53bfc:	f800283a 	ret

00b53c00 <_printf_r>:
  b53c00:	defffc04 	addi	sp,sp,-16
  b53c04:	dfc00115 	stw	ra,4(sp)
  b53c08:	d9800215 	stw	r6,8(sp)
  b53c0c:	d9c00315 	stw	r7,12(sp)
  b53c10:	280d883a 	mov	r6,r5
  b53c14:	21400217 	ldw	r5,8(r4)
  b53c18:	d8c00204 	addi	r3,sp,8
  b53c1c:	180f883a 	mov	r7,r3
  b53c20:	d8c00015 	stw	r3,0(sp)
  b53c24:	0b53e880 	call	b53e88 <___vfprintf_internal_r>
  b53c28:	dfc00117 	ldw	ra,4(sp)
  b53c2c:	dec00404 	addi	sp,sp,16
  b53c30:	f800283a 	ret

00b53c34 <_puts_r>:
  b53c34:	defff604 	addi	sp,sp,-40
  b53c38:	dc400715 	stw	r17,28(sp)
  b53c3c:	2023883a 	mov	r17,r4
  b53c40:	2809883a 	mov	r4,r5
  b53c44:	dfc00915 	stw	ra,36(sp)
  b53c48:	dcc00815 	stw	r19,32(sp)
  b53c4c:	2827883a 	mov	r19,r5
  b53c50:	0b53dbc0 	call	b53dbc <strlen>
  b53c54:	89400217 	ldw	r5,8(r17)
  b53c58:	00c02db4 	movhi	r3,182
  b53c5c:	18c44204 	addi	r3,r3,4360
  b53c60:	01c00044 	movi	r7,1
  b53c64:	12000044 	addi	r8,r2,1
  b53c68:	d8c00515 	stw	r3,20(sp)
  b53c6c:	d9c00615 	stw	r7,24(sp)
  b53c70:	d8c00304 	addi	r3,sp,12
  b53c74:	01c00084 	movi	r7,2
  b53c78:	8809883a 	mov	r4,r17
  b53c7c:	d80d883a 	mov	r6,sp
  b53c80:	d8c00015 	stw	r3,0(sp)
  b53c84:	dcc00315 	stw	r19,12(sp)
  b53c88:	da000215 	stw	r8,8(sp)
  b53c8c:	d9c00115 	stw	r7,4(sp)
  b53c90:	d8800415 	stw	r2,16(sp)
  b53c94:	0b57f900 	call	b57f90 <__sfvwrite_r>
  b53c98:	00ffffc4 	movi	r3,-1
  b53c9c:	10000626 	beq	r2,zero,b53cb8 <_puts_r+0x84>
  b53ca0:	1805883a 	mov	r2,r3
  b53ca4:	dfc00917 	ldw	ra,36(sp)
  b53ca8:	dcc00817 	ldw	r19,32(sp)
  b53cac:	dc400717 	ldw	r17,28(sp)
  b53cb0:	dec00a04 	addi	sp,sp,40
  b53cb4:	f800283a 	ret
  b53cb8:	00c00284 	movi	r3,10
  b53cbc:	1805883a 	mov	r2,r3
  b53cc0:	dfc00917 	ldw	ra,36(sp)
  b53cc4:	dcc00817 	ldw	r19,32(sp)
  b53cc8:	dc400717 	ldw	r17,28(sp)
  b53ccc:	dec00a04 	addi	sp,sp,40
  b53cd0:	f800283a 	ret

00b53cd4 <puts>:
  b53cd4:	00802db4 	movhi	r2,182
  b53cd8:	108bf304 	addi	r2,r2,12236
  b53cdc:	200b883a 	mov	r5,r4
  b53ce0:	11000017 	ldw	r4,0(r2)
  b53ce4:	0b53c341 	jmpi	b53c34 <_puts_r>

00b53ce8 <sprintf>:
  b53ce8:	deffe504 	addi	sp,sp,-108
  b53cec:	2013883a 	mov	r9,r4
  b53cf0:	dfc01815 	stw	ra,96(sp)
  b53cf4:	d9801915 	stw	r6,100(sp)
  b53cf8:	d9c01a15 	stw	r7,104(sp)
  b53cfc:	d8801904 	addi	r2,sp,100
  b53d00:	d8800015 	stw	r2,0(sp)
  b53d04:	00802db4 	movhi	r2,182
  b53d08:	108bf304 	addi	r2,r2,12236
  b53d0c:	11000017 	ldw	r4,0(r2)
  b53d10:	d9c00017 	ldw	r7,0(sp)
  b53d14:	00808204 	movi	r2,520
  b53d18:	00e00034 	movhi	r3,32768
  b53d1c:	18ffffc4 	addi	r3,r3,-1
  b53d20:	280d883a 	mov	r6,r5
  b53d24:	d880040d 	sth	r2,16(sp)
  b53d28:	d9400104 	addi	r5,sp,4
  b53d2c:	00bfffc4 	movi	r2,-1
  b53d30:	d8c00615 	stw	r3,24(sp)
  b53d34:	d8c00315 	stw	r3,12(sp)
  b53d38:	da400515 	stw	r9,20(sp)
  b53d3c:	d880048d 	sth	r2,18(sp)
  b53d40:	da400115 	stw	r9,4(sp)
  b53d44:	0b53e880 	call	b53e88 <___vfprintf_internal_r>
  b53d48:	d8c00117 	ldw	r3,4(sp)
  b53d4c:	18000005 	stb	zero,0(r3)
  b53d50:	dfc01817 	ldw	ra,96(sp)
  b53d54:	dec01b04 	addi	sp,sp,108
  b53d58:	f800283a 	ret

00b53d5c <_sprintf_r>:
  b53d5c:	deffe604 	addi	sp,sp,-104
  b53d60:	2813883a 	mov	r9,r5
  b53d64:	dfc01815 	stw	ra,96(sp)
  b53d68:	d9c01915 	stw	r7,100(sp)
  b53d6c:	d8801904 	addi	r2,sp,100
  b53d70:	d8800015 	stw	r2,0(sp)
  b53d74:	100f883a 	mov	r7,r2
  b53d78:	00808204 	movi	r2,520
  b53d7c:	00e00034 	movhi	r3,32768
  b53d80:	18ffffc4 	addi	r3,r3,-1
  b53d84:	d880040d 	sth	r2,16(sp)
  b53d88:	d9400104 	addi	r5,sp,4
  b53d8c:	00bfffc4 	movi	r2,-1
  b53d90:	d8c00615 	stw	r3,24(sp)
  b53d94:	d8c00315 	stw	r3,12(sp)
  b53d98:	da400515 	stw	r9,20(sp)
  b53d9c:	d880048d 	sth	r2,18(sp)
  b53da0:	da400115 	stw	r9,4(sp)
  b53da4:	0b53e880 	call	b53e88 <___vfprintf_internal_r>
  b53da8:	d8c00117 	ldw	r3,4(sp)
  b53dac:	18000005 	stb	zero,0(r3)
  b53db0:	dfc01817 	ldw	ra,96(sp)
  b53db4:	dec01a04 	addi	sp,sp,104
  b53db8:	f800283a 	ret

00b53dbc <strlen>:
  b53dbc:	208000cc 	andi	r2,r4,3
  b53dc0:	2011883a 	mov	r8,r4
  b53dc4:	1000161e 	bne	r2,zero,b53e20 <strlen+0x64>
  b53dc8:	20c00017 	ldw	r3,0(r4)
  b53dcc:	017fbff4 	movhi	r5,65279
  b53dd0:	297fbfc4 	addi	r5,r5,-257
  b53dd4:	01e02074 	movhi	r7,32897
  b53dd8:	39e02004 	addi	r7,r7,-32640
  b53ddc:	1945883a 	add	r2,r3,r5
  b53de0:	11c4703a 	and	r2,r2,r7
  b53de4:	00c6303a 	nor	r3,zero,r3
  b53de8:	1886703a 	and	r3,r3,r2
  b53dec:	18000c1e 	bne	r3,zero,b53e20 <strlen+0x64>
  b53df0:	280d883a 	mov	r6,r5
  b53df4:	380b883a 	mov	r5,r7
  b53df8:	21000104 	addi	r4,r4,4
  b53dfc:	20800017 	ldw	r2,0(r4)
  b53e00:	1187883a 	add	r3,r2,r6
  b53e04:	1946703a 	and	r3,r3,r5
  b53e08:	0084303a 	nor	r2,zero,r2
  b53e0c:	10c4703a 	and	r2,r2,r3
  b53e10:	103ff926 	beq	r2,zero,b53df8 <strlen+0x3c>
  b53e14:	20800007 	ldb	r2,0(r4)
  b53e18:	10000326 	beq	r2,zero,b53e28 <strlen+0x6c>
  b53e1c:	21000044 	addi	r4,r4,1
  b53e20:	20800007 	ldb	r2,0(r4)
  b53e24:	103ffd1e 	bne	r2,zero,b53e1c <strlen+0x60>
  b53e28:	2205c83a 	sub	r2,r4,r8
  b53e2c:	f800283a 	ret

00b53e30 <__sprint_r>:
  b53e30:	30800217 	ldw	r2,8(r6)
  b53e34:	defffe04 	addi	sp,sp,-8
  b53e38:	dc000015 	stw	r16,0(sp)
  b53e3c:	dfc00115 	stw	ra,4(sp)
  b53e40:	3021883a 	mov	r16,r6
  b53e44:	0007883a 	mov	r3,zero
  b53e48:	1000061e 	bne	r2,zero,b53e64 <__sprint_r+0x34>
  b53e4c:	1805883a 	mov	r2,r3
  b53e50:	30000115 	stw	zero,4(r6)
  b53e54:	dfc00117 	ldw	ra,4(sp)
  b53e58:	dc000017 	ldw	r16,0(sp)
  b53e5c:	dec00204 	addi	sp,sp,8
  b53e60:	f800283a 	ret
  b53e64:	0b57f900 	call	b57f90 <__sfvwrite_r>
  b53e68:	1007883a 	mov	r3,r2
  b53e6c:	1805883a 	mov	r2,r3
  b53e70:	80000115 	stw	zero,4(r16)
  b53e74:	80000215 	stw	zero,8(r16)
  b53e78:	dfc00117 	ldw	ra,4(sp)
  b53e7c:	dc000017 	ldw	r16,0(sp)
  b53e80:	dec00204 	addi	sp,sp,8
  b53e84:	f800283a 	ret

00b53e88 <___vfprintf_internal_r>:
  b53e88:	defea404 	addi	sp,sp,-1392
  b53e8c:	dd815815 	stw	r22,1376(sp)
  b53e90:	dc015215 	stw	r16,1352(sp)
  b53e94:	d9c15115 	stw	r7,1348(sp)
  b53e98:	dfc15b15 	stw	ra,1388(sp)
  b53e9c:	df015a15 	stw	fp,1384(sp)
  b53ea0:	ddc15915 	stw	r23,1380(sp)
  b53ea4:	dd415715 	stw	r21,1372(sp)
  b53ea8:	dd015615 	stw	r20,1368(sp)
  b53eac:	dcc15515 	stw	r19,1364(sp)
  b53eb0:	dc815415 	stw	r18,1360(sp)
  b53eb4:	dc415315 	stw	r17,1356(sp)
  b53eb8:	282d883a 	mov	r22,r5
  b53ebc:	3021883a 	mov	r16,r6
  b53ec0:	d9014f15 	stw	r4,1340(sp)
  b53ec4:	0b585b40 	call	b585b4 <_localeconv_r>
  b53ec8:	10800017 	ldw	r2,0(r2)
  b53ecc:	d9c15117 	ldw	r7,1348(sp)
  b53ed0:	d8814915 	stw	r2,1316(sp)
  b53ed4:	d8814f17 	ldw	r2,1340(sp)
  b53ed8:	10000226 	beq	r2,zero,b53ee4 <___vfprintf_internal_r+0x5c>
  b53edc:	10800e17 	ldw	r2,56(r2)
  b53ee0:	10020d26 	beq	r2,zero,b54718 <___vfprintf_internal_r+0x890>
  b53ee4:	b080030b 	ldhu	r2,12(r22)
  b53ee8:	1080020c 	andi	r2,r2,8
  b53eec:	10020e26 	beq	r2,zero,b54728 <___vfprintf_internal_r+0x8a0>
  b53ef0:	b0800417 	ldw	r2,16(r22)
  b53ef4:	10020c26 	beq	r2,zero,b54728 <___vfprintf_internal_r+0x8a0>
  b53ef8:	b200030b 	ldhu	r8,12(r22)
  b53efc:	00800284 	movi	r2,10
  b53f00:	40c0068c 	andi	r3,r8,26
  b53f04:	18802f1e 	bne	r3,r2,b53fc4 <___vfprintf_internal_r+0x13c>
  b53f08:	b080038f 	ldh	r2,14(r22)
  b53f0c:	10002d16 	blt	r2,zero,b53fc4 <___vfprintf_internal_r+0x13c>
  b53f10:	b240038b 	ldhu	r9,14(r22)
  b53f14:	b2800717 	ldw	r10,28(r22)
  b53f18:	b2c00917 	ldw	r11,36(r22)
  b53f1c:	d9014f17 	ldw	r4,1340(sp)
  b53f20:	dc402904 	addi	r17,sp,164
  b53f24:	d8804004 	addi	r2,sp,256
  b53f28:	00c10004 	movi	r3,1024
  b53f2c:	423fff4c 	andi	r8,r8,65533
  b53f30:	800d883a 	mov	r6,r16
  b53f34:	880b883a 	mov	r5,r17
  b53f38:	da002c0d 	sth	r8,176(sp)
  b53f3c:	da402c8d 	sth	r9,178(sp)
  b53f40:	da803015 	stw	r10,192(sp)
  b53f44:	dac03215 	stw	r11,200(sp)
  b53f48:	d8802d15 	stw	r2,180(sp)
  b53f4c:	d8c02e15 	stw	r3,184(sp)
  b53f50:	d8802915 	stw	r2,164(sp)
  b53f54:	d8c02b15 	stw	r3,172(sp)
  b53f58:	d8002f15 	stw	zero,188(sp)
  b53f5c:	0b53e880 	call	b53e88 <___vfprintf_internal_r>
  b53f60:	d8814b15 	stw	r2,1324(sp)
  b53f64:	10000416 	blt	r2,zero,b53f78 <___vfprintf_internal_r+0xf0>
  b53f68:	d9014f17 	ldw	r4,1340(sp)
  b53f6c:	880b883a 	mov	r5,r17
  b53f70:	0b576600 	call	b57660 <_fflush_r>
  b53f74:	1002321e 	bne	r2,zero,b54840 <___vfprintf_internal_r+0x9b8>
  b53f78:	d8802c0b 	ldhu	r2,176(sp)
  b53f7c:	1080100c 	andi	r2,r2,64
  b53f80:	10000326 	beq	r2,zero,b53f90 <___vfprintf_internal_r+0x108>
  b53f84:	b080030b 	ldhu	r2,12(r22)
  b53f88:	10801014 	ori	r2,r2,64
  b53f8c:	b080030d 	sth	r2,12(r22)
  b53f90:	d8814b17 	ldw	r2,1324(sp)
  b53f94:	dfc15b17 	ldw	ra,1388(sp)
  b53f98:	df015a17 	ldw	fp,1384(sp)
  b53f9c:	ddc15917 	ldw	r23,1380(sp)
  b53fa0:	dd815817 	ldw	r22,1376(sp)
  b53fa4:	dd415717 	ldw	r21,1372(sp)
  b53fa8:	dd015617 	ldw	r20,1368(sp)
  b53fac:	dcc15517 	ldw	r19,1364(sp)
  b53fb0:	dc815417 	ldw	r18,1360(sp)
  b53fb4:	dc415317 	ldw	r17,1356(sp)
  b53fb8:	dc015217 	ldw	r16,1352(sp)
  b53fbc:	dec15c04 	addi	sp,sp,1392
  b53fc0:	f800283a 	ret
  b53fc4:	0005883a 	mov	r2,zero
  b53fc8:	0007883a 	mov	r3,zero
  b53fcc:	dd401904 	addi	r21,sp,100
  b53fd0:	d8814215 	stw	r2,1288(sp)
  b53fd4:	802f883a 	mov	r23,r16
  b53fd8:	d8c14315 	stw	r3,1292(sp)
  b53fdc:	d8014b15 	stw	zero,1324(sp)
  b53fe0:	d8014815 	stw	zero,1312(sp)
  b53fe4:	d8014415 	stw	zero,1296(sp)
  b53fe8:	d8014715 	stw	zero,1308(sp)
  b53fec:	dd400c15 	stw	r21,48(sp)
  b53ff0:	d8000e15 	stw	zero,56(sp)
  b53ff4:	d8000d15 	stw	zero,52(sp)
  b53ff8:	b8800007 	ldb	r2,0(r23)
  b53ffc:	10001926 	beq	r2,zero,b54064 <___vfprintf_internal_r+0x1dc>
  b54000:	00c00944 	movi	r3,37
  b54004:	10c01726 	beq	r2,r3,b54064 <___vfprintf_internal_r+0x1dc>
  b54008:	b821883a 	mov	r16,r23
  b5400c:	00000106 	br	b54014 <___vfprintf_internal_r+0x18c>
  b54010:	10c00326 	beq	r2,r3,b54020 <___vfprintf_internal_r+0x198>
  b54014:	84000044 	addi	r16,r16,1
  b54018:	80800007 	ldb	r2,0(r16)
  b5401c:	103ffc1e 	bne	r2,zero,b54010 <___vfprintf_internal_r+0x188>
  b54020:	85e7c83a 	sub	r19,r16,r23
  b54024:	98000e26 	beq	r19,zero,b54060 <___vfprintf_internal_r+0x1d8>
  b54028:	dc800e17 	ldw	r18,56(sp)
  b5402c:	dc400d17 	ldw	r17,52(sp)
  b54030:	008001c4 	movi	r2,7
  b54034:	94e5883a 	add	r18,r18,r19
  b54038:	8c400044 	addi	r17,r17,1
  b5403c:	adc00015 	stw	r23,0(r21)
  b54040:	dc800e15 	stw	r18,56(sp)
  b54044:	acc00115 	stw	r19,4(r21)
  b54048:	dc400d15 	stw	r17,52(sp)
  b5404c:	14428b16 	blt	r2,r17,b54a7c <___vfprintf_internal_r+0xbf4>
  b54050:	ad400204 	addi	r21,r21,8
  b54054:	d9014b17 	ldw	r4,1324(sp)
  b54058:	24c9883a 	add	r4,r4,r19
  b5405c:	d9014b15 	stw	r4,1324(sp)
  b54060:	802f883a 	mov	r23,r16
  b54064:	b8800007 	ldb	r2,0(r23)
  b54068:	10013c26 	beq	r2,zero,b5455c <___vfprintf_internal_r+0x6d4>
  b5406c:	bdc00044 	addi	r23,r23,1
  b54070:	d8000405 	stb	zero,16(sp)
  b54074:	b8c00007 	ldb	r3,0(r23)
  b54078:	04ffffc4 	movi	r19,-1
  b5407c:	d8014c15 	stw	zero,1328(sp)
  b54080:	d8014a15 	stw	zero,1320(sp)
  b54084:	d8c14d15 	stw	r3,1332(sp)
  b54088:	bdc00044 	addi	r23,r23,1
  b5408c:	d9414d17 	ldw	r5,1332(sp)
  b54090:	00801604 	movi	r2,88
  b54094:	28fff804 	addi	r3,r5,-32
  b54098:	10c06036 	bltu	r2,r3,b5421c <___vfprintf_internal_r+0x394>
  b5409c:	18c5883a 	add	r2,r3,r3
  b540a0:	1085883a 	add	r2,r2,r2
  b540a4:	00c02d74 	movhi	r3,181
  b540a8:	18d02e04 	addi	r3,r3,16568
  b540ac:	10c5883a 	add	r2,r2,r3
  b540b0:	11000017 	ldw	r4,0(r2)
  b540b4:	2000683a 	jmp	r4
  b540b8:	00b5502c 	andhi	r2,zero,54592
  b540bc:	00b5421c 	xori	r2,zero,54536
  b540c0:	00b5421c 	xori	r2,zero,54536
  b540c4:	00b55018 	cmpnei	r2,zero,-10944
  b540c8:	00b5421c 	xori	r2,zero,54536
  b540cc:	00b5421c 	xori	r2,zero,54536
  b540d0:	00b5421c 	xori	r2,zero,54536
  b540d4:	00b5421c 	xori	r2,zero,54536
  b540d8:	00b5421c 	xori	r2,zero,54536
  b540dc:	00b5421c 	xori	r2,zero,54536
  b540e0:	00b54df8 	rdprs	r2,zero,-10953
  b540e4:	00b55008 	cmpgei	r2,zero,-10944
  b540e8:	00b5421c 	xori	r2,zero,54536
  b540ec:	00b54e10 	cmplti	r2,zero,-10952
  b540f0:	00b550a4 	muli	r2,zero,-10942
  b540f4:	00b5421c 	xori	r2,zero,54536
  b540f8:	00b55090 	cmplti	r2,zero,-10942
  b540fc:	00b55058 	cmpnei	r2,zero,-10943
  b54100:	00b55058 	cmpnei	r2,zero,-10943
  b54104:	00b55058 	cmpnei	r2,zero,-10943
  b54108:	00b55058 	cmpnei	r2,zero,-10943
  b5410c:	00b55058 	cmpnei	r2,zero,-10943
  b54110:	00b55058 	cmpnei	r2,zero,-10943
  b54114:	00b55058 	cmpnei	r2,zero,-10943
  b54118:	00b55058 	cmpnei	r2,zero,-10943
  b5411c:	00b55058 	cmpnei	r2,zero,-10943
  b54120:	00b5421c 	xori	r2,zero,54536
  b54124:	00b5421c 	xori	r2,zero,54536
  b54128:	00b5421c 	xori	r2,zero,54536
  b5412c:	00b5421c 	xori	r2,zero,54536
  b54130:	00b5421c 	xori	r2,zero,54536
  b54134:	00b5421c 	xori	r2,zero,54536
  b54138:	00b5421c 	xori	r2,zero,54536
  b5413c:	00b5421c 	xori	r2,zero,54536
  b54140:	00b5421c 	xori	r2,zero,54536
  b54144:	00b5421c 	xori	r2,zero,54536
  b54148:	00b54874 	movhi	r2,54561
  b5414c:	00b54ee0 	cmpeqi	r2,zero,-10949
  b54150:	00b5421c 	xori	r2,zero,54536
  b54154:	00b54ee0 	cmpeqi	r2,zero,-10949
  b54158:	00b5421c 	xori	r2,zero,54536
  b5415c:	00b5421c 	xori	r2,zero,54536
  b54160:	00b5421c 	xori	r2,zero,54536
  b54164:	00b5421c 	xori	r2,zero,54536
  b54168:	00b55044 	movi	r2,-10943
  b5416c:	00b5421c 	xori	r2,zero,54536
  b54170:	00b5421c 	xori	r2,zero,54536
  b54174:	00b54928 	cmpgeui	r2,zero,54564
  b54178:	00b5421c 	xori	r2,zero,54536
  b5417c:	00b5421c 	xori	r2,zero,54536
  b54180:	00b5421c 	xori	r2,zero,54536
  b54184:	00b5421c 	xori	r2,zero,54536
  b54188:	00b5421c 	xori	r2,zero,54536
  b5418c:	00b54974 	movhi	r2,54565
  b54190:	00b5421c 	xori	r2,zero,54536
  b54194:	00b5421c 	xori	r2,zero,54536
  b54198:	00b54f94 	movui	r2,54590
  b5419c:	00b5421c 	xori	r2,zero,54536
  b541a0:	00b5421c 	xori	r2,zero,54536
  b541a4:	00b5421c 	xori	r2,zero,54536
  b541a8:	00b5421c 	xori	r2,zero,54536
  b541ac:	00b5421c 	xori	r2,zero,54536
  b541b0:	00b5421c 	xori	r2,zero,54536
  b541b4:	00b5421c 	xori	r2,zero,54536
  b541b8:	00b5421c 	xori	r2,zero,54536
  b541bc:	00b5421c 	xori	r2,zero,54536
  b541c0:	00b5421c 	xori	r2,zero,54536
  b541c4:	00b54f68 	cmpgeui	r2,zero,54589
  b541c8:	00b54880 	call	b5488 <__alt_mem_onchip_memory2_3+0xae488>
  b541cc:	00b54ee0 	cmpeqi	r2,zero,-10949
  b541d0:	00b54ee0 	cmpeqi	r2,zero,-10949
  b541d4:	00b54ee0 	cmpeqi	r2,zero,-10949
  b541d8:	00b54ecc 	andi	r2,zero,54587
  b541dc:	00b54880 	call	b5488 <__alt_mem_onchip_memory2_3+0xae488>
  b541e0:	00b5421c 	xori	r2,zero,54536
  b541e4:	00b5421c 	xori	r2,zero,54536
  b541e8:	00b54e54 	movui	r2,54585
  b541ec:	00b5421c 	xori	r2,zero,54536
  b541f0:	00b54e24 	muli	r2,zero,-10952
  b541f4:	00b54934 	movhi	r2,54564
  b541f8:	00b54e84 	movi	r2,-10950
  b541fc:	00b54e70 	cmpltui	r2,zero,54585
  b54200:	00b5421c 	xori	r2,zero,54536
  b54204:	00b55100 	call	b5510 <__alt_mem_onchip_memory2_3+0xae510>
  b54208:	00b5421c 	xori	r2,zero,54536
  b5420c:	00b54980 	call	b5498 <__alt_mem_onchip_memory2_3+0xae498>
  b54210:	00b5421c 	xori	r2,zero,54536
  b54214:	00b5421c 	xori	r2,zero,54536
  b54218:	00b54ff8 	rdprs	r2,zero,-10945
  b5421c:	d9014d17 	ldw	r4,1332(sp)
  b54220:	2000ce26 	beq	r4,zero,b5455c <___vfprintf_internal_r+0x6d4>
  b54224:	01400044 	movi	r5,1
  b54228:	d9800f04 	addi	r6,sp,60
  b5422c:	d9c14015 	stw	r7,1280(sp)
  b54230:	d9414515 	stw	r5,1300(sp)
  b54234:	d9814115 	stw	r6,1284(sp)
  b54238:	280f883a 	mov	r7,r5
  b5423c:	d9000f05 	stb	r4,60(sp)
  b54240:	d8000405 	stb	zero,16(sp)
  b54244:	d8014615 	stw	zero,1304(sp)
  b54248:	d8c14c17 	ldw	r3,1328(sp)
  b5424c:	1880008c 	andi	r2,r3,2
  b54250:	1005003a 	cmpeq	r2,r2,zero
  b54254:	d8815015 	stw	r2,1344(sp)
  b54258:	1000031e 	bne	r2,zero,b54268 <___vfprintf_internal_r+0x3e0>
  b5425c:	d9014517 	ldw	r4,1300(sp)
  b54260:	21000084 	addi	r4,r4,2
  b54264:	d9014515 	stw	r4,1300(sp)
  b54268:	d9414c17 	ldw	r5,1328(sp)
  b5426c:	2940210c 	andi	r5,r5,132
  b54270:	d9414e15 	stw	r5,1336(sp)
  b54274:	28002d1e 	bne	r5,zero,b5432c <___vfprintf_internal_r+0x4a4>
  b54278:	d9814a17 	ldw	r6,1320(sp)
  b5427c:	d8814517 	ldw	r2,1300(sp)
  b54280:	30a1c83a 	sub	r16,r6,r2
  b54284:	0400290e 	bge	zero,r16,b5432c <___vfprintf_internal_r+0x4a4>
  b54288:	00800404 	movi	r2,16
  b5428c:	1404580e 	bge	r2,r16,b553f0 <___vfprintf_internal_r+0x1568>
  b54290:	dc800e17 	ldw	r18,56(sp)
  b54294:	dc400d17 	ldw	r17,52(sp)
  b54298:	1027883a 	mov	r19,r2
  b5429c:	07002db4 	movhi	fp,182
  b542a0:	e7045d84 	addi	fp,fp,4470
  b542a4:	050001c4 	movi	r20,7
  b542a8:	00000306 	br	b542b8 <___vfprintf_internal_r+0x430>
  b542ac:	843ffc04 	addi	r16,r16,-16
  b542b0:	ad400204 	addi	r21,r21,8
  b542b4:	9c00130e 	bge	r19,r16,b54304 <___vfprintf_internal_r+0x47c>
  b542b8:	94800404 	addi	r18,r18,16
  b542bc:	8c400044 	addi	r17,r17,1
  b542c0:	af000015 	stw	fp,0(r21)
  b542c4:	acc00115 	stw	r19,4(r21)
  b542c8:	dc800e15 	stw	r18,56(sp)
  b542cc:	dc400d15 	stw	r17,52(sp)
  b542d0:	a47ff60e 	bge	r20,r17,b542ac <___vfprintf_internal_r+0x424>
  b542d4:	d9014f17 	ldw	r4,1340(sp)
  b542d8:	b00b883a 	mov	r5,r22
  b542dc:	d9800c04 	addi	r6,sp,48
  b542e0:	d9c15115 	stw	r7,1348(sp)
  b542e4:	0b53e300 	call	b53e30 <__sprint_r>
  b542e8:	d9c15117 	ldw	r7,1348(sp)
  b542ec:	10009e1e 	bne	r2,zero,b54568 <___vfprintf_internal_r+0x6e0>
  b542f0:	843ffc04 	addi	r16,r16,-16
  b542f4:	dc800e17 	ldw	r18,56(sp)
  b542f8:	dc400d17 	ldw	r17,52(sp)
  b542fc:	dd401904 	addi	r21,sp,100
  b54300:	9c3fed16 	blt	r19,r16,b542b8 <___vfprintf_internal_r+0x430>
  b54304:	9425883a 	add	r18,r18,r16
  b54308:	8c400044 	addi	r17,r17,1
  b5430c:	008001c4 	movi	r2,7
  b54310:	af000015 	stw	fp,0(r21)
  b54314:	ac000115 	stw	r16,4(r21)
  b54318:	dc800e15 	stw	r18,56(sp)
  b5431c:	dc400d15 	stw	r17,52(sp)
  b54320:	1441f516 	blt	r2,r17,b54af8 <___vfprintf_internal_r+0xc70>
  b54324:	ad400204 	addi	r21,r21,8
  b54328:	00000206 	br	b54334 <___vfprintf_internal_r+0x4ac>
  b5432c:	dc800e17 	ldw	r18,56(sp)
  b54330:	dc400d17 	ldw	r17,52(sp)
  b54334:	d8800407 	ldb	r2,16(sp)
  b54338:	10000b26 	beq	r2,zero,b54368 <___vfprintf_internal_r+0x4e0>
  b5433c:	00800044 	movi	r2,1
  b54340:	94800044 	addi	r18,r18,1
  b54344:	8c400044 	addi	r17,r17,1
  b54348:	a8800115 	stw	r2,4(r21)
  b5434c:	d8c00404 	addi	r3,sp,16
  b54350:	008001c4 	movi	r2,7
  b54354:	a8c00015 	stw	r3,0(r21)
  b54358:	dc800e15 	stw	r18,56(sp)
  b5435c:	dc400d15 	stw	r17,52(sp)
  b54360:	1441da16 	blt	r2,r17,b54acc <___vfprintf_internal_r+0xc44>
  b54364:	ad400204 	addi	r21,r21,8
  b54368:	d9015017 	ldw	r4,1344(sp)
  b5436c:	20000b1e 	bne	r4,zero,b5439c <___vfprintf_internal_r+0x514>
  b54370:	d8800444 	addi	r2,sp,17
  b54374:	94800084 	addi	r18,r18,2
  b54378:	8c400044 	addi	r17,r17,1
  b5437c:	a8800015 	stw	r2,0(r21)
  b54380:	00c00084 	movi	r3,2
  b54384:	008001c4 	movi	r2,7
  b54388:	a8c00115 	stw	r3,4(r21)
  b5438c:	dc800e15 	stw	r18,56(sp)
  b54390:	dc400d15 	stw	r17,52(sp)
  b54394:	1441c216 	blt	r2,r17,b54aa0 <___vfprintf_internal_r+0xc18>
  b54398:	ad400204 	addi	r21,r21,8
  b5439c:	d9414e17 	ldw	r5,1336(sp)
  b543a0:	00802004 	movi	r2,128
  b543a4:	2880b126 	beq	r5,r2,b5466c <___vfprintf_internal_r+0x7e4>
  b543a8:	d8c14617 	ldw	r3,1304(sp)
  b543ac:	19e1c83a 	sub	r16,r3,r7
  b543b0:	0400260e 	bge	zero,r16,b5444c <___vfprintf_internal_r+0x5c4>
  b543b4:	00800404 	movi	r2,16
  b543b8:	1403c90e 	bge	r2,r16,b552e0 <___vfprintf_internal_r+0x1458>
  b543bc:	1027883a 	mov	r19,r2
  b543c0:	07002db4 	movhi	fp,182
  b543c4:	e7045984 	addi	fp,fp,4454
  b543c8:	050001c4 	movi	r20,7
  b543cc:	00000306 	br	b543dc <___vfprintf_internal_r+0x554>
  b543d0:	843ffc04 	addi	r16,r16,-16
  b543d4:	ad400204 	addi	r21,r21,8
  b543d8:	9c00130e 	bge	r19,r16,b54428 <___vfprintf_internal_r+0x5a0>
  b543dc:	94800404 	addi	r18,r18,16
  b543e0:	8c400044 	addi	r17,r17,1
  b543e4:	af000015 	stw	fp,0(r21)
  b543e8:	acc00115 	stw	r19,4(r21)
  b543ec:	dc800e15 	stw	r18,56(sp)
  b543f0:	dc400d15 	stw	r17,52(sp)
  b543f4:	a47ff60e 	bge	r20,r17,b543d0 <___vfprintf_internal_r+0x548>
  b543f8:	d9014f17 	ldw	r4,1340(sp)
  b543fc:	b00b883a 	mov	r5,r22
  b54400:	d9800c04 	addi	r6,sp,48
  b54404:	d9c15115 	stw	r7,1348(sp)
  b54408:	0b53e300 	call	b53e30 <__sprint_r>
  b5440c:	d9c15117 	ldw	r7,1348(sp)
  b54410:	1000551e 	bne	r2,zero,b54568 <___vfprintf_internal_r+0x6e0>
  b54414:	843ffc04 	addi	r16,r16,-16
  b54418:	dc800e17 	ldw	r18,56(sp)
  b5441c:	dc400d17 	ldw	r17,52(sp)
  b54420:	dd401904 	addi	r21,sp,100
  b54424:	9c3fed16 	blt	r19,r16,b543dc <___vfprintf_internal_r+0x554>
  b54428:	9425883a 	add	r18,r18,r16
  b5442c:	8c400044 	addi	r17,r17,1
  b54430:	008001c4 	movi	r2,7
  b54434:	af000015 	stw	fp,0(r21)
  b54438:	ac000115 	stw	r16,4(r21)
  b5443c:	dc800e15 	stw	r18,56(sp)
  b54440:	dc400d15 	stw	r17,52(sp)
  b54444:	14418216 	blt	r2,r17,b54a50 <___vfprintf_internal_r+0xbc8>
  b54448:	ad400204 	addi	r21,r21,8
  b5444c:	d9014c17 	ldw	r4,1328(sp)
  b54450:	2080400c 	andi	r2,r4,256
  b54454:	10004a1e 	bne	r2,zero,b54580 <___vfprintf_internal_r+0x6f8>
  b54458:	d9414117 	ldw	r5,1284(sp)
  b5445c:	91e5883a 	add	r18,r18,r7
  b54460:	8c400044 	addi	r17,r17,1
  b54464:	008001c4 	movi	r2,7
  b54468:	a9400015 	stw	r5,0(r21)
  b5446c:	a9c00115 	stw	r7,4(r21)
  b54470:	dc800e15 	stw	r18,56(sp)
  b54474:	dc400d15 	stw	r17,52(sp)
  b54478:	14416716 	blt	r2,r17,b54a18 <___vfprintf_internal_r+0xb90>
  b5447c:	a8c00204 	addi	r3,r21,8
  b54480:	d9814c17 	ldw	r6,1328(sp)
  b54484:	3080010c 	andi	r2,r6,4
  b54488:	10002826 	beq	r2,zero,b5452c <___vfprintf_internal_r+0x6a4>
  b5448c:	d8814a17 	ldw	r2,1320(sp)
  b54490:	d9014517 	ldw	r4,1300(sp)
  b54494:	1121c83a 	sub	r16,r2,r4
  b54498:	0400240e 	bge	zero,r16,b5452c <___vfprintf_internal_r+0x6a4>
  b5449c:	00800404 	movi	r2,16
  b544a0:	14044f0e 	bge	r2,r16,b555e0 <___vfprintf_internal_r+0x1758>
  b544a4:	dc400d17 	ldw	r17,52(sp)
  b544a8:	1027883a 	mov	r19,r2
  b544ac:	07002db4 	movhi	fp,182
  b544b0:	e7045d84 	addi	fp,fp,4470
  b544b4:	050001c4 	movi	r20,7
  b544b8:	00000306 	br	b544c8 <___vfprintf_internal_r+0x640>
  b544bc:	843ffc04 	addi	r16,r16,-16
  b544c0:	18c00204 	addi	r3,r3,8
  b544c4:	9c00110e 	bge	r19,r16,b5450c <___vfprintf_internal_r+0x684>
  b544c8:	94800404 	addi	r18,r18,16
  b544cc:	8c400044 	addi	r17,r17,1
  b544d0:	1f000015 	stw	fp,0(r3)
  b544d4:	1cc00115 	stw	r19,4(r3)
  b544d8:	dc800e15 	stw	r18,56(sp)
  b544dc:	dc400d15 	stw	r17,52(sp)
  b544e0:	a47ff60e 	bge	r20,r17,b544bc <___vfprintf_internal_r+0x634>
  b544e4:	d9014f17 	ldw	r4,1340(sp)
  b544e8:	b00b883a 	mov	r5,r22
  b544ec:	d9800c04 	addi	r6,sp,48
  b544f0:	0b53e300 	call	b53e30 <__sprint_r>
  b544f4:	10001c1e 	bne	r2,zero,b54568 <___vfprintf_internal_r+0x6e0>
  b544f8:	843ffc04 	addi	r16,r16,-16
  b544fc:	dc800e17 	ldw	r18,56(sp)
  b54500:	dc400d17 	ldw	r17,52(sp)
  b54504:	d8c01904 	addi	r3,sp,100
  b54508:	9c3fef16 	blt	r19,r16,b544c8 <___vfprintf_internal_r+0x640>
  b5450c:	9425883a 	add	r18,r18,r16
  b54510:	8c400044 	addi	r17,r17,1
  b54514:	008001c4 	movi	r2,7
  b54518:	1f000015 	stw	fp,0(r3)
  b5451c:	1c000115 	stw	r16,4(r3)
  b54520:	dc800e15 	stw	r18,56(sp)
  b54524:	dc400d15 	stw	r17,52(sp)
  b54528:	1440cb16 	blt	r2,r17,b54858 <___vfprintf_internal_r+0x9d0>
  b5452c:	d8814a17 	ldw	r2,1320(sp)
  b54530:	d9414517 	ldw	r5,1300(sp)
  b54534:	1140010e 	bge	r2,r5,b5453c <___vfprintf_internal_r+0x6b4>
  b54538:	2805883a 	mov	r2,r5
  b5453c:	d9814b17 	ldw	r6,1324(sp)
  b54540:	308d883a 	add	r6,r6,r2
  b54544:	d9814b15 	stw	r6,1324(sp)
  b54548:	90013b1e 	bne	r18,zero,b54a38 <___vfprintf_internal_r+0xbb0>
  b5454c:	d9c14017 	ldw	r7,1280(sp)
  b54550:	dd401904 	addi	r21,sp,100
  b54554:	d8000d15 	stw	zero,52(sp)
  b54558:	003ea706 	br	b53ff8 <___vfprintf_internal_r+0x170>
  b5455c:	d8800e17 	ldw	r2,56(sp)
  b54560:	10053f1e 	bne	r2,zero,b55a60 <___vfprintf_internal_r+0x1bd8>
  b54564:	d8000d15 	stw	zero,52(sp)
  b54568:	b080030b 	ldhu	r2,12(r22)
  b5456c:	1080100c 	andi	r2,r2,64
  b54570:	103e8726 	beq	r2,zero,b53f90 <___vfprintf_internal_r+0x108>
  b54574:	00bfffc4 	movi	r2,-1
  b54578:	d8814b15 	stw	r2,1324(sp)
  b5457c:	003e8406 	br	b53f90 <___vfprintf_internal_r+0x108>
  b54580:	d9814d17 	ldw	r6,1332(sp)
  b54584:	00801944 	movi	r2,101
  b54588:	11806e16 	blt	r2,r6,b54744 <___vfprintf_internal_r+0x8bc>
  b5458c:	d9414717 	ldw	r5,1308(sp)
  b54590:	00c00044 	movi	r3,1
  b54594:	1943430e 	bge	r3,r5,b552a4 <___vfprintf_internal_r+0x141c>
  b54598:	d8814117 	ldw	r2,1284(sp)
  b5459c:	94800044 	addi	r18,r18,1
  b545a0:	8c400044 	addi	r17,r17,1
  b545a4:	a8800015 	stw	r2,0(r21)
  b545a8:	008001c4 	movi	r2,7
  b545ac:	a8c00115 	stw	r3,4(r21)
  b545b0:	dc800e15 	stw	r18,56(sp)
  b545b4:	dc400d15 	stw	r17,52(sp)
  b545b8:	1441ca16 	blt	r2,r17,b54ce4 <___vfprintf_internal_r+0xe5c>
  b545bc:	a8c00204 	addi	r3,r21,8
  b545c0:	d9014917 	ldw	r4,1316(sp)
  b545c4:	00800044 	movi	r2,1
  b545c8:	94800044 	addi	r18,r18,1
  b545cc:	8c400044 	addi	r17,r17,1
  b545d0:	18800115 	stw	r2,4(r3)
  b545d4:	008001c4 	movi	r2,7
  b545d8:	19000015 	stw	r4,0(r3)
  b545dc:	dc800e15 	stw	r18,56(sp)
  b545e0:	dc400d15 	stw	r17,52(sp)
  b545e4:	1441b616 	blt	r2,r17,b54cc0 <___vfprintf_internal_r+0xe38>
  b545e8:	1cc00204 	addi	r19,r3,8
  b545ec:	d9014217 	ldw	r4,1288(sp)
  b545f0:	d9414317 	ldw	r5,1292(sp)
  b545f4:	000d883a 	mov	r6,zero
  b545f8:	000f883a 	mov	r7,zero
  b545fc:	0b531500 	call	b53150 <__nedf2>
  b54600:	10017426 	beq	r2,zero,b54bd4 <___vfprintf_internal_r+0xd4c>
  b54604:	d9414717 	ldw	r5,1308(sp)
  b54608:	d9814117 	ldw	r6,1284(sp)
  b5460c:	8c400044 	addi	r17,r17,1
  b54610:	2c85883a 	add	r2,r5,r18
  b54614:	14bfffc4 	addi	r18,r2,-1
  b54618:	28bfffc4 	addi	r2,r5,-1
  b5461c:	30c00044 	addi	r3,r6,1
  b54620:	98800115 	stw	r2,4(r19)
  b54624:	008001c4 	movi	r2,7
  b54628:	98c00015 	stw	r3,0(r19)
  b5462c:	dc800e15 	stw	r18,56(sp)
  b54630:	dc400d15 	stw	r17,52(sp)
  b54634:	14418e16 	blt	r2,r17,b54c70 <___vfprintf_internal_r+0xde8>
  b54638:	9cc00204 	addi	r19,r19,8
  b5463c:	d9414817 	ldw	r5,1312(sp)
  b54640:	d8800804 	addi	r2,sp,32
  b54644:	8c400044 	addi	r17,r17,1
  b54648:	9165883a 	add	r18,r18,r5
  b5464c:	98800015 	stw	r2,0(r19)
  b54650:	008001c4 	movi	r2,7
  b54654:	99400115 	stw	r5,4(r19)
  b54658:	dc800e15 	stw	r18,56(sp)
  b5465c:	dc400d15 	stw	r17,52(sp)
  b54660:	1440ed16 	blt	r2,r17,b54a18 <___vfprintf_internal_r+0xb90>
  b54664:	98c00204 	addi	r3,r19,8
  b54668:	003f8506 	br	b54480 <___vfprintf_internal_r+0x5f8>
  b5466c:	d9814a17 	ldw	r6,1320(sp)
  b54670:	d8814517 	ldw	r2,1300(sp)
  b54674:	30a1c83a 	sub	r16,r6,r2
  b54678:	043f4b0e 	bge	zero,r16,b543a8 <___vfprintf_internal_r+0x520>
  b5467c:	00800404 	movi	r2,16
  b54680:	1404340e 	bge	r2,r16,b55754 <___vfprintf_internal_r+0x18cc>
  b54684:	1027883a 	mov	r19,r2
  b54688:	07002db4 	movhi	fp,182
  b5468c:	e7045984 	addi	fp,fp,4454
  b54690:	050001c4 	movi	r20,7
  b54694:	00000306 	br	b546a4 <___vfprintf_internal_r+0x81c>
  b54698:	843ffc04 	addi	r16,r16,-16
  b5469c:	ad400204 	addi	r21,r21,8
  b546a0:	9c00130e 	bge	r19,r16,b546f0 <___vfprintf_internal_r+0x868>
  b546a4:	94800404 	addi	r18,r18,16
  b546a8:	8c400044 	addi	r17,r17,1
  b546ac:	af000015 	stw	fp,0(r21)
  b546b0:	acc00115 	stw	r19,4(r21)
  b546b4:	dc800e15 	stw	r18,56(sp)
  b546b8:	dc400d15 	stw	r17,52(sp)
  b546bc:	a47ff60e 	bge	r20,r17,b54698 <___vfprintf_internal_r+0x810>
  b546c0:	d9014f17 	ldw	r4,1340(sp)
  b546c4:	b00b883a 	mov	r5,r22
  b546c8:	d9800c04 	addi	r6,sp,48
  b546cc:	d9c15115 	stw	r7,1348(sp)
  b546d0:	0b53e300 	call	b53e30 <__sprint_r>
  b546d4:	d9c15117 	ldw	r7,1348(sp)
  b546d8:	103fa31e 	bne	r2,zero,b54568 <___vfprintf_internal_r+0x6e0>
  b546dc:	843ffc04 	addi	r16,r16,-16
  b546e0:	dc800e17 	ldw	r18,56(sp)
  b546e4:	dc400d17 	ldw	r17,52(sp)
  b546e8:	dd401904 	addi	r21,sp,100
  b546ec:	9c3fed16 	blt	r19,r16,b546a4 <___vfprintf_internal_r+0x81c>
  b546f0:	9425883a 	add	r18,r18,r16
  b546f4:	8c400044 	addi	r17,r17,1
  b546f8:	008001c4 	movi	r2,7
  b546fc:	af000015 	stw	fp,0(r21)
  b54700:	ac000115 	stw	r16,4(r21)
  b54704:	dc800e15 	stw	r18,56(sp)
  b54708:	dc400d15 	stw	r17,52(sp)
  b5470c:	14416116 	blt	r2,r17,b54c94 <___vfprintf_internal_r+0xe0c>
  b54710:	ad400204 	addi	r21,r21,8
  b54714:	003f2406 	br	b543a8 <___vfprintf_internal_r+0x520>
  b54718:	d9014f17 	ldw	r4,1340(sp)
  b5471c:	0b578f80 	call	b578f8 <__sinit>
  b54720:	d9c15117 	ldw	r7,1348(sp)
  b54724:	003def06 	br	b53ee4 <___vfprintf_internal_r+0x5c>
  b54728:	d9014f17 	ldw	r4,1340(sp)
  b5472c:	b00b883a 	mov	r5,r22
  b54730:	d9c15115 	stw	r7,1348(sp)
  b54734:	0b55d580 	call	b55d58 <__swsetup_r>
  b54738:	d9c15117 	ldw	r7,1348(sp)
  b5473c:	103dee26 	beq	r2,zero,b53ef8 <___vfprintf_internal_r+0x70>
  b54740:	003f8c06 	br	b54574 <___vfprintf_internal_r+0x6ec>
  b54744:	d9014217 	ldw	r4,1288(sp)
  b54748:	d9414317 	ldw	r5,1292(sp)
  b5474c:	000d883a 	mov	r6,zero
  b54750:	000f883a 	mov	r7,zero
  b54754:	0b5bef40 	call	b5bef4 <__eqdf2>
  b54758:	1000f21e 	bne	r2,zero,b54b24 <___vfprintf_internal_r+0xc9c>
  b5475c:	00802db4 	movhi	r2,182
  b54760:	1083e804 	addi	r2,r2,4000
  b54764:	94800044 	addi	r18,r18,1
  b54768:	8c400044 	addi	r17,r17,1
  b5476c:	a8800015 	stw	r2,0(r21)
  b54770:	00c00044 	movi	r3,1
  b54774:	008001c4 	movi	r2,7
  b54778:	a8c00115 	stw	r3,4(r21)
  b5477c:	dc800e15 	stw	r18,56(sp)
  b54780:	dc400d15 	stw	r17,52(sp)
  b54784:	1442fa16 	blt	r2,r17,b55370 <___vfprintf_internal_r+0x14e8>
  b54788:	a8c00204 	addi	r3,r21,8
  b5478c:	d8800517 	ldw	r2,20(sp)
  b54790:	d9014717 	ldw	r4,1308(sp)
  b54794:	11015c0e 	bge	r2,r4,b54d08 <___vfprintf_internal_r+0xe80>
  b54798:	dc400d17 	ldw	r17,52(sp)
  b5479c:	d9814917 	ldw	r6,1316(sp)
  b547a0:	00800044 	movi	r2,1
  b547a4:	94800044 	addi	r18,r18,1
  b547a8:	8c400044 	addi	r17,r17,1
  b547ac:	18800115 	stw	r2,4(r3)
  b547b0:	008001c4 	movi	r2,7
  b547b4:	19800015 	stw	r6,0(r3)
  b547b8:	dc800e15 	stw	r18,56(sp)
  b547bc:	dc400d15 	stw	r17,52(sp)
  b547c0:	14431016 	blt	r2,r17,b55404 <___vfprintf_internal_r+0x157c>
  b547c4:	18c00204 	addi	r3,r3,8
  b547c8:	d8814717 	ldw	r2,1308(sp)
  b547cc:	143fffc4 	addi	r16,r2,-1
  b547d0:	043f2b0e 	bge	zero,r16,b54480 <___vfprintf_internal_r+0x5f8>
  b547d4:	00800404 	movi	r2,16
  b547d8:	1402a20e 	bge	r2,r16,b55264 <___vfprintf_internal_r+0x13dc>
  b547dc:	dc400d17 	ldw	r17,52(sp)
  b547e0:	1027883a 	mov	r19,r2
  b547e4:	07002db4 	movhi	fp,182
  b547e8:	e7045984 	addi	fp,fp,4454
  b547ec:	050001c4 	movi	r20,7
  b547f0:	00000306 	br	b54800 <___vfprintf_internal_r+0x978>
  b547f4:	18c00204 	addi	r3,r3,8
  b547f8:	843ffc04 	addi	r16,r16,-16
  b547fc:	9c029c0e 	bge	r19,r16,b55270 <___vfprintf_internal_r+0x13e8>
  b54800:	94800404 	addi	r18,r18,16
  b54804:	8c400044 	addi	r17,r17,1
  b54808:	1f000015 	stw	fp,0(r3)
  b5480c:	1cc00115 	stw	r19,4(r3)
  b54810:	dc800e15 	stw	r18,56(sp)
  b54814:	dc400d15 	stw	r17,52(sp)
  b54818:	a47ff60e 	bge	r20,r17,b547f4 <___vfprintf_internal_r+0x96c>
  b5481c:	d9014f17 	ldw	r4,1340(sp)
  b54820:	b00b883a 	mov	r5,r22
  b54824:	d9800c04 	addi	r6,sp,48
  b54828:	0b53e300 	call	b53e30 <__sprint_r>
  b5482c:	103f4e1e 	bne	r2,zero,b54568 <___vfprintf_internal_r+0x6e0>
  b54830:	dc800e17 	ldw	r18,56(sp)
  b54834:	dc400d17 	ldw	r17,52(sp)
  b54838:	d8c01904 	addi	r3,sp,100
  b5483c:	003fee06 	br	b547f8 <___vfprintf_internal_r+0x970>
  b54840:	d8802c0b 	ldhu	r2,176(sp)
  b54844:	00ffffc4 	movi	r3,-1
  b54848:	d8c14b15 	stw	r3,1324(sp)
  b5484c:	1080100c 	andi	r2,r2,64
  b54850:	103dcc1e 	bne	r2,zero,b53f84 <___vfprintf_internal_r+0xfc>
  b54854:	003dce06 	br	b53f90 <___vfprintf_internal_r+0x108>
  b54858:	d9014f17 	ldw	r4,1340(sp)
  b5485c:	b00b883a 	mov	r5,r22
  b54860:	d9800c04 	addi	r6,sp,48
  b54864:	0b53e300 	call	b53e30 <__sprint_r>
  b54868:	103f3f1e 	bne	r2,zero,b54568 <___vfprintf_internal_r+0x6e0>
  b5486c:	dc800e17 	ldw	r18,56(sp)
  b54870:	003f2e06 	br	b5452c <___vfprintf_internal_r+0x6a4>
  b54874:	d9414c17 	ldw	r5,1328(sp)
  b54878:	29400414 	ori	r5,r5,16
  b5487c:	d9414c15 	stw	r5,1328(sp)
  b54880:	d9814c17 	ldw	r6,1328(sp)
  b54884:	3080080c 	andi	r2,r6,32
  b54888:	10014f1e 	bne	r2,zero,b54dc8 <___vfprintf_internal_r+0xf40>
  b5488c:	d8c14c17 	ldw	r3,1328(sp)
  b54890:	1880040c 	andi	r2,r3,16
  b54894:	1002ea1e 	bne	r2,zero,b55440 <___vfprintf_internal_r+0x15b8>
  b54898:	d9014c17 	ldw	r4,1328(sp)
  b5489c:	2080100c 	andi	r2,r4,64
  b548a0:	1002e726 	beq	r2,zero,b55440 <___vfprintf_internal_r+0x15b8>
  b548a4:	3880000f 	ldh	r2,0(r7)
  b548a8:	39c00104 	addi	r7,r7,4
  b548ac:	d9c14015 	stw	r7,1280(sp)
  b548b0:	1023d7fa 	srai	r17,r2,31
  b548b4:	1021883a 	mov	r16,r2
  b548b8:	88037216 	blt	r17,zero,b55684 <___vfprintf_internal_r+0x17fc>
  b548bc:	01000044 	movi	r4,1
  b548c0:	98000416 	blt	r19,zero,b548d4 <___vfprintf_internal_r+0xa4c>
  b548c4:	d8c14c17 	ldw	r3,1328(sp)
  b548c8:	00bfdfc4 	movi	r2,-129
  b548cc:	1886703a 	and	r3,r3,r2
  b548d0:	d8c14c15 	stw	r3,1328(sp)
  b548d4:	8444b03a 	or	r2,r16,r17
  b548d8:	1002261e 	bne	r2,zero,b55174 <___vfprintf_internal_r+0x12ec>
  b548dc:	9802251e 	bne	r19,zero,b55174 <___vfprintf_internal_r+0x12ec>
  b548e0:	20803fcc 	andi	r2,r4,255
  b548e4:	10029b26 	beq	r2,zero,b55354 <___vfprintf_internal_r+0x14cc>
  b548e8:	d8c01904 	addi	r3,sp,100
  b548ec:	dd000f04 	addi	r20,sp,60
  b548f0:	d8c14115 	stw	r3,1284(sp)
  b548f4:	d8c14117 	ldw	r3,1284(sp)
  b548f8:	dcc14515 	stw	r19,1300(sp)
  b548fc:	a0c5c83a 	sub	r2,r20,r3
  b54900:	11c00a04 	addi	r7,r2,40
  b54904:	99c0010e 	bge	r19,r7,b5490c <___vfprintf_internal_r+0xa84>
  b54908:	d9c14515 	stw	r7,1300(sp)
  b5490c:	dcc14615 	stw	r19,1304(sp)
  b54910:	d8800407 	ldb	r2,16(sp)
  b54914:	103e4c26 	beq	r2,zero,b54248 <___vfprintf_internal_r+0x3c0>
  b54918:	d8814517 	ldw	r2,1300(sp)
  b5491c:	10800044 	addi	r2,r2,1
  b54920:	d8814515 	stw	r2,1300(sp)
  b54924:	003e4806 	br	b54248 <___vfprintf_internal_r+0x3c0>
  b54928:	d9814c17 	ldw	r6,1328(sp)
  b5492c:	31800414 	ori	r6,r6,16
  b54930:	d9814c15 	stw	r6,1328(sp)
  b54934:	d8c14c17 	ldw	r3,1328(sp)
  b54938:	1880080c 	andi	r2,r3,32
  b5493c:	1001271e 	bne	r2,zero,b54ddc <___vfprintf_internal_r+0xf54>
  b54940:	d9414c17 	ldw	r5,1328(sp)
  b54944:	2880040c 	andi	r2,r5,16
  b54948:	1002b61e 	bne	r2,zero,b55424 <___vfprintf_internal_r+0x159c>
  b5494c:	d9814c17 	ldw	r6,1328(sp)
  b54950:	3080100c 	andi	r2,r6,64
  b54954:	1002b326 	beq	r2,zero,b55424 <___vfprintf_internal_r+0x159c>
  b54958:	3c00000b 	ldhu	r16,0(r7)
  b5495c:	0009883a 	mov	r4,zero
  b54960:	39c00104 	addi	r7,r7,4
  b54964:	0023883a 	mov	r17,zero
  b54968:	d9c14015 	stw	r7,1280(sp)
  b5496c:	d8000405 	stb	zero,16(sp)
  b54970:	003fd306 	br	b548c0 <___vfprintf_internal_r+0xa38>
  b54974:	d9014c17 	ldw	r4,1328(sp)
  b54978:	21000414 	ori	r4,r4,16
  b5497c:	d9014c15 	stw	r4,1328(sp)
  b54980:	d9414c17 	ldw	r5,1328(sp)
  b54984:	2880080c 	andi	r2,r5,32
  b54988:	1001081e 	bne	r2,zero,b54dac <___vfprintf_internal_r+0xf24>
  b5498c:	d8c14c17 	ldw	r3,1328(sp)
  b54990:	1880040c 	andi	r2,r3,16
  b54994:	1002b01e 	bne	r2,zero,b55458 <___vfprintf_internal_r+0x15d0>
  b54998:	d9014c17 	ldw	r4,1328(sp)
  b5499c:	2080100c 	andi	r2,r4,64
  b549a0:	1002ad26 	beq	r2,zero,b55458 <___vfprintf_internal_r+0x15d0>
  b549a4:	3c00000b 	ldhu	r16,0(r7)
  b549a8:	01000044 	movi	r4,1
  b549ac:	39c00104 	addi	r7,r7,4
  b549b0:	0023883a 	mov	r17,zero
  b549b4:	d9c14015 	stw	r7,1280(sp)
  b549b8:	d8000405 	stb	zero,16(sp)
  b549bc:	003fc006 	br	b548c0 <___vfprintf_internal_r+0xa38>
  b549c0:	d9014f17 	ldw	r4,1340(sp)
  b549c4:	b00b883a 	mov	r5,r22
  b549c8:	d9800c04 	addi	r6,sp,48
  b549cc:	0b53e300 	call	b53e30 <__sprint_r>
  b549d0:	103ee51e 	bne	r2,zero,b54568 <___vfprintf_internal_r+0x6e0>
  b549d4:	dc800e17 	ldw	r18,56(sp)
  b549d8:	d8c01904 	addi	r3,sp,100
  b549dc:	d9814c17 	ldw	r6,1328(sp)
  b549e0:	3080004c 	andi	r2,r6,1
  b549e4:	1005003a 	cmpeq	r2,r2,zero
  b549e8:	103ea51e 	bne	r2,zero,b54480 <___vfprintf_internal_r+0x5f8>
  b549ec:	00800044 	movi	r2,1
  b549f0:	dc400d17 	ldw	r17,52(sp)
  b549f4:	18800115 	stw	r2,4(r3)
  b549f8:	d8814917 	ldw	r2,1316(sp)
  b549fc:	94800044 	addi	r18,r18,1
  b54a00:	8c400044 	addi	r17,r17,1
  b54a04:	18800015 	stw	r2,0(r3)
  b54a08:	008001c4 	movi	r2,7
  b54a0c:	dc800e15 	stw	r18,56(sp)
  b54a10:	dc400d15 	stw	r17,52(sp)
  b54a14:	14421e0e 	bge	r2,r17,b55290 <___vfprintf_internal_r+0x1408>
  b54a18:	d9014f17 	ldw	r4,1340(sp)
  b54a1c:	b00b883a 	mov	r5,r22
  b54a20:	d9800c04 	addi	r6,sp,48
  b54a24:	0b53e300 	call	b53e30 <__sprint_r>
  b54a28:	103ecf1e 	bne	r2,zero,b54568 <___vfprintf_internal_r+0x6e0>
  b54a2c:	dc800e17 	ldw	r18,56(sp)
  b54a30:	d8c01904 	addi	r3,sp,100
  b54a34:	003e9206 	br	b54480 <___vfprintf_internal_r+0x5f8>
  b54a38:	d9014f17 	ldw	r4,1340(sp)
  b54a3c:	b00b883a 	mov	r5,r22
  b54a40:	d9800c04 	addi	r6,sp,48
  b54a44:	0b53e300 	call	b53e30 <__sprint_r>
  b54a48:	103ec026 	beq	r2,zero,b5454c <___vfprintf_internal_r+0x6c4>
  b54a4c:	003ec606 	br	b54568 <___vfprintf_internal_r+0x6e0>
  b54a50:	d9014f17 	ldw	r4,1340(sp)
  b54a54:	b00b883a 	mov	r5,r22
  b54a58:	d9800c04 	addi	r6,sp,48
  b54a5c:	d9c15115 	stw	r7,1348(sp)
  b54a60:	0b53e300 	call	b53e30 <__sprint_r>
  b54a64:	d9c15117 	ldw	r7,1348(sp)
  b54a68:	103ebf1e 	bne	r2,zero,b54568 <___vfprintf_internal_r+0x6e0>
  b54a6c:	dc800e17 	ldw	r18,56(sp)
  b54a70:	dc400d17 	ldw	r17,52(sp)
  b54a74:	dd401904 	addi	r21,sp,100
  b54a78:	003e7406 	br	b5444c <___vfprintf_internal_r+0x5c4>
  b54a7c:	d9014f17 	ldw	r4,1340(sp)
  b54a80:	b00b883a 	mov	r5,r22
  b54a84:	d9800c04 	addi	r6,sp,48
  b54a88:	d9c15115 	stw	r7,1348(sp)
  b54a8c:	0b53e300 	call	b53e30 <__sprint_r>
  b54a90:	d9c15117 	ldw	r7,1348(sp)
  b54a94:	103eb41e 	bne	r2,zero,b54568 <___vfprintf_internal_r+0x6e0>
  b54a98:	dd401904 	addi	r21,sp,100
  b54a9c:	003d6d06 	br	b54054 <___vfprintf_internal_r+0x1cc>
  b54aa0:	d9014f17 	ldw	r4,1340(sp)
  b54aa4:	b00b883a 	mov	r5,r22
  b54aa8:	d9800c04 	addi	r6,sp,48
  b54aac:	d9c15115 	stw	r7,1348(sp)
  b54ab0:	0b53e300 	call	b53e30 <__sprint_r>
  b54ab4:	d9c15117 	ldw	r7,1348(sp)
  b54ab8:	103eab1e 	bne	r2,zero,b54568 <___vfprintf_internal_r+0x6e0>
  b54abc:	dc800e17 	ldw	r18,56(sp)
  b54ac0:	dc400d17 	ldw	r17,52(sp)
  b54ac4:	dd401904 	addi	r21,sp,100
  b54ac8:	003e3406 	br	b5439c <___vfprintf_internal_r+0x514>
  b54acc:	d9014f17 	ldw	r4,1340(sp)
  b54ad0:	b00b883a 	mov	r5,r22
  b54ad4:	d9800c04 	addi	r6,sp,48
  b54ad8:	d9c15115 	stw	r7,1348(sp)
  b54adc:	0b53e300 	call	b53e30 <__sprint_r>
  b54ae0:	d9c15117 	ldw	r7,1348(sp)
  b54ae4:	103ea01e 	bne	r2,zero,b54568 <___vfprintf_internal_r+0x6e0>
  b54ae8:	dc800e17 	ldw	r18,56(sp)
  b54aec:	dc400d17 	ldw	r17,52(sp)
  b54af0:	dd401904 	addi	r21,sp,100
  b54af4:	003e1c06 	br	b54368 <___vfprintf_internal_r+0x4e0>
  b54af8:	d9014f17 	ldw	r4,1340(sp)
  b54afc:	b00b883a 	mov	r5,r22
  b54b00:	d9800c04 	addi	r6,sp,48
  b54b04:	d9c15115 	stw	r7,1348(sp)
  b54b08:	0b53e300 	call	b53e30 <__sprint_r>
  b54b0c:	d9c15117 	ldw	r7,1348(sp)
  b54b10:	103e951e 	bne	r2,zero,b54568 <___vfprintf_internal_r+0x6e0>
  b54b14:	dc800e17 	ldw	r18,56(sp)
  b54b18:	dc400d17 	ldw	r17,52(sp)
  b54b1c:	dd401904 	addi	r21,sp,100
  b54b20:	003e0406 	br	b54334 <___vfprintf_internal_r+0x4ac>
  b54b24:	d9000517 	ldw	r4,20(sp)
  b54b28:	0102520e 	bge	zero,r4,b55474 <___vfprintf_internal_r+0x15ec>
  b54b2c:	d9814717 	ldw	r6,1308(sp)
  b54b30:	21807a16 	blt	r4,r6,b54d1c <___vfprintf_internal_r+0xe94>
  b54b34:	d8814117 	ldw	r2,1284(sp)
  b54b38:	91a5883a 	add	r18,r18,r6
  b54b3c:	8c400044 	addi	r17,r17,1
  b54b40:	a8800015 	stw	r2,0(r21)
  b54b44:	008001c4 	movi	r2,7
  b54b48:	a9800115 	stw	r6,4(r21)
  b54b4c:	dc800e15 	stw	r18,56(sp)
  b54b50:	dc400d15 	stw	r17,52(sp)
  b54b54:	1442f616 	blt	r2,r17,b55730 <___vfprintf_internal_r+0x18a8>
  b54b58:	a8c00204 	addi	r3,r21,8
  b54b5c:	d9414717 	ldw	r5,1308(sp)
  b54b60:	2161c83a 	sub	r16,r4,r5
  b54b64:	043f9d0e 	bge	zero,r16,b549dc <___vfprintf_internal_r+0xb54>
  b54b68:	00800404 	movi	r2,16
  b54b6c:	1402130e 	bge	r2,r16,b553bc <___vfprintf_internal_r+0x1534>
  b54b70:	dc400d17 	ldw	r17,52(sp)
  b54b74:	1027883a 	mov	r19,r2
  b54b78:	07002db4 	movhi	fp,182
  b54b7c:	e7045984 	addi	fp,fp,4454
  b54b80:	050001c4 	movi	r20,7
  b54b84:	00000306 	br	b54b94 <___vfprintf_internal_r+0xd0c>
  b54b88:	18c00204 	addi	r3,r3,8
  b54b8c:	843ffc04 	addi	r16,r16,-16
  b54b90:	9c020d0e 	bge	r19,r16,b553c8 <___vfprintf_internal_r+0x1540>
  b54b94:	94800404 	addi	r18,r18,16
  b54b98:	8c400044 	addi	r17,r17,1
  b54b9c:	1f000015 	stw	fp,0(r3)
  b54ba0:	1cc00115 	stw	r19,4(r3)
  b54ba4:	dc800e15 	stw	r18,56(sp)
  b54ba8:	dc400d15 	stw	r17,52(sp)
  b54bac:	a47ff60e 	bge	r20,r17,b54b88 <___vfprintf_internal_r+0xd00>
  b54bb0:	d9014f17 	ldw	r4,1340(sp)
  b54bb4:	b00b883a 	mov	r5,r22
  b54bb8:	d9800c04 	addi	r6,sp,48
  b54bbc:	0b53e300 	call	b53e30 <__sprint_r>
  b54bc0:	103e691e 	bne	r2,zero,b54568 <___vfprintf_internal_r+0x6e0>
  b54bc4:	dc800e17 	ldw	r18,56(sp)
  b54bc8:	dc400d17 	ldw	r17,52(sp)
  b54bcc:	d8c01904 	addi	r3,sp,100
  b54bd0:	003fee06 	br	b54b8c <___vfprintf_internal_r+0xd04>
  b54bd4:	d8814717 	ldw	r2,1308(sp)
  b54bd8:	143fffc4 	addi	r16,r2,-1
  b54bdc:	043e970e 	bge	zero,r16,b5463c <___vfprintf_internal_r+0x7b4>
  b54be0:	00800404 	movi	r2,16
  b54be4:	1400180e 	bge	r2,r16,b54c48 <___vfprintf_internal_r+0xdc0>
  b54be8:	1029883a 	mov	r20,r2
  b54bec:	07002db4 	movhi	fp,182
  b54bf0:	e7045984 	addi	fp,fp,4454
  b54bf4:	054001c4 	movi	r21,7
  b54bf8:	00000306 	br	b54c08 <___vfprintf_internal_r+0xd80>
  b54bfc:	9cc00204 	addi	r19,r19,8
  b54c00:	843ffc04 	addi	r16,r16,-16
  b54c04:	a400120e 	bge	r20,r16,b54c50 <___vfprintf_internal_r+0xdc8>
  b54c08:	94800404 	addi	r18,r18,16
  b54c0c:	8c400044 	addi	r17,r17,1
  b54c10:	9f000015 	stw	fp,0(r19)
  b54c14:	9d000115 	stw	r20,4(r19)
  b54c18:	dc800e15 	stw	r18,56(sp)
  b54c1c:	dc400d15 	stw	r17,52(sp)
  b54c20:	ac7ff60e 	bge	r21,r17,b54bfc <___vfprintf_internal_r+0xd74>
  b54c24:	d9014f17 	ldw	r4,1340(sp)
  b54c28:	b00b883a 	mov	r5,r22
  b54c2c:	d9800c04 	addi	r6,sp,48
  b54c30:	0b53e300 	call	b53e30 <__sprint_r>
  b54c34:	103e4c1e 	bne	r2,zero,b54568 <___vfprintf_internal_r+0x6e0>
  b54c38:	dc800e17 	ldw	r18,56(sp)
  b54c3c:	dc400d17 	ldw	r17,52(sp)
  b54c40:	dcc01904 	addi	r19,sp,100
  b54c44:	003fee06 	br	b54c00 <___vfprintf_internal_r+0xd78>
  b54c48:	07002db4 	movhi	fp,182
  b54c4c:	e7045984 	addi	fp,fp,4454
  b54c50:	9425883a 	add	r18,r18,r16
  b54c54:	8c400044 	addi	r17,r17,1
  b54c58:	008001c4 	movi	r2,7
  b54c5c:	9f000015 	stw	fp,0(r19)
  b54c60:	9c000115 	stw	r16,4(r19)
  b54c64:	dc800e15 	stw	r18,56(sp)
  b54c68:	dc400d15 	stw	r17,52(sp)
  b54c6c:	147e720e 	bge	r2,r17,b54638 <___vfprintf_internal_r+0x7b0>
  b54c70:	d9014f17 	ldw	r4,1340(sp)
  b54c74:	b00b883a 	mov	r5,r22
  b54c78:	d9800c04 	addi	r6,sp,48
  b54c7c:	0b53e300 	call	b53e30 <__sprint_r>
  b54c80:	103e391e 	bne	r2,zero,b54568 <___vfprintf_internal_r+0x6e0>
  b54c84:	dc800e17 	ldw	r18,56(sp)
  b54c88:	dc400d17 	ldw	r17,52(sp)
  b54c8c:	dcc01904 	addi	r19,sp,100
  b54c90:	003e6a06 	br	b5463c <___vfprintf_internal_r+0x7b4>
  b54c94:	d9014f17 	ldw	r4,1340(sp)
  b54c98:	b00b883a 	mov	r5,r22
  b54c9c:	d9800c04 	addi	r6,sp,48
  b54ca0:	d9c15115 	stw	r7,1348(sp)
  b54ca4:	0b53e300 	call	b53e30 <__sprint_r>
  b54ca8:	d9c15117 	ldw	r7,1348(sp)
  b54cac:	103e2e1e 	bne	r2,zero,b54568 <___vfprintf_internal_r+0x6e0>
  b54cb0:	dc800e17 	ldw	r18,56(sp)
  b54cb4:	dc400d17 	ldw	r17,52(sp)
  b54cb8:	dd401904 	addi	r21,sp,100
  b54cbc:	003dba06 	br	b543a8 <___vfprintf_internal_r+0x520>
  b54cc0:	d9014f17 	ldw	r4,1340(sp)
  b54cc4:	b00b883a 	mov	r5,r22
  b54cc8:	d9800c04 	addi	r6,sp,48
  b54ccc:	0b53e300 	call	b53e30 <__sprint_r>
  b54cd0:	103e251e 	bne	r2,zero,b54568 <___vfprintf_internal_r+0x6e0>
  b54cd4:	dc800e17 	ldw	r18,56(sp)
  b54cd8:	dc400d17 	ldw	r17,52(sp)
  b54cdc:	dcc01904 	addi	r19,sp,100
  b54ce0:	003e4206 	br	b545ec <___vfprintf_internal_r+0x764>
  b54ce4:	d9014f17 	ldw	r4,1340(sp)
  b54ce8:	b00b883a 	mov	r5,r22
  b54cec:	d9800c04 	addi	r6,sp,48
  b54cf0:	0b53e300 	call	b53e30 <__sprint_r>
  b54cf4:	103e1c1e 	bne	r2,zero,b54568 <___vfprintf_internal_r+0x6e0>
  b54cf8:	dc800e17 	ldw	r18,56(sp)
  b54cfc:	dc400d17 	ldw	r17,52(sp)
  b54d00:	d8c01904 	addi	r3,sp,100
  b54d04:	003e2e06 	br	b545c0 <___vfprintf_internal_r+0x738>
  b54d08:	d9414c17 	ldw	r5,1328(sp)
  b54d0c:	2880004c 	andi	r2,r5,1
  b54d10:	1005003a 	cmpeq	r2,r2,zero
  b54d14:	103dda1e 	bne	r2,zero,b54480 <___vfprintf_internal_r+0x5f8>
  b54d18:	003e9f06 	br	b54798 <___vfprintf_internal_r+0x910>
  b54d1c:	d8c14117 	ldw	r3,1284(sp)
  b54d20:	9125883a 	add	r18,r18,r4
  b54d24:	8c400044 	addi	r17,r17,1
  b54d28:	008001c4 	movi	r2,7
  b54d2c:	a8c00015 	stw	r3,0(r21)
  b54d30:	a9000115 	stw	r4,4(r21)
  b54d34:	dc800e15 	stw	r18,56(sp)
  b54d38:	dc400d15 	stw	r17,52(sp)
  b54d3c:	14426616 	blt	r2,r17,b556d8 <___vfprintf_internal_r+0x1850>
  b54d40:	a8c00204 	addi	r3,r21,8
  b54d44:	d9414917 	ldw	r5,1316(sp)
  b54d48:	00800044 	movi	r2,1
  b54d4c:	94800044 	addi	r18,r18,1
  b54d50:	8c400044 	addi	r17,r17,1
  b54d54:	18800115 	stw	r2,4(r3)
  b54d58:	008001c4 	movi	r2,7
  b54d5c:	19400015 	stw	r5,0(r3)
  b54d60:	dc800e15 	stw	r18,56(sp)
  b54d64:	dc400d15 	stw	r17,52(sp)
  b54d68:	2021883a 	mov	r16,r4
  b54d6c:	14425016 	blt	r2,r17,b556b0 <___vfprintf_internal_r+0x1828>
  b54d70:	19400204 	addi	r5,r3,8
  b54d74:	d9814717 	ldw	r6,1308(sp)
  b54d78:	8c400044 	addi	r17,r17,1
  b54d7c:	dc400d15 	stw	r17,52(sp)
  b54d80:	3107c83a 	sub	r3,r6,r4
  b54d84:	d9014117 	ldw	r4,1284(sp)
  b54d88:	90e5883a 	add	r18,r18,r3
  b54d8c:	28c00115 	stw	r3,4(r5)
  b54d90:	8105883a 	add	r2,r16,r4
  b54d94:	28800015 	stw	r2,0(r5)
  b54d98:	008001c4 	movi	r2,7
  b54d9c:	dc800e15 	stw	r18,56(sp)
  b54da0:	147f1d16 	blt	r2,r17,b54a18 <___vfprintf_internal_r+0xb90>
  b54da4:	28c00204 	addi	r3,r5,8
  b54da8:	003db506 	br	b54480 <___vfprintf_internal_r+0x5f8>
  b54dac:	3c000017 	ldw	r16,0(r7)
  b54db0:	3c400117 	ldw	r17,4(r7)
  b54db4:	39800204 	addi	r6,r7,8
  b54db8:	01000044 	movi	r4,1
  b54dbc:	d9814015 	stw	r6,1280(sp)
  b54dc0:	d8000405 	stb	zero,16(sp)
  b54dc4:	003ebe06 	br	b548c0 <___vfprintf_internal_r+0xa38>
  b54dc8:	3c000017 	ldw	r16,0(r7)
  b54dcc:	3c400117 	ldw	r17,4(r7)
  b54dd0:	38800204 	addi	r2,r7,8
  b54dd4:	d8814015 	stw	r2,1280(sp)
  b54dd8:	003eb706 	br	b548b8 <___vfprintf_internal_r+0xa30>
  b54ddc:	3c000017 	ldw	r16,0(r7)
  b54de0:	3c400117 	ldw	r17,4(r7)
  b54de4:	39000204 	addi	r4,r7,8
  b54de8:	d9014015 	stw	r4,1280(sp)
  b54dec:	0009883a 	mov	r4,zero
  b54df0:	d8000405 	stb	zero,16(sp)
  b54df4:	003eb206 	br	b548c0 <___vfprintf_internal_r+0xa38>
  b54df8:	38c00017 	ldw	r3,0(r7)
  b54dfc:	39c00104 	addi	r7,r7,4
  b54e00:	d8c14a15 	stw	r3,1320(sp)
  b54e04:	1800d10e 	bge	r3,zero,b5514c <___vfprintf_internal_r+0x12c4>
  b54e08:	00c7c83a 	sub	r3,zero,r3
  b54e0c:	d8c14a15 	stw	r3,1320(sp)
  b54e10:	d9014c17 	ldw	r4,1328(sp)
  b54e14:	b8c00007 	ldb	r3,0(r23)
  b54e18:	21000114 	ori	r4,r4,4
  b54e1c:	d9014c15 	stw	r4,1328(sp)
  b54e20:	003c9806 	br	b54084 <___vfprintf_internal_r+0x1fc>
  b54e24:	d9814c17 	ldw	r6,1328(sp)
  b54e28:	3080080c 	andi	r2,r6,32
  b54e2c:	1001f026 	beq	r2,zero,b555f0 <___vfprintf_internal_r+0x1768>
  b54e30:	d9014b17 	ldw	r4,1324(sp)
  b54e34:	38800017 	ldw	r2,0(r7)
  b54e38:	39c00104 	addi	r7,r7,4
  b54e3c:	d9c14015 	stw	r7,1280(sp)
  b54e40:	2007d7fa 	srai	r3,r4,31
  b54e44:	d9c14017 	ldw	r7,1280(sp)
  b54e48:	11000015 	stw	r4,0(r2)
  b54e4c:	10c00115 	stw	r3,4(r2)
  b54e50:	003c6906 	br	b53ff8 <___vfprintf_internal_r+0x170>
  b54e54:	b8c00007 	ldb	r3,0(r23)
  b54e58:	00801b04 	movi	r2,108
  b54e5c:	18824f26 	beq	r3,r2,b5579c <___vfprintf_internal_r+0x1914>
  b54e60:	d9414c17 	ldw	r5,1328(sp)
  b54e64:	29400414 	ori	r5,r5,16
  b54e68:	d9414c15 	stw	r5,1328(sp)
  b54e6c:	003c8506 	br	b54084 <___vfprintf_internal_r+0x1fc>
  b54e70:	d9814c17 	ldw	r6,1328(sp)
  b54e74:	b8c00007 	ldb	r3,0(r23)
  b54e78:	31800814 	ori	r6,r6,32
  b54e7c:	d9814c15 	stw	r6,1328(sp)
  b54e80:	003c8006 	br	b54084 <___vfprintf_internal_r+0x1fc>
  b54e84:	d8814c17 	ldw	r2,1328(sp)
  b54e88:	3c000017 	ldw	r16,0(r7)
  b54e8c:	00c01e04 	movi	r3,120
  b54e90:	10800094 	ori	r2,r2,2
  b54e94:	d8814c15 	stw	r2,1328(sp)
  b54e98:	39c00104 	addi	r7,r7,4
  b54e9c:	01402db4 	movhi	r5,182
  b54ea0:	29444304 	addi	r5,r5,4364
  b54ea4:	00800c04 	movi	r2,48
  b54ea8:	0023883a 	mov	r17,zero
  b54eac:	01000084 	movi	r4,2
  b54eb0:	d9c14015 	stw	r7,1280(sp)
  b54eb4:	d8c14d15 	stw	r3,1332(sp)
  b54eb8:	d9414415 	stw	r5,1296(sp)
  b54ebc:	d8800445 	stb	r2,17(sp)
  b54ec0:	d8c00485 	stb	r3,18(sp)
  b54ec4:	d8000405 	stb	zero,16(sp)
  b54ec8:	003e7d06 	br	b548c0 <___vfprintf_internal_r+0xa38>
  b54ecc:	d8814c17 	ldw	r2,1328(sp)
  b54ed0:	b8c00007 	ldb	r3,0(r23)
  b54ed4:	10801014 	ori	r2,r2,64
  b54ed8:	d8814c15 	stw	r2,1328(sp)
  b54edc:	003c6906 	br	b54084 <___vfprintf_internal_r+0x1fc>
  b54ee0:	d9414c17 	ldw	r5,1328(sp)
  b54ee4:	2880020c 	andi	r2,r5,8
  b54ee8:	1001df26 	beq	r2,zero,b55668 <___vfprintf_internal_r+0x17e0>
  b54eec:	39800017 	ldw	r6,0(r7)
  b54ef0:	38800204 	addi	r2,r7,8
  b54ef4:	d8814015 	stw	r2,1280(sp)
  b54ef8:	d9814215 	stw	r6,1288(sp)
  b54efc:	39c00117 	ldw	r7,4(r7)
  b54f00:	d9c14315 	stw	r7,1292(sp)
  b54f04:	d9014217 	ldw	r4,1288(sp)
  b54f08:	d9414317 	ldw	r5,1292(sp)
  b54f0c:	0b5a8280 	call	b5a828 <__isinfd>
  b54f10:	10021726 	beq	r2,zero,b55770 <___vfprintf_internal_r+0x18e8>
  b54f14:	d9014217 	ldw	r4,1288(sp)
  b54f18:	d9414317 	ldw	r5,1292(sp)
  b54f1c:	000d883a 	mov	r6,zero
  b54f20:	000f883a 	mov	r7,zero
  b54f24:	0b5c08c0 	call	b5c08c <__ltdf2>
  b54f28:	1002ca16 	blt	r2,zero,b55a54 <___vfprintf_internal_r+0x1bcc>
  b54f2c:	d9414d17 	ldw	r5,1332(sp)
  b54f30:	008011c4 	movi	r2,71
  b54f34:	11420a16 	blt	r2,r5,b55760 <___vfprintf_internal_r+0x18d8>
  b54f38:	01802db4 	movhi	r6,182
  b54f3c:	31844804 	addi	r6,r6,4384
  b54f40:	d9814115 	stw	r6,1284(sp)
  b54f44:	d9014c17 	ldw	r4,1328(sp)
  b54f48:	00c000c4 	movi	r3,3
  b54f4c:	00bfdfc4 	movi	r2,-129
  b54f50:	2088703a 	and	r4,r4,r2
  b54f54:	180f883a 	mov	r7,r3
  b54f58:	d8c14515 	stw	r3,1300(sp)
  b54f5c:	d9014c15 	stw	r4,1328(sp)
  b54f60:	d8014615 	stw	zero,1304(sp)
  b54f64:	003e6a06 	br	b54910 <___vfprintf_internal_r+0xa88>
  b54f68:	38800017 	ldw	r2,0(r7)
  b54f6c:	00c00044 	movi	r3,1
  b54f70:	39c00104 	addi	r7,r7,4
  b54f74:	d9c14015 	stw	r7,1280(sp)
  b54f78:	d9000f04 	addi	r4,sp,60
  b54f7c:	180f883a 	mov	r7,r3
  b54f80:	d8c14515 	stw	r3,1300(sp)
  b54f84:	d9014115 	stw	r4,1284(sp)
  b54f88:	d8800f05 	stb	r2,60(sp)
  b54f8c:	d8000405 	stb	zero,16(sp)
  b54f90:	003cac06 	br	b54244 <___vfprintf_internal_r+0x3bc>
  b54f94:	01402db4 	movhi	r5,182
  b54f98:	29444e04 	addi	r5,r5,4408
  b54f9c:	d9414415 	stw	r5,1296(sp)
  b54fa0:	d9814c17 	ldw	r6,1328(sp)
  b54fa4:	3080080c 	andi	r2,r6,32
  b54fa8:	1000f926 	beq	r2,zero,b55390 <___vfprintf_internal_r+0x1508>
  b54fac:	3c000017 	ldw	r16,0(r7)
  b54fb0:	3c400117 	ldw	r17,4(r7)
  b54fb4:	38800204 	addi	r2,r7,8
  b54fb8:	d8814015 	stw	r2,1280(sp)
  b54fbc:	d9414c17 	ldw	r5,1328(sp)
  b54fc0:	2880004c 	andi	r2,r5,1
  b54fc4:	1005003a 	cmpeq	r2,r2,zero
  b54fc8:	1000b31e 	bne	r2,zero,b55298 <___vfprintf_internal_r+0x1410>
  b54fcc:	8444b03a 	or	r2,r16,r17
  b54fd0:	1000b126 	beq	r2,zero,b55298 <___vfprintf_internal_r+0x1410>
  b54fd4:	d9814d17 	ldw	r6,1332(sp)
  b54fd8:	29400094 	ori	r5,r5,2
  b54fdc:	00800c04 	movi	r2,48
  b54fe0:	01000084 	movi	r4,2
  b54fe4:	d9414c15 	stw	r5,1328(sp)
  b54fe8:	d8800445 	stb	r2,17(sp)
  b54fec:	d9800485 	stb	r6,18(sp)
  b54ff0:	d8000405 	stb	zero,16(sp)
  b54ff4:	003e3206 	br	b548c0 <___vfprintf_internal_r+0xa38>
  b54ff8:	01802db4 	movhi	r6,182
  b54ffc:	31844304 	addi	r6,r6,4364
  b55000:	d9814415 	stw	r6,1296(sp)
  b55004:	003fe606 	br	b54fa0 <___vfprintf_internal_r+0x1118>
  b55008:	00800ac4 	movi	r2,43
  b5500c:	d8800405 	stb	r2,16(sp)
  b55010:	b8c00007 	ldb	r3,0(r23)
  b55014:	003c1b06 	br	b54084 <___vfprintf_internal_r+0x1fc>
  b55018:	d8814c17 	ldw	r2,1328(sp)
  b5501c:	b8c00007 	ldb	r3,0(r23)
  b55020:	10800054 	ori	r2,r2,1
  b55024:	d8814c15 	stw	r2,1328(sp)
  b55028:	003c1606 	br	b54084 <___vfprintf_internal_r+0x1fc>
  b5502c:	d8800407 	ldb	r2,16(sp)
  b55030:	1000461e 	bne	r2,zero,b5514c <___vfprintf_internal_r+0x12c4>
  b55034:	00800804 	movi	r2,32
  b55038:	d8800405 	stb	r2,16(sp)
  b5503c:	b8c00007 	ldb	r3,0(r23)
  b55040:	003c1006 	br	b54084 <___vfprintf_internal_r+0x1fc>
  b55044:	d9814c17 	ldw	r6,1328(sp)
  b55048:	b8c00007 	ldb	r3,0(r23)
  b5504c:	31800214 	ori	r6,r6,8
  b55050:	d9814c15 	stw	r6,1328(sp)
  b55054:	003c0b06 	br	b54084 <___vfprintf_internal_r+0x1fc>
  b55058:	0007883a 	mov	r3,zero
  b5505c:	01000244 	movi	r4,9
  b55060:	188002a4 	muli	r2,r3,10
  b55064:	b8c00007 	ldb	r3,0(r23)
  b55068:	d9814d17 	ldw	r6,1332(sp)
  b5506c:	bdc00044 	addi	r23,r23,1
